Archive member included because of file (symbol)

/sdd/opt/microchip/xc32/v1.40/bin/bin/../../lib/gcc/pic32mx/4.8.3/../../../../pic32mx/lib/speed/libmchp_peripheral.a(read_core_timer_lib.o)
                              build/default/production/_ext/1295770447/ETHPIC32ExtPhy.o (ReadCoreTimer)
/sdd/opt/microchip/xc32/v1.40/bin/bin/../../lib/gcc/pic32mx/4.8.3/../../../../pic32mx/lib/speed/libmchp_peripheral_32MX795F512L.a(eth_ack_packet_lib.o)
                              build/default/production/_ext/1295770447/ETHPIC32IntMac.o (EthRxAcknowledgeBuffer)
/sdd/opt/microchip/xc32/v1.40/bin/bin/../../lib/gcc/pic32mx/4.8.3/../../../../pic32mx/lib/speed/libmchp_peripheral_32MX795F512L.a(eth_descriptors_add_lib.o)
                              /sdd/opt/microchip/xc32/v1.40/bin/bin/../../lib/gcc/pic32mx/4.8.3/../../../../pic32mx/lib/speed/libmchp_peripheral_32MX795F512L.a(eth_ack_packet_lib.o) (_EthTxFreeList)
/sdd/opt/microchip/xc32/v1.40/bin/bin/../../lib/gcc/pic32mx/4.8.3/../../../../pic32mx/lib/speed/libmchp_peripheral_32MX795F512L.a(eth_init_lib.o)
                              build/default/production/_ext/1295770447/ETHPIC32IntMac.o (EthInit)
/sdd/opt/microchip/xc32/v1.40/bin/bin/../../lib/gcc/pic32mx/4.8.3/../../../../pic32mx/lib/speed/libmchp_peripheral_32MX795F512L.a(eth_mac_open_lib.o)
                              build/default/production/_ext/1295770447/ETHPIC32IntMac.o (EthMACOpen)
/sdd/opt/microchip/xc32/v1.40/bin/bin/../../lib/gcc/pic32mx/4.8.3/../../../../pic32mx/lib/speed/libmchp_peripheral_32MX795F512L.a(eth_mac_set_address_max_lib.o)
                              build/default/production/_ext/1295770447/ETHPIC32IntMac.o (EthMACSetAddress)
/sdd/opt/microchip/xc32/v1.40/bin/bin/../../lib/gcc/pic32mx/4.8.3/../../../../pic32mx/lib/speed/libmchp_peripheral_32MX795F512L.a(eth_rx_buffers_append_lib.o)
                              build/default/production/_ext/1295770447/ETHPIC32IntMac.o (EthRxBuffersAppend)
/sdd/opt/microchip/xc32/v1.40/bin/bin/../../lib/gcc/pic32mx/4.8.3/../../../../pic32mx/lib/speed/libmchp_peripheral_32MX795F512L.a(eth_rx_filters_lib.o)
                              build/default/production/_ext/1295770447/ETHPIC32IntMac.o (EthRxFiltersSet)
/sdd/opt/microchip/xc32/v1.40/bin/bin/../../lib/gcc/pic32mx/4.8.3/../../../../pic32mx/lib/speed/libmchp_peripheral_32MX795F512L.a(eth_rx_get_packet_lib.o)
                              build/default/production/_ext/1295770447/ETHPIC32IntMac.o (EthRxGetBuffer)
/sdd/opt/microchip/xc32/v1.40/bin/bin/../../lib/gcc/pic32mx/4.8.3/../../../../pic32mx/lib/speed/libmchp_peripheral_32MX795F512L.a(eth_rx_set_buffer_size_lib.o)
                              build/default/production/_ext/1295770447/ETHPIC32IntMac.o (EthRxSetBufferSize)
/sdd/opt/microchip/xc32/v1.40/bin/bin/../../lib/gcc/pic32mx/4.8.3/../../../../pic32mx/lib/speed/libmchp_peripheral_32MX795F512L.a(eth_tx_packet_lib.o)
                              build/default/production/_ext/1295770447/ETHPIC32IntMac.o (EthTxSendBuffer)
/sdd/opt/microchip/xc32/v1.40/bin/bin/../../lib/gcc/pic32mx/4.8.3/../../../../pic32mx/lib/speed/libmchp_peripheral_32MX795F512L.a(_eth_append_busy_list_lib.o)
                              /sdd/opt/microchip/xc32/v1.40/bin/bin/../../lib/gcc/pic32mx/4.8.3/../../../../pic32mx/lib/speed/libmchp_peripheral_32MX795F512L.a(eth_ack_packet_lib.o) (_EthAppendBusyList)
/sdd/opt/microchip/xc32/v1.40/bin/bin/../../lib/gcc/pic32mx/4.8.3/../../../../pic32mx/lib/speed/libmchp_peripheral_32MX795F512L.a(eth_miim_access.o)
                              build/default/production/_ext/1295770447/ETHPIC32ExtPhy.o (EthMIIMReadStart)
/sdd/opt/microchip/xc32/v1.40/bin/bin/../../lib/gcc/pic32mx/4.8.3/../../../../pic32mx/lib/speed/libmchp_peripheral_32MX795F512L.a(soft_reset_lib.o)
                              build/default/production/_ext/1295770447/Reboot.o (SoftReset)
/sdd/opt/microchip/xc32/v1.40/bin/bin/../../lib/gcc/pic32mx/4.8.3/../../../../pic32mx/lib/speed/libmchp_peripheral_32MX795F512L.a(pcache.o)
                              build/default/production/_ext/1472/MainDemo.o (CheKseg0CacheOn)
/sdd/opt/microchip/xc32/v1.40/bin/bin/../../lib/gcc/pic32mx/4.8.3/../../../../pic32mx/lib/speed/libmchp_peripheral_32MX795F512L.a(int_disable_interrupts_lib.o)
                              build/default/production/_ext/1472/MainDemo.o (INTDisableInterrupts)
/sdd/opt/microchip/xc32/v1.40/bin/bin/../../lib/gcc/pic32mx/4.8.3/../../../../pic32mx/lib/speed/libmchp_peripheral_32MX795F512L.a(int_restore_interrupts_lib.o)
                              build/default/production/_ext/1472/MainDemo.o (INTRestoreInterrupts)
/sdd/opt/microchip/xc32/v1.40/bin/bin/../../lib/gcc/pic32mx/4.8.3/../../../../pic32mx/lib/speed/libmchp_peripheral_32MX795F512L.a(int_enable_mv_int_lib.o)
                              build/default/production/_ext/1472/MainDemo.o (INTEnableSystemMultiVectoredInt)
/sdd/opt/microchip/xc32/v1.40/bin/bin/../../lib/gcc/pic32mx/4.8.3/../../../../pic32mx/lib/speed/libmchp_peripheral_32MX795F512L.a(int_tbl_lib.o)
                              build/default/production/_ext/1472/mbmc.o (INTClearFlag)
/sdd/opt/microchip/xc32/v1.40/bin/bin/../../lib/gcc/pic32mx/4.8.3/../../../../pic32mx/lib/speed/libmchp_peripheral_32MX795F512L.a(port_set_pins_digital_in_lib.o)
                              build/default/production/_ext/1295770447/ETHPIC32ExtPhy.o (PORTSetPinsDigitalIn)
/sdd/opt/microchip/xc32/v1.40/bin/bin/../../lib/gcc/pic32mx/4.8.3/../../../../pic32mx/lib/speed/libmchp_peripheral_32MX795F512L.a(port_set_pins_digital_out_lib.o)
                              build/default/production/_ext/1295770447/ETHPIC32ExtPhy.o (PORTSetPinsDigitalOut)
/sdd/opt/microchip/xc32/v1.40/bin/bin/../../lib/gcc/pic32mx/4.8.3/../../../../pic32mx/lib/speed/libmchp_peripheral_32MX795F512L.a(_ports_tbl_libp.o)
                              /sdd/opt/microchip/xc32/v1.40/bin/bin/../../lib/gcc/pic32mx/4.8.3/../../../../pic32mx/lib/speed/libmchp_peripheral_32MX795F512L.a(port_set_pins_digital_in_lib.o) (PortRegTbl)
/sdd/opt/microchip/xc32/v1.40/bin/bin/../../lib/gcc/pic32mx/4.8.3/../../../../pic32mx/lib/speed/libmchp_peripheral_32MX795F512L.a(uart_lib.o)
                              build/default/production/_ext/1295770447/Telnet.o (uartReg)
/sdd/opt/microchip/xc32/v1.40/bin/bin/../../lib/gcc/pic32mx/4.8.3/../../../../pic32mx/lib/speed/libmchp_peripheral_32MX795F512L.a(int_enable_interrupts_lib.o)
                              /sdd/opt/microchip/xc32/v1.40/bin/bin/../../lib/gcc/pic32mx/4.8.3/../../../../pic32mx/lib/speed/libmchp_peripheral_32MX795F512L.a(int_enable_mv_int_lib.o) (INTEnableInterrupts)
/sdd/opt/microchip/xc32/v1.40/bin/bin/../../lib/gcc/pic32mx/4.8.3/speed/libgcc.a(_udivdi3.o)
                              build/default/production/_ext/1295770447/AutoIP.o (__udivdi3)
/sdd/opt/microchip/xc32/v1.40/bin/bin/../../lib/gcc/pic32mx/4.8.3/speed/libgcc.a(floatunsisf.o)
                              build/default/production/_ext/1472/CustomHTTPApp.o (__floatunsisf)
/sdd/opt/microchip/xc32/v1.40/bin/bin/../../lib/gcc/pic32mx/4.8.3/../../../../pic32mx/lib/speed/libpic32.a(memcmp.o)
                              build/default/production/_ext/1295770447/ETHPIC32IntMac.o (memcmp)
/sdd/opt/microchip/xc32/v1.40/bin/bin/../../lib/gcc/pic32mx/4.8.3/../../../../pic32mx/lib/speed/libpic32.a(memcpy.o)
                              build/default/production/_ext/1295770447/BerkeleyAPI.o (memcpy)
/sdd/opt/microchip/xc32/v1.40/bin/bin/../../lib/gcc/pic32mx/4.8.3/../../../../pic32mx/lib/speed/libpic32.a(memset.o)
                              build/default/production/_ext/1295770447/TCP.o (memset)
/sdd/opt/microchip/xc32/v1.40/bin/bin/../../lib/gcc/pic32mx/4.8.3/../../../../pic32mx/lib/speed/libpic32.a(strcmp.o)
                              build/default/production/_ext/1295770447/DynDNS.o (strcmp)
/sdd/opt/microchip/xc32/v1.40/bin/bin/../../lib/gcc/pic32mx/4.8.3/../../../../pic32mx/lib/speed/libpic32.a(strcpy.o)
                              build/default/production/_ext/1472/CustomHTTPApp.o (strcpy)
/sdd/opt/microchip/xc32/v1.40/bin/bin/../../lib/gcc/pic32mx/4.8.3/../../../../pic32mx/lib/speed/libpic32.a(strlen.o)
                              build/default/production/_ext/1472/BerkeleyTCPClientDemo.o (strlen)
/sdd/opt/microchip/xc32/v1.40/bin/bin/../../lib/gcc/pic32mx/4.8.3/../../../../pic32mx/lib/speed/libpic32.a(default-bootstrap-exception-handler.o)
                              /sdd/opt/microchip/xc32/v1.40/bin/bin/../../lib/gcc/pic32mx/4.8.3/../../../../pic32mx/lib/./proc/32MX795F512L/crt0_mips32r2.o (_bootstrap_exception_handler)
/sdd/opt/microchip/xc32/v1.40/bin/bin/../../lib/gcc/pic32mx/4.8.3/../../../../pic32mx/lib/speed/libpic32.a(default-on-reset.o)
                              /sdd/opt/microchip/xc32/v1.40/bin/bin/../../lib/gcc/pic32mx/4.8.3/../../../../pic32mx/lib/./proc/32MX795F512L/crt0_mips32r2.o (_on_reset)
/sdd/opt/microchip/xc32/v1.40/bin/bin/../../lib/gcc/pic32mx/4.8.3/../../../../pic32mx/lib/speed/libpic32.a(default-on-bootstrap.o)
                              /sdd/opt/microchip/xc32/v1.40/bin/bin/../../lib/gcc/pic32mx/4.8.3/../../../../pic32mx/lib/./proc/32MX795F512L/crt0_mips32r2.o (_on_bootstrap)
/sdd/opt/microchip/xc32/v1.40/bin/bin/../../lib/gcc/pic32mx/4.8.3/../../../../pic32mx/lib/speed/libpic32.a(default-nmi-handler.o)
                              /sdd/opt/microchip/xc32/v1.40/bin/bin/../../lib/gcc/pic32mx/4.8.3/../../../../pic32mx/lib/./proc/32MX795F512L/crt0_mips32r2.o (_nmi_handler)
/sdd/opt/microchip/xc32/v1.40/bin/bin/../../lib/gcc/pic32mx/4.8.3/../../../../pic32mx/lib/speed/libpic32.a(general-exception.o)
                              /sdd/opt/microchip/xc32/v1.40/bin/bin/../../lib/gcc/pic32mx/4.8.3/../../../../pic32mx/lib/./proc/32MX795F512L/crt0_mips32r2.o (_general_exception_context)
/sdd/opt/microchip/xc32/v1.40/bin/bin/../../lib/gcc/pic32mx/4.8.3/../../../../pic32mx/lib/speed/libpic32.a(vector0.o)
                              /sdd/opt/microchip/xc32/v1.40/bin/bin/../../lib/gcc/pic32mx/4.8.3/../../../../pic32mx/lib/./proc/32MX795F512L/default_isr_vectors.o (__vector_dispatch_0)
/sdd/opt/microchip/xc32/v1.40/bin/bin/../../lib/gcc/pic32mx/4.8.3/../../../../pic32mx/lib/speed/libpic32.a(vector1.o)
                              /sdd/opt/microchip/xc32/v1.40/bin/bin/../../lib/gcc/pic32mx/4.8.3/../../../../pic32mx/lib/./proc/32MX795F512L/default_isr_vectors.o (__vector_dispatch_1)
/sdd/opt/microchip/xc32/v1.40/bin/bin/../../lib/gcc/pic32mx/4.8.3/../../../../pic32mx/lib/speed/libpic32.a(vector2.o)
                              /sdd/opt/microchip/xc32/v1.40/bin/bin/../../lib/gcc/pic32mx/4.8.3/../../../../pic32mx/lib/./proc/32MX795F512L/default_isr_vectors.o (__vector_dispatch_2)
/sdd/opt/microchip/xc32/v1.40/bin/bin/../../lib/gcc/pic32mx/4.8.3/../../../../pic32mx/lib/speed/libpic32.a(vector3.o)
                              /sdd/opt/microchip/xc32/v1.40/bin/bin/../../lib/gcc/pic32mx/4.8.3/../../../../pic32mx/lib/./proc/32MX795F512L/default_isr_vectors.o (__vector_dispatch_3)
/sdd/opt/microchip/xc32/v1.40/bin/bin/../../lib/gcc/pic32mx/4.8.3/../../../../pic32mx/lib/speed/libpic32.a(vector5.o)
                              /sdd/opt/microchip/xc32/v1.40/bin/bin/../../lib/gcc/pic32mx/4.8.3/../../../../pic32mx/lib/./proc/32MX795F512L/default_isr_vectors.o (__vector_dispatch_5)
/sdd/opt/microchip/xc32/v1.40/bin/bin/../../lib/gcc/pic32mx/4.8.3/../../../../pic32mx/lib/speed/libpic32.a(vector6.o)
                              /sdd/opt/microchip/xc32/v1.40/bin/bin/../../lib/gcc/pic32mx/4.8.3/../../../../pic32mx/lib/./proc/32MX795F512L/default_isr_vectors.o (__vector_dispatch_6)
/sdd/opt/microchip/xc32/v1.40/bin/bin/../../lib/gcc/pic32mx/4.8.3/../../../../pic32mx/lib/speed/libpic32.a(vector7.o)
                              /sdd/opt/microchip/xc32/v1.40/bin/bin/../../lib/gcc/pic32mx/4.8.3/../../../../pic32mx/lib/./proc/32MX795F512L/default_isr_vectors.o (__vector_dispatch_7)
/sdd/opt/microchip/xc32/v1.40/bin/bin/../../lib/gcc/pic32mx/4.8.3/../../../../pic32mx/lib/speed/libpic32.a(vector8.o)
                              /sdd/opt/microchip/xc32/v1.40/bin/bin/../../lib/gcc/pic32mx/4.8.3/../../../../pic32mx/lib/./proc/32MX795F512L/default_isr_vectors.o (__vector_dispatch_8)
/sdd/opt/microchip/xc32/v1.40/bin/bin/../../lib/gcc/pic32mx/4.8.3/../../../../pic32mx/lib/speed/libpic32.a(vector9.o)
                              /sdd/opt/microchip/xc32/v1.40/bin/bin/../../lib/gcc/pic32mx/4.8.3/../../../../pic32mx/lib/./proc/32MX795F512L/default_isr_vectors.o (__vector_dispatch_9)
/sdd/opt/microchip/xc32/v1.40/bin/bin/../../lib/gcc/pic32mx/4.8.3/../../../../pic32mx/lib/speed/libpic32.a(vector10.o)
                              /sdd/opt/microchip/xc32/v1.40/bin/bin/../../lib/gcc/pic32mx/4.8.3/../../../../pic32mx/lib/./proc/32MX795F512L/default_isr_vectors.o (__vector_dispatch_10)
/sdd/opt/microchip/xc32/v1.40/bin/bin/../../lib/gcc/pic32mx/4.8.3/../../../../pic32mx/lib/speed/libpic32.a(vector11.o)
                              /sdd/opt/microchip/xc32/v1.40/bin/bin/../../lib/gcc/pic32mx/4.8.3/../../../../pic32mx/lib/./proc/32MX795F512L/default_isr_vectors.o (__vector_dispatch_11)
/sdd/opt/microchip/xc32/v1.40/bin/bin/../../lib/gcc/pic32mx/4.8.3/../../../../pic32mx/lib/speed/libpic32.a(vector12.o)
                              /sdd/opt/microchip/xc32/v1.40/bin/bin/../../lib/gcc/pic32mx/4.8.3/../../../../pic32mx/lib/./proc/32MX795F512L/default_isr_vectors.o (__vector_dispatch_12)
/sdd/opt/microchip/xc32/v1.40/bin/bin/../../lib/gcc/pic32mx/4.8.3/../../../../pic32mx/lib/speed/libpic32.a(vector13.o)
                              /sdd/opt/microchip/xc32/v1.40/bin/bin/../../lib/gcc/pic32mx/4.8.3/../../../../pic32mx/lib/./proc/32MX795F512L/default_isr_vectors.o (__vector_dispatch_13)
/sdd/opt/microchip/xc32/v1.40/bin/bin/../../lib/gcc/pic32mx/4.8.3/../../../../pic32mx/lib/speed/libpic32.a(vector14.o)
                              /sdd/opt/microchip/xc32/v1.40/bin/bin/../../lib/gcc/pic32mx/4.8.3/../../../../pic32mx/lib/./proc/32MX795F512L/default_isr_vectors.o (__vector_dispatch_14)
/sdd/opt/microchip/xc32/v1.40/bin/bin/../../lib/gcc/pic32mx/4.8.3/../../../../pic32mx/lib/speed/libpic32.a(vector15.o)
                              /sdd/opt/microchip/xc32/v1.40/bin/bin/../../lib/gcc/pic32mx/4.8.3/../../../../pic32mx/lib/./proc/32MX795F512L/default_isr_vectors.o (__vector_dispatch_15)
/sdd/opt/microchip/xc32/v1.40/bin/bin/../../lib/gcc/pic32mx/4.8.3/../../../../pic32mx/lib/speed/libpic32.a(vector16.o)
                              /sdd/opt/microchip/xc32/v1.40/bin/bin/../../lib/gcc/pic32mx/4.8.3/../../../../pic32mx/lib/./proc/32MX795F512L/default_isr_vectors.o (__vector_dispatch_16)
/sdd/opt/microchip/xc32/v1.40/bin/bin/../../lib/gcc/pic32mx/4.8.3/../../../../pic32mx/lib/speed/libpic32.a(vector17.o)
                              /sdd/opt/microchip/xc32/v1.40/bin/bin/../../lib/gcc/pic32mx/4.8.3/../../../../pic32mx/lib/./proc/32MX795F512L/default_isr_vectors.o (__vector_dispatch_17)
/sdd/opt/microchip/xc32/v1.40/bin/bin/../../lib/gcc/pic32mx/4.8.3/../../../../pic32mx/lib/speed/libpic32.a(vector18.o)
                              /sdd/opt/microchip/xc32/v1.40/bin/bin/../../lib/gcc/pic32mx/4.8.3/../../../../pic32mx/lib/./proc/32MX795F512L/default_isr_vectors.o (__vector_dispatch_18)
/sdd/opt/microchip/xc32/v1.40/bin/bin/../../lib/gcc/pic32mx/4.8.3/../../../../pic32mx/lib/speed/libpic32.a(vector19.o)
                              /sdd/opt/microchip/xc32/v1.40/bin/bin/../../lib/gcc/pic32mx/4.8.3/../../../../pic32mx/lib/./proc/32MX795F512L/default_isr_vectors.o (__vector_dispatch_19)
/sdd/opt/microchip/xc32/v1.40/bin/bin/../../lib/gcc/pic32mx/4.8.3/../../../../pic32mx/lib/speed/libpic32.a(vector20.o)
                              /sdd/opt/microchip/xc32/v1.40/bin/bin/../../lib/gcc/pic32mx/4.8.3/../../../../pic32mx/lib/./proc/32MX795F512L/default_isr_vectors.o (__vector_dispatch_20)
/sdd/opt/microchip/xc32/v1.40/bin/bin/../../lib/gcc/pic32mx/4.8.3/../../../../pic32mx/lib/speed/libpic32.a(vector21.o)
                              /sdd/opt/microchip/xc32/v1.40/bin/bin/../../lib/gcc/pic32mx/4.8.3/../../../../pic32mx/lib/./proc/32MX795F512L/default_isr_vectors.o (__vector_dispatch_21)
/sdd/opt/microchip/xc32/v1.40/bin/bin/../../lib/gcc/pic32mx/4.8.3/../../../../pic32mx/lib/speed/libpic32.a(vector22.o)
                              /sdd/opt/microchip/xc32/v1.40/bin/bin/../../lib/gcc/pic32mx/4.8.3/../../../../pic32mx/lib/./proc/32MX795F512L/default_isr_vectors.o (__vector_dispatch_22)
/sdd/opt/microchip/xc32/v1.40/bin/bin/../../lib/gcc/pic32mx/4.8.3/../../../../pic32mx/lib/speed/libpic32.a(vector23.o)
                              /sdd/opt/microchip/xc32/v1.40/bin/bin/../../lib/gcc/pic32mx/4.8.3/../../../../pic32mx/lib/./proc/32MX795F512L/default_isr_vectors.o (__vector_dispatch_23)
/sdd/opt/microchip/xc32/v1.40/bin/bin/../../lib/gcc/pic32mx/4.8.3/../../../../pic32mx/lib/speed/libpic32.a(vector25.o)
                              /sdd/opt/microchip/xc32/v1.40/bin/bin/../../lib/gcc/pic32mx/4.8.3/../../../../pic32mx/lib/./proc/32MX795F512L/default_isr_vectors.o (__vector_dispatch_25)
/sdd/opt/microchip/xc32/v1.40/bin/bin/../../lib/gcc/pic32mx/4.8.3/../../../../pic32mx/lib/speed/libpic32.a(vector26.o)
                              /sdd/opt/microchip/xc32/v1.40/bin/bin/../../lib/gcc/pic32mx/4.8.3/../../../../pic32mx/lib/./proc/32MX795F512L/default_isr_vectors.o (__vector_dispatch_26)
/sdd/opt/microchip/xc32/v1.40/bin/bin/../../lib/gcc/pic32mx/4.8.3/../../../../pic32mx/lib/speed/libpic32.a(vector27.o)
                              /sdd/opt/microchip/xc32/v1.40/bin/bin/../../lib/gcc/pic32mx/4.8.3/../../../../pic32mx/lib/./proc/32MX795F512L/default_isr_vectors.o (__vector_dispatch_27)
/sdd/opt/microchip/xc32/v1.40/bin/bin/../../lib/gcc/pic32mx/4.8.3/../../../../pic32mx/lib/speed/libpic32.a(vector28.o)
                              /sdd/opt/microchip/xc32/v1.40/bin/bin/../../lib/gcc/pic32mx/4.8.3/../../../../pic32mx/lib/./proc/32MX795F512L/default_isr_vectors.o (__vector_dispatch_28)
/sdd/opt/microchip/xc32/v1.40/bin/bin/../../lib/gcc/pic32mx/4.8.3/../../../../pic32mx/lib/speed/libpic32.a(vector29.o)
                              /sdd/opt/microchip/xc32/v1.40/bin/bin/../../lib/gcc/pic32mx/4.8.3/../../../../pic32mx/lib/./proc/32MX795F512L/default_isr_vectors.o (__vector_dispatch_29)
/sdd/opt/microchip/xc32/v1.40/bin/bin/../../lib/gcc/pic32mx/4.8.3/../../../../pic32mx/lib/speed/libpic32.a(vector30.o)
                              /sdd/opt/microchip/xc32/v1.40/bin/bin/../../lib/gcc/pic32mx/4.8.3/../../../../pic32mx/lib/./proc/32MX795F512L/default_isr_vectors.o (__vector_dispatch_30)
/sdd/opt/microchip/xc32/v1.40/bin/bin/../../lib/gcc/pic32mx/4.8.3/../../../../pic32mx/lib/speed/libpic32.a(vector31.o)
                              /sdd/opt/microchip/xc32/v1.40/bin/bin/../../lib/gcc/pic32mx/4.8.3/../../../../pic32mx/lib/./proc/32MX795F512L/default_isr_vectors.o (__vector_dispatch_31)
/sdd/opt/microchip/xc32/v1.40/bin/bin/../../lib/gcc/pic32mx/4.8.3/../../../../pic32mx/lib/speed/libpic32.a(vector33.o)
                              /sdd/opt/microchip/xc32/v1.40/bin/bin/../../lib/gcc/pic32mx/4.8.3/../../../../pic32mx/lib/./proc/32MX795F512L/default_isr_vectors.o (__vector_dispatch_33)
/sdd/opt/microchip/xc32/v1.40/bin/bin/../../lib/gcc/pic32mx/4.8.3/../../../../pic32mx/lib/speed/libpic32.a(vector34.o)
                              /sdd/opt/microchip/xc32/v1.40/bin/bin/../../lib/gcc/pic32mx/4.8.3/../../../../pic32mx/lib/./proc/32MX795F512L/default_isr_vectors.o (__vector_dispatch_34)
/sdd/opt/microchip/xc32/v1.40/bin/bin/../../lib/gcc/pic32mx/4.8.3/../../../../pic32mx/lib/speed/libpic32.a(vector35.o)
                              /sdd/opt/microchip/xc32/v1.40/bin/bin/../../lib/gcc/pic32mx/4.8.3/../../../../pic32mx/lib/./proc/32MX795F512L/default_isr_vectors.o (__vector_dispatch_35)
/sdd/opt/microchip/xc32/v1.40/bin/bin/../../lib/gcc/pic32mx/4.8.3/../../../../pic32mx/lib/speed/libpic32.a(vector36.o)
                              /sdd/opt/microchip/xc32/v1.40/bin/bin/../../lib/gcc/pic32mx/4.8.3/../../../../pic32mx/lib/./proc/32MX795F512L/default_isr_vectors.o (__vector_dispatch_36)
/sdd/opt/microchip/xc32/v1.40/bin/bin/../../lib/gcc/pic32mx/4.8.3/../../../../pic32mx/lib/speed/libpic32.a(vector37.o)
                              /sdd/opt/microchip/xc32/v1.40/bin/bin/../../lib/gcc/pic32mx/4.8.3/../../../../pic32mx/lib/./proc/32MX795F512L/default_isr_vectors.o (__vector_dispatch_37)
/sdd/opt/microchip/xc32/v1.40/bin/bin/../../lib/gcc/pic32mx/4.8.3/../../../../pic32mx/lib/speed/libpic32.a(vector38.o)
                              /sdd/opt/microchip/xc32/v1.40/bin/bin/../../lib/gcc/pic32mx/4.8.3/../../../../pic32mx/lib/./proc/32MX795F512L/default_isr_vectors.o (__vector_dispatch_38)
/sdd/opt/microchip/xc32/v1.40/bin/bin/../../lib/gcc/pic32mx/4.8.3/../../../../pic32mx/lib/speed/libpic32.a(vector39.o)
                              /sdd/opt/microchip/xc32/v1.40/bin/bin/../../lib/gcc/pic32mx/4.8.3/../../../../pic32mx/lib/./proc/32MX795F512L/default_isr_vectors.o (__vector_dispatch_39)
/sdd/opt/microchip/xc32/v1.40/bin/bin/../../lib/gcc/pic32mx/4.8.3/../../../../pic32mx/lib/speed/libpic32.a(vector40.o)
                              /sdd/opt/microchip/xc32/v1.40/bin/bin/../../lib/gcc/pic32mx/4.8.3/../../../../pic32mx/lib/./proc/32MX795F512L/default_isr_vectors.o (__vector_dispatch_40)
/sdd/opt/microchip/xc32/v1.40/bin/bin/../../lib/gcc/pic32mx/4.8.3/../../../../pic32mx/lib/speed/libpic32.a(vector41.o)
                              /sdd/opt/microchip/xc32/v1.40/bin/bin/../../lib/gcc/pic32mx/4.8.3/../../../../pic32mx/lib/./proc/32MX795F512L/default_isr_vectors.o (__vector_dispatch_41)
/sdd/opt/microchip/xc32/v1.40/bin/bin/../../lib/gcc/pic32mx/4.8.3/../../../../pic32mx/lib/speed/libpic32.a(vector42.o)
                              /sdd/opt/microchip/xc32/v1.40/bin/bin/../../lib/gcc/pic32mx/4.8.3/../../../../pic32mx/lib/./proc/32MX795F512L/default_isr_vectors.o (__vector_dispatch_42)
/sdd/opt/microchip/xc32/v1.40/bin/bin/../../lib/gcc/pic32mx/4.8.3/../../../../pic32mx/lib/speed/libpic32.a(vector43.o)
                              /sdd/opt/microchip/xc32/v1.40/bin/bin/../../lib/gcc/pic32mx/4.8.3/../../../../pic32mx/lib/./proc/32MX795F512L/default_isr_vectors.o (__vector_dispatch_43)
/sdd/opt/microchip/xc32/v1.40/bin/bin/../../lib/gcc/pic32mx/4.8.3/../../../../pic32mx/lib/speed/libpic32.a(vector44.o)
                              /sdd/opt/microchip/xc32/v1.40/bin/bin/../../lib/gcc/pic32mx/4.8.3/../../../../pic32mx/lib/./proc/32MX795F512L/default_isr_vectors.o (__vector_dispatch_44)
/sdd/opt/microchip/xc32/v1.40/bin/bin/../../lib/gcc/pic32mx/4.8.3/../../../../pic32mx/lib/speed/libpic32.a(vector45.o)
                              /sdd/opt/microchip/xc32/v1.40/bin/bin/../../lib/gcc/pic32mx/4.8.3/../../../../pic32mx/lib/./proc/32MX795F512L/default_isr_vectors.o (__vector_dispatch_45)
/sdd/opt/microchip/xc32/v1.40/bin/bin/../../lib/gcc/pic32mx/4.8.3/../../../../pic32mx/lib/speed/libpic32.a(vector46.o)
                              /sdd/opt/microchip/xc32/v1.40/bin/bin/../../lib/gcc/pic32mx/4.8.3/../../../../pic32mx/lib/./proc/32MX795F512L/default_isr_vectors.o (__vector_dispatch_46)
/sdd/opt/microchip/xc32/v1.40/bin/bin/../../lib/gcc/pic32mx/4.8.3/../../../../pic32mx/lib/speed/libpic32.a(vector47.o)
                              /sdd/opt/microchip/xc32/v1.40/bin/bin/../../lib/gcc/pic32mx/4.8.3/../../../../pic32mx/lib/./proc/32MX795F512L/default_isr_vectors.o (__vector_dispatch_47)
/sdd/opt/microchip/xc32/v1.40/bin/bin/../../lib/gcc/pic32mx/4.8.3/../../../../pic32mx/lib/speed/libpic32.a(vector48.o)
                              /sdd/opt/microchip/xc32/v1.40/bin/bin/../../lib/gcc/pic32mx/4.8.3/../../../../pic32mx/lib/./proc/32MX795F512L/default_isr_vectors.o (__vector_dispatch_48)
/sdd/opt/microchip/xc32/v1.40/bin/bin/../../lib/gcc/pic32mx/4.8.3/../../../../pic32mx/lib/speed/libpic32.a(vector49.o)
                              /sdd/opt/microchip/xc32/v1.40/bin/bin/../../lib/gcc/pic32mx/4.8.3/../../../../pic32mx/lib/./proc/32MX795F512L/default_isr_vectors.o (__vector_dispatch_49)
/sdd/opt/microchip/xc32/v1.40/bin/bin/../../lib/gcc/pic32mx/4.8.3/../../../../pic32mx/lib/speed/libpic32.a(vector50.o)
                              /sdd/opt/microchip/xc32/v1.40/bin/bin/../../lib/gcc/pic32mx/4.8.3/../../../../pic32mx/lib/./proc/32MX795F512L/default_isr_vectors.o (__vector_dispatch_50)
/sdd/opt/microchip/xc32/v1.40/bin/bin/../../lib/gcc/pic32mx/4.8.3/../../../../pic32mx/lib/speed/libpic32.a(vector51.o)
                              /sdd/opt/microchip/xc32/v1.40/bin/bin/../../lib/gcc/pic32mx/4.8.3/../../../../pic32mx/lib/./proc/32MX795F512L/default_isr_vectors.o (__vector_dispatch_51)
/sdd/opt/microchip/xc32/v1.40/bin/bin/../../lib/gcc/pic32mx/4.8.3/../../../../pic32mx/lib/speed/libpic32.a(defaultinterrupt.o)
                              /sdd/opt/microchip/xc32/v1.40/bin/bin/../../lib/gcc/pic32mx/4.8.3/../../../../pic32mx/lib/speed/libpic32.a(vector0.o) (_DefaultInterrupt)
/sdd/opt/microchip/xc32/v1.40/bin/bin/../../lib/gcc/pic32mx/4.8.3/../../../../pic32mx/lib/speed/libm.a(log32.o)
                              build/default/production/_ext/1472/CustomHTTPApp.o (log10)
/sdd/opt/microchip/xc32/v1.40/bin/bin/../../lib/gcc/pic32mx/4.8.3/../../../../pic32mx/lib/speed/libm.a(dp32div.o)
                              build/default/production/_ext/1472/CustomHTTPApp.o (dpdiv)
/sdd/opt/microchip/xc32/v1.40/bin/bin/../../lib/gcc/pic32mx/4.8.3/../../../../pic32mx/lib/speed/libm.a(dp32mul.o)
                              build/default/production/_ext/1472/CustomHTTPApp.o (dpmul)
/sdd/opt/microchip/xc32/v1.40/bin/bin/../../lib/gcc/pic32mx/4.8.3/../../../../pic32mx/lib/speed/libm.a(dp32subadd.o)
                              build/default/production/_ext/1472/CustomHTTPApp.o (dpsub)
/sdd/opt/microchip/xc32/v1.40/bin/bin/../../lib/gcc/pic32mx/4.8.3/../../../../pic32mx/lib/speed/libm.a(dptofp.o)
                              build/default/production/_ext/1472/mbmc.o (dptofp)
/sdd/opt/microchip/xc32/v1.40/bin/bin/../../lib/gcc/pic32mx/4.8.3/../../../../pic32mx/lib/speed/libm.a(dptoli.o)
                              build/default/production/_ext/1472/CustomHTTPApp.o (dptoli)
/sdd/opt/microchip/xc32/v1.40/bin/bin/../../lib/gcc/pic32mx/4.8.3/../../../../pic32mx/lib/speed/libm.a(exadd.o)
                              /sdd/opt/microchip/xc32/v1.40/bin/bin/../../lib/gcc/pic32mx/4.8.3/../../../../pic32mx/lib/speed/libm.a(log32.o) (exadd)
/sdd/opt/microchip/xc32/v1.40/bin/bin/../../lib/gcc/pic32mx/4.8.3/../../../../pic32mx/lib/speed/libm.a(exdiv.o)
                              /sdd/opt/microchip/xc32/v1.40/bin/bin/../../lib/gcc/pic32mx/4.8.3/../../../../pic32mx/lib/speed/libm.a(log32.o) (exdiv)
/sdd/opt/microchip/xc32/v1.40/bin/bin/../../lib/gcc/pic32mx/4.8.3/../../../../pic32mx/lib/speed/libm.a(exmul.o)
                              /sdd/opt/microchip/xc32/v1.40/bin/bin/../../lib/gcc/pic32mx/4.8.3/../../../../pic32mx/lib/speed/libm.a(log32.o) (exmul)
/sdd/opt/microchip/xc32/v1.40/bin/bin/../../lib/gcc/pic32mx/4.8.3/../../../../pic32mx/lib/speed/libm.a(fp32div.o)
                              build/default/production/_ext/1472/CustomHTTPApp.o (fpdiv)
/sdd/opt/microchip/xc32/v1.40/bin/bin/../../lib/gcc/pic32mx/4.8.3/../../../../pic32mx/lib/speed/libm.a(fp32mul.o)
                              build/default/production/_ext/1472/mbmc.o (fpmul)
/sdd/opt/microchip/xc32/v1.40/bin/bin/../../lib/gcc/pic32mx/4.8.3/../../../../pic32mx/lib/speed/libm.a(fp32subadd.o)
                              /sdd/opt/microchip/xc32/v1.40/bin/bin/../../lib/gcc/pic32mx/4.8.3/speed/libgcc.a(floatunsisf.o) (fpadd)
/sdd/opt/microchip/xc32/v1.40/bin/bin/../../lib/gcc/pic32mx/4.8.3/../../../../pic32mx/lib/speed/libm.a(fpcmp.o)
                              build/default/production/_ext/1472/mbmc.o (fpcmp)
/sdd/opt/microchip/xc32/v1.40/bin/bin/../../lib/gcc/pic32mx/4.8.3/../../../../pic32mx/lib/speed/libm.a(fptodp.o)
                              build/default/production/_ext/1472/CustomHTTPApp.o (fptodp)
/sdd/opt/microchip/xc32/v1.40/bin/bin/../../lib/gcc/pic32mx/4.8.3/../../../../pic32mx/lib/speed/libm.a(litodp.o)
                              build/default/production/_ext/1472/CustomHTTPApp.o (litodp)
/sdd/opt/microchip/xc32/v1.40/bin/bin/../../lib/gcc/pic32mx/4.8.3/../../../../pic32mx/lib/speed/libm.a(sigmax.o)
                              /sdd/opt/microchip/xc32/v1.40/bin/bin/../../lib/gcc/pic32mx/4.8.3/../../../../pic32mx/lib/speed/libm.a(log32.o) (sigmax)
/sdd/opt/microchip/xc32/v1.40/bin/bin/../../lib/gcc/pic32mx/4.8.3/../../../../pic32mx/lib/speed/libm.a(sitofp.o)
                              build/default/production/_ext/1472/CustomHTTPApp.o (sitofp)
/sdd/opt/microchip/xc32/v1.40/bin/bin/../../lib/gcc/pic32mx/4.8.3/../../../../pic32mx/lib/speed/liblega-c.a(strcat.o)
                              build/default/production/_ext/1472/CustomHTTPApp.o (strcat)
/sdd/opt/microchip/xc32/v1.40/bin/bin/../../lib/gcc/pic32mx/4.8.3/../../../../pic32mx/lib/speed/liblega-c.a(strncat.o)
                              build/default/production/_ext/1472/GenericTCPServer.o (strncat)
/sdd/opt/microchip/xc32/v1.40/bin/bin/../../lib/gcc/pic32mx/4.8.3/../../../../pic32mx/lib/speed/liblega-c.a(strchr.o)
                              build/default/production/_ext/1295770447/SMTP.o (strchr)
/sdd/opt/microchip/xc32/v1.40/bin/bin/../../lib/gcc/pic32mx/4.8.3/../../../../pic32mx/lib/speed/liblega-c.a(strstr.o)
                              build/default/production/_ext/1295770447/SMTP.o (strstr)
/sdd/opt/microchip/xc32/v1.40/bin/bin/../../lib/gcc/pic32mx/4.8.3/../../../../pic32mx/lib/speed/liblega-c.a(malloc_calloc.o)
                              build/default/production/_ext/1295770447/ETHPIC32IntMac.o (calloc)
/sdd/opt/microchip/xc32/v1.40/bin/bin/../../lib/gcc/pic32mx/4.8.3/../../../../pic32mx/lib/speed/liblega-c.a(strtol.o)
                              build/default/production/_ext/1295770447/HTTP2.o (strtol)
/sdd/opt/microchip/xc32/v1.40/bin/bin/../../lib/gcc/pic32mx/4.8.3/../../../../pic32mx/lib/speed/liblega-c.a(sprintf.o)
                              build/default/production/_ext/1295770447/Telnet.o (sprintf)
/sdd/opt/microchip/xc32/v1.40/bin/bin/../../lib/gcc/pic32mx/4.8.3/../../../../pic32mx/lib/speed/liblega-c.a(sscanf.o)
                              build/default/production/_ext/1472/GenericTCPServer.o (sscanf)
/sdd/opt/microchip/xc32/v1.40/bin/bin/../../lib/gcc/pic32mx/4.8.3/../../../../pic32mx/lib/speed/liblega-c.a(vsscanf.o)
                              /sdd/opt/microchip/xc32/v1.40/bin/bin/../../lib/gcc/pic32mx/4.8.3/../../../../pic32mx/lib/speed/liblega-c.a(sscanf.o) (vsscanf)
/sdd/opt/microchip/xc32/v1.40/bin/bin/../../lib/gcc/pic32mx/4.8.3/../../../../pic32mx/lib/speed/liblega-c.a(__vsnprintf.o)
                              /sdd/opt/microchip/xc32/v1.40/bin/bin/../../lib/gcc/pic32mx/4.8.3/../../../../pic32mx/lib/speed/liblega-c.a(sprintf.o) (__vsnprintf)
/sdd/opt/microchip/xc32/v1.40/bin/bin/../../lib/gcc/pic32mx/4.8.3/../../../../pic32mx/lib/speed/liblega-c.a(gmtime.o)
                              build/default/production/_ext/1472/CustomHTTPApp.o (gmtime)
/sdd/opt/microchip/xc32/v1.40/bin/bin/../../lib/gcc/pic32mx/4.8.3/../../../../pic32mx/lib/speed/liblega-c.a(offtime.o)
                              /sdd/opt/microchip/xc32/v1.40/bin/bin/../../lib/gcc/pic32mx/4.8.3/../../../../pic32mx/lib/speed/liblega-c.a(gmtime.o) (offtime_r)
/sdd/opt/microchip/xc32/v1.40/bin/bin/../../lib/gcc/pic32mx/4.8.3/../../../../pic32mx/lib/speed/liblega-c.a(asctime.o)
                              build/default/production/_ext/1472/CustomHTTPApp.o (asctime)
/sdd/opt/microchip/xc32/v1.40/bin/bin/../../lib/gcc/pic32mx/4.8.3/../../../../pic32mx/lib/speed/liblega-c.a(stubs.o)
                              /sdd/opt/microchip/xc32/v1.40/bin/bin/../../lib/gcc/pic32mx/4.8.3/../../../../pic32mx/lib/speed/liblega-c.a(gmtime.o) (_libc_private_storage)
/sdd/opt/microchip/xc32/v1.40/bin/bin/../../lib/gcc/pic32mx/4.8.3/../../../../pic32mx/lib/speed/liblega-c.a(ctype.o)
                              /sdd/opt/microchip/xc32/v1.40/bin/bin/../../lib/gcc/pic32mx/4.8.3/../../../../pic32mx/lib/speed/liblega-c.a(strtol.o) (_ctype)
/sdd/opt/microchip/xc32/v1.40/bin/bin/../../lib/gcc/pic32mx/4.8.3/../../../../pic32mx/lib/speed/liblega-c.a(malloc.o)
                              /sdd/opt/microchip/xc32/v1.40/bin/bin/../../lib/gcc/pic32mx/4.8.3/../../../../pic32mx/lib/speed/liblega-c.a(malloc_calloc.o) (malloc_av_)
/sdd/opt/microchip/xc32/v1.40/bin/bin/../../lib/gcc/pic32mx/4.8.3/../../../../pic32mx/lib/speed/liblega-c.a(errno.o)
                              /sdd/opt/microchip/xc32/v1.40/bin/bin/../../lib/gcc/pic32mx/4.8.3/../../../../pic32mx/lib/speed/liblega-c.a(strtol.o) (errno)
/sdd/opt/microchip/xc32/v1.40/bin/bin/../../lib/gcc/pic32mx/4.8.3/../../../../pic32mx/lib/speed/liblega-c.a(_doprnt.o)
                              /sdd/opt/microchip/xc32/v1.40/bin/bin/../../lib/gcc/pic32mx/4.8.3/../../../../pic32mx/lib/speed/liblega-c.a(__vsnprintf.o) (vfprintf)
/sdd/opt/microchip/xc32/v1.40/bin/bin/../../lib/gcc/pic32mx/4.8.3/../../../../pic32mx/lib/speed/liblega-c.a(_doscan.o)
                              /sdd/opt/microchip/xc32/v1.40/bin/bin/../../lib/gcc/pic32mx/4.8.3/../../../../pic32mx/lib/speed/liblega-c.a(vsscanf.o) (vfscanf)
/sdd/opt/microchip/xc32/v1.40/bin/bin/../../lib/gcc/pic32mx/4.8.3/../../../../pic32mx/lib/speed/liblega-c.a(_iobdata.o)
                              /sdd/opt/microchip/xc32/v1.40/bin/bin/../../lib/gcc/pic32mx/4.8.3/../../../../pic32mx/lib/speed/liblega-c.a(_doprnt.o) (_libc_data)
/sdd/opt/microchip/xc32/v1.40/bin/bin/../../lib/gcc/pic32mx/4.8.3/../../../../pic32mx/lib/speed/liblega-c.a(_iobfuncs.o)
                              /sdd/opt/microchip/xc32/v1.40/bin/bin/../../lib/gcc/pic32mx/4.8.3/../../../../pic32mx/lib/speed/liblega-c.a(_iobdata.o) (_filbuf_simple)
/sdd/opt/microchip/xc32/v1.40/bin/bin/../../lib/gcc/pic32mx/4.8.3/../../../../pic32mx/lib/speed/liblega-c.a(_iobstring.o)
                              /sdd/opt/microchip/xc32/v1.40/bin/bin/../../lib/gcc/pic32mx/4.8.3/../../../../pic32mx/lib/speed/liblega-c.a(vsscanf.o) (_io_strfuncs)
/sdd/opt/microchip/xc32/v1.40/bin/bin/../../lib/gcc/pic32mx/4.8.3/../../../../pic32mx/lib/speed/liblega-c.a(fgetc.o)
                              /sdd/opt/microchip/xc32/v1.40/bin/bin/../../lib/gcc/pic32mx/4.8.3/../../../../pic32mx/lib/speed/liblega-c.a(_doscan.o) (fgetc)
/sdd/opt/microchip/xc32/v1.40/bin/bin/../../lib/gcc/pic32mx/4.8.3/../../../../pic32mx/lib/speed/liblega-c.a(fputc.o)
                              /sdd/opt/microchip/xc32/v1.40/bin/bin/../../lib/gcc/pic32mx/4.8.3/../../../../pic32mx/lib/speed/liblega-c.a(_doprnt.o) (fputc)
/sdd/opt/microchip/xc32/v1.40/bin/bin/../../lib/gcc/pic32mx/4.8.3/../../../../pic32mx/lib/speed/liblega-c.a(ungetc.o)
                              /sdd/opt/microchip/xc32/v1.40/bin/bin/../../lib/gcc/pic32mx/4.8.3/../../../../pic32mx/lib/speed/liblega-c.a(_doscan.o) (ungetc)
/sdd/opt/microchip/xc32/v1.40/bin/bin/../../lib/gcc/pic32mx/4.8.3/../../../../pic32mx/lib/speed/liblega-c.a(sbrk.o)
                              /sdd/opt/microchip/xc32/v1.40/bin/bin/../../lib/gcc/pic32mx/4.8.3/../../../../pic32mx/lib/speed/liblega-c.a(malloc.o) (getpagesize)
/sdd/opt/microchip/xc32/v1.40/bin/bin/../../lib/gcc/pic32mx/4.8.3/../../../../pic32mx/lib/speed/liblega-c.a(_mon_getc.o)
                              /sdd/opt/microchip/xc32/v1.40/bin/bin/../../lib/gcc/pic32mx/4.8.3/../../../../pic32mx/lib/speed/liblega-c.a(_iobfuncs.o) (_mon_getc)
/sdd/opt/microchip/xc32/v1.40/bin/bin/../../lib/gcc/pic32mx/4.8.3/../../../../pic32mx/lib/speed/liblega-c.a(_mon_write.o)
                              /sdd/opt/microchip/xc32/v1.40/bin/bin/../../lib/gcc/pic32mx/4.8.3/../../../../pic32mx/lib/speed/liblega-c.a(_iobfuncs.o) (_mon_write)
/sdd/opt/microchip/xc32/v1.40/bin/bin/../../lib/gcc/pic32mx/4.8.3/../../../../pic32mx/lib/speed/liblega-c.a(malloc_realloc.o)
                              /sdd/opt/microchip/xc32/v1.40/bin/bin/../../lib/gcc/pic32mx/4.8.3/../../../../pic32mx/lib/speed/liblega-c.a(_doscan.o) (realloc)
/sdd/opt/microchip/xc32/v1.40/bin/bin/../../lib/gcc/pic32mx/4.8.3/../../../../pic32mx/lib/speed/liblega-c.a(strtoul.o)
                              /sdd/opt/microchip/xc32/v1.40/bin/bin/../../lib/gcc/pic32mx/4.8.3/../../../../pic32mx/lib/speed/liblega-c.a(_doscan.o) (strtoul)
/sdd/opt/microchip/xc32/v1.40/bin/bin/../../lib/gcc/pic32mx/4.8.3/../../../../pic32mx/lib/speed/liblega-c.a(strtoll.o)
                              /sdd/opt/microchip/xc32/v1.40/bin/bin/../../lib/gcc/pic32mx/4.8.3/../../../../pic32mx/lib/speed/liblega-c.a(_doscan.o) (strtoll)
/sdd/opt/microchip/xc32/v1.40/bin/bin/../../lib/gcc/pic32mx/4.8.3/../../../../pic32mx/lib/speed/liblega-c.a(strtoull.o)
                              /sdd/opt/microchip/xc32/v1.40/bin/bin/../../lib/gcc/pic32mx/4.8.3/../../../../pic32mx/lib/speed/liblega-c.a(_doscan.o) (strtoull)
/sdd/opt/microchip/xc32/v1.40/bin/bin/../../lib/gcc/pic32mx/4.8.3/../../../../pic32mx/lib/speed/liblega-c.a(strtod.o)
                              /sdd/opt/microchip/xc32/v1.40/bin/bin/../../lib/gcc/pic32mx/4.8.3/../../../../pic32mx/lib/speed/liblega-c.a(_doscan.o) (strtod)
/sdd/opt/microchip/xc32/v1.40/bin/bin/../../lib/gcc/pic32mx/4.8.3/../../../../pic32mx/lib/speed/liblega-c.a(strtof.o)
                              /sdd/opt/microchip/xc32/v1.40/bin/bin/../../lib/gcc/pic32mx/4.8.3/../../../../pic32mx/lib/speed/liblega-c.a(_doscan.o) (strtof)
/sdd/opt/microchip/xc32/v1.40/bin/bin/../../lib/gcc/pic32mx/4.8.3/../../../../pic32mx/lib/speed/liblega-c.a(fullexit.o)
                              /sdd/opt/microchip/xc32/v1.40/bin/bin/../../lib/gcc/pic32mx/4.8.3/../../../../pic32mx/lib/speed/liblega-c.a(_doprnt.o) (__exfun_mx)
/sdd/opt/microchip/xc32/v1.40/bin/bin/../../lib/gcc/pic32mx/4.8.3/../../../../pic32mx/lib/speed/liblega-c.a(_ioinit.o)
                              /sdd/opt/microchip/xc32/v1.40/bin/bin/../../lib/gcc/pic32mx/4.8.3/../../../../pic32mx/lib/speed/liblega-c.a(ungetc.o) (_i_init)
/sdd/opt/microchip/xc32/v1.40/bin/bin/../../lib/gcc/pic32mx/4.8.3/../../../../pic32mx/lib/speed/liblega-c.a(_cleanup.o)
                              /sdd/opt/microchip/xc32/v1.40/bin/bin/../../lib/gcc/pic32mx/4.8.3/../../../../pic32mx/lib/speed/liblega-c.a(_ioinit.o) (_cleanup)
/sdd/opt/microchip/xc32/v1.40/bin/bin/../../lib/gcc/pic32mx/4.8.3/../../../../pic32mx/lib/speed/liblega-c.a(_exit.o)
                              /sdd/opt/microchip/xc32/v1.40/bin/bin/../../lib/gcc/pic32mx/4.8.3/../../../../pic32mx/lib/speed/liblega-c.a(fullexit.o) (_exit)
/sdd/opt/microchip/xc32/v1.40/bin/bin/../../lib/gcc/pic32mx/4.8.3/../../../../pic32mx/lib/speed/liblega-c.a(isatty.o)
                              /sdd/opt/microchip/xc32/v1.40/bin/bin/../../lib/gcc/pic32mx/4.8.3/../../../../pic32mx/lib/speed/liblega-c.a(_ioinit.o) (isatty)
/sdd/opt/microchip/xc32/v1.40/bin/bin/../../lib/gcc/pic32mx/4.8.3/../../../../pic32mx/lib/speed/liblega-c.a(_mon_putc.o)
                              /sdd/opt/microchip/xc32/v1.40/bin/bin/../../lib/gcc/pic32mx/4.8.3/../../../../pic32mx/lib/speed/liblega-c.a(_mon_write.o) (_mon_putc)
/sdd/opt/microchip/xc32/v1.40/bin/bin/../../lib/gcc/pic32mx/4.8.3/../../../../pic32mx/lib/speed/liblega-c.a(memmove.o)
                              /sdd/opt/microchip/xc32/v1.40/bin/bin/../../lib/gcc/pic32mx/4.8.3/../../../../pic32mx/lib/speed/liblega-c.a(malloc_realloc.o) (memmove)
/sdd/opt/microchip/xc32/v1.40/bin/bin/../../lib/gcc/pic32mx/4.8.3/../../../../pic32mx/lib/speed/liblega-c.a(_bufproc.o)
                              /sdd/opt/microchip/xc32/v1.40/bin/bin/../../lib/gcc/pic32mx/4.8.3/../../../../pic32mx/lib/speed/liblega-c.a(_ioinit.o) (_bufalloc)
/sdd/opt/microchip/xc32/v1.40/bin/bin/../../lib/gcc/pic32mx/4.8.3/../../../../pic32mx/lib/speed/libm.a(dpmodf.o)
                              /sdd/opt/microchip/xc32/v1.40/bin/bin/../../lib/gcc/pic32mx/4.8.3/../../../../pic32mx/lib/speed/liblega-c.a(_doprnt.o) (modf)
/sdd/opt/microchip/xc32/v1.40/bin/bin/../../lib/gcc/pic32mx/4.8.3/../../../../pic32mx/lib/speed/libm.a(dpcmp.o)
                              /sdd/opt/microchip/xc32/v1.40/bin/bin/../../lib/gcc/pic32mx/4.8.3/../../../../pic32mx/lib/speed/liblega-c.a(_doprnt.o) (dpcmp)
/sdd/opt/microchip/xc32/v1.40/bin/bin/../../lib/gcc/pic32mx/4.8.3/../../../../pic32mx/lib/speed/libm.a(__strtod.o)
                              /sdd/opt/microchip/xc32/v1.40/bin/bin/../../lib/gcc/pic32mx/4.8.3/../../../../pic32mx/lib/speed/liblega-c.a(strtod.o) (__strtod)
/sdd/opt/microchip/xc32/v1.40/bin/bin/../../lib/gcc/pic32mx/4.8.3/../../../../pic32mx/lib/speed/libm.a(__strtof.o)
                              /sdd/opt/microchip/xc32/v1.40/bin/bin/../../lib/gcc/pic32mx/4.8.3/../../../../pic32mx/lib/speed/liblega-c.a(strtof.o) (__strtof)
/sdd/opt/microchip/xc32/v1.40/bin/bin/../../lib/gcc/pic32mx/4.8.3/../../../../pic32mx/lib/speed/libm.a(negdf2.o)
                              /sdd/opt/microchip/xc32/v1.40/bin/bin/../../lib/gcc/pic32mx/4.8.3/../../../../pic32mx/lib/speed/libm.a(__strtod.o) (__negdf2)
/sdd/opt/microchip/xc32/v1.40/bin/bin/../../lib/gcc/pic32mx/4.8.3/../../../../pic32mx/lib/speed/libm.a(negsf2.o)
                              /sdd/opt/microchip/xc32/v1.40/bin/bin/../../lib/gcc/pic32mx/4.8.3/../../../../pic32mx/lib/speed/libm.a(__strtof.o) (__negsf2)
/sdd/opt/microchip/xc32/v1.40/bin/bin/../../lib/gcc/pic32mx/4.8.3/../../../../pic32mx/lib/speed/libe.a(_ldexp.o)
                              /sdd/opt/microchip/xc32/v1.40/bin/bin/../../lib/gcc/pic32mx/4.8.3/../../../../pic32mx/lib/speed/libm.a(__strtod.o) (__ldexp)
/sdd/opt/microchip/xc32/v1.40/bin/bin/../../lib/gcc/pic32mx/4.8.3/../../../../pic32mx/lib/speed/libe.a(_ldexpf.o)
                              /sdd/opt/microchip/xc32/v1.40/bin/bin/../../lib/gcc/pic32mx/4.8.3/../../../../pic32mx/lib/speed/libm.a(__strtof.o) (__ldexpf)
/sdd/opt/microchip/xc32/v1.40/bin/bin/../../lib/gcc/pic32mx/4.8.3/speed/libgcc.a(_lshrdi3.o)
                              /sdd/opt/microchip/xc32/v1.40/bin/bin/../../lib/gcc/pic32mx/4.8.3/../../../../pic32mx/lib/speed/libe.a(_ldexp.o) (__lshrdi3)
/sdd/opt/microchip/xc32/v1.40/bin/bin/../../lib/gcc/pic32mx/4.8.3/speed/libgcc.a(_ashldi3.o)
                              /sdd/opt/microchip/xc32/v1.40/bin/bin/../../lib/gcc/pic32mx/4.8.3/../../../../pic32mx/lib/speed/libe.a(_ldexp.o) (__ashldi3)
/sdd/opt/microchip/xc32/v1.40/bin/bin/../../lib/gcc/pic32mx/4.8.3/speed/libgcc.a(_divdi3.o)
                              /sdd/opt/microchip/xc32/v1.40/bin/bin/../../lib/gcc/pic32mx/4.8.3/../../../../pic32mx/lib/speed/liblega-c.a(strtoll.o) (__divdi3)
/sdd/opt/microchip/xc32/v1.40/bin/bin/../../lib/gcc/pic32mx/4.8.3/speed/libgcc.a(_umoddi3.o)
                              /sdd/opt/microchip/xc32/v1.40/bin/bin/../../lib/gcc/pic32mx/4.8.3/../../../../pic32mx/lib/speed/liblega-c.a(_doprnt.o) (__umoddi3)

Allocating common symbols
Common symbol       size              file

TOTEFF              0x4               build/default/production/_ext/1472/mbmc.o
AN0String           0x8               build/default/production/_ext/1472/MainDemo.o
curHTTPID           0x1               build/default/production/_ext/1295770447/HTTP2.o
SMTPClient          0x2c              build/default/production/_ext/1295770447/SMTP.o
mbmc_buffer         0x94              build/default/production/_ext/1472/mbmc.o
UDPRxCount          0x2               build/default/production/_ext/1295770447/UDP.o
curHTTP             0x128             build/default/production/_ext/1295770447/HTTP2.o
sdc0                0x78              build/default/production/_ext/1472/mbmc.o
_PhyAdd             0x4               build/default/production/_ext/1295770447/ETHPIC32ExtPhy.o
httpStubs           0x10              build/default/production/_ext/1295770447/HTTP2.o
DDNSClient          0x20              build/default/production/_ext/1295770447/DynDNS.o
UDPTxCount          0x2               build/default/production/_ext/1295770447/UDP.o
cbuf                0x80              build/default/production/_ext/1472/mbmc.o
chart               0x37d0            build/default/production/_ext/1472/mbmc.o
lastBlock           0x40              build/default/production/_ext/1295770447/Hashes.o
activeUDPSocket     0x1               build/default/production/_ext/1295770447/UDP.o
alarms              0x1               build/default/production/_ext/1472/mbmc.o
UDPSocketInfo       0x8c              build/default/production/_ext/1295770447/UDP.o
dd                  0x4               build/default/production/_ext/1472/mbmc.o
PVEFF               0x4               build/default/production/_ext/1472/mbmc.o
mbmctime            0x4               build/default/production/_ext/1472/mbmc.o
mbmcflag            0x28              build/default/production/_ext/1472/mbmc.o
mbmccmd             0x4               build/default/production/_ext/1472/mbmc.o
mbmc_crc            0x2               build/default/production/_ext/1472/mbmc.o
hoststat            0x1c              build/default/production/_ext/1472/mbmc.o
Head                0x1               build/default/production/_ext/1472/mbmc.o
remoteNode          0xa               build/default/production/_ext/1295770447/StackTsk.o
AppConfig           0x33              build/default/production/_ext/1472/MainDemo.o
remote_daq          0x30              build/default/production/_ext/1472/mbmc.o
cell                0xc8              build/default/production/_ext/1472/mbmc.o
CCEFF               0x4               build/default/production/_ext/1472/mbmc.o
ltime               0x4               build/default/production/_ext/1472/mbmc.o
hist                0x244             build/default/production/_ext/1472/mbmc.o
utc_time            0x4               build/default/production/_ext/1472/mbmc.o
Tail                0x1               build/default/production/_ext/1472/mbmc.o

Microchip PIC32 Memory-Usage Report

kseg0 Program-Memory Usage
section                    address  length [bytes]      (dec)  Description
-------                 ----------  -------------------------  -----------
.rodata                 0x9d000000        0x45fdc      286684  Read-only const 
.text                   0x9d045fdc        0x18810      100368  App's exec code 
.dinit                  0x9d05e7ec          0xc80        3200   
.text                   0x9d05f46c          0xbc8        3016  App's exec code 
.rodata                 0x9d060034            0x4           4  Read-only const 
.rodata                 0x9d060038          0xb80        2944  Read-only const 
.text                   0x9d060bb8         0x2e48       11848  App's exec code 
.rodata                 0x9d063a00          0x7d4        2004  Read-only const 
.text                   0x9d0641d4         0x18e4        6372  App's exec code 
.rodata                 0x9d065ab8          0x548        1352  Read-only const 
.text                   0x9d066000          0x4dc        1244  App's exec code 
.text.dp32mul           0x9d0664dc          0x4b8        1208   
.text                   0x9d066994         0x1a4c        6732  App's exec code 
.text.EthRxBuffersAppen 0x9d0683e0          0x434        1076   
.text.dp32subadd        0x9d068814          0x430        1072   
.text                   0x9d068c44          0xbf0        3056  App's exec code 
.text.__strtod          0x9d069834          0x3d0         976   
.text                   0x9d069c04          0xe24        3620  App's exec code 
.text.__strtof          0x9d06aa28          0x358         856   
.text                   0x9d06ad80          0x340         832  App's exec code 
.text.dp32mul           0x9d06b0c0          0x32c         812   
.text                   0x9d06b3ec          0x308         776  App's exec code 
.rodata                 0x9d06b6f4          0x300         768  Read-only const 
.text                   0x9d06b9f4          0xdb0        3504  App's exec code 
.text.EthTxSendPacket   0x9d06c7a4          0x278         632   
.text.fpsubadd          0x9d06ca1c          0x278         632   
.text.libm              0x9d06cc94          0x268         616   
.text._EthAckPacket     0x9d06cefc          0x250         592   
.text                   0x9d06d14c          0x234         564  App's exec code 
.text.fp32div           0x9d06d380          0x230         560   
.text                   0x9d06d5b0          0x638        1592  App's exec code 
.rodata                 0x9d06dbe8          0x1d8         472  Read-only const 
.text.fp32mul           0x9d06ddc0          0x1bc         444   
.text                   0x9d06df7c          0x518        1304  App's exec code 
.text.__ldexp           0x9d06e494          0x1a8         424   
.text._EthAppendBusyLis 0x9d06e63c          0x1a4         420   
.text                   0x9d06e7e0          0x33c         828  App's exec code 
.rodata                 0x9d06eb1c          0x178         376  Read-only const 
.text._EthRxAckBuffer   0x9d06ec94          0x174         372   
.text                   0x9d06ee08          0x174         372  App's exec code 
.text.EthDescriptorsPoo 0x9d06ef7c          0x170         368   
.text.EthRxGetPacket    0x9d06f0ec          0x170         368   
.text                   0x9d06f25c          0x2d0         720  App's exec code 
.text.EthDescriptorsAdd 0x9d06f52c          0x160         352   
.rodata                 0x9d06f68c          0x140         320  Read-only const 
.text.EthMIIMConfig     0x9d06f7cc          0x140         320   
.text                   0x9d06f90c          0x270         624  App's exec code 
.text.dpcmp             0x9d06fb7c          0x12c         300   
.text                   0x9d06fca8          0x120         288  App's exec code 
.text.libm              0x9d06fdc8          0x120         288   
.text.EthTxSendBuffer   0x9d06fee8          0x11c         284   
.text.libm              0x9d070004          0x10c         268   
.text                   0x9d070110          0x104         260  App's exec code 
.rodata                 0x9d070214          0x104         260  Read-only const 
.text.__ldexpf          0x9d070318          0x104         260   
.text.dptofp            0x9d07041c          0x100         256   
.text                   0x9d07051c          0x1e4         484  App's exec code 
.text.libm              0x9d070700           0xf0         240   
.text                   0x9d0707f0           0xe4         228  App's exec code 
.text.EthMACOpen        0x9d0708d4           0xe4         228   
.text                   0x9d0709b8           0xe0         224  App's exec code 
.text.general_exception 0x9d070a98           0xdc         220   
.text                   0x9d070b74           0xd4         212  App's exec code 
.text.libm              0x9d070c48           0xd0         208   
.text                   0x9d070d18          0x23c         572  App's exec code 
.text.EthInit           0x9d070f54           0xb4         180   
.text.fptodp            0x9d071008           0xac         172   
.text                   0x9d0710b4          0x298         664  App's exec code 
.text.fpcmp             0x9d07134c           0x9c         156   
.text                   0x9d0713e8           0x9c         156  App's exec code 
.rodata                 0x9d071484           0x98         152  Read-only const 
.text                   0x9d07151c           0x98         152  App's exec code 
.text.dptoli            0x9d0715b4           0x90         144   
.text.UARTEnable        0x9d071644           0x80         128   
.rodata                 0x9d0716c8           0x80         128  Read-only const 
.text.EthTxGetBufferSta 0x9d071748           0x7c         124   
.text.SoftReset         0x9d0717c4           0x7c         124   
.text.litodp            0x9d071840           0x78         120   
.text                   0x9d0718b8           0x74         116  App's exec code 
.text.EthRxFiltersPMSet 0x9d07192c           0x6c         108   
.rodata                 0x9d071998           0xd4         212  Read-only const 
.text                   0x9d071a6c           0xd0         208  App's exec code 
.text.sitofp            0x9d071b3c           0x60          96   
.text                   0x9d071b9c           0x60          96  App's exec code 
.rodata                 0x9d071bfc           0xbc         188  Read-only const 
.text.UARTSetDataRate   0x9d071cb8           0x5c          92   
.text.main_entry        0x9d071d14           0x54          84   
.rodata                 0x9d071d68           0xa4         164  Read-only const 
.text                   0x9d071e0c           0x98         152  App's exec code 
.text.EthMACSetAddress  0x9d071ea4           0x48          72   
.text._bootstrap_except 0x9d071eec           0x48          72   
.vector_default         0x9d071f34           0x48          72   
.rodata                 0x9d071f7c           0x48          72  Read-only const 
.text                   0x9d071fc4           0x44          68  App's exec code 
.text.EthMACGetAddress  0x9d072008           0x44          68   
.text.EthMIIMReadStart  0x9d07204c           0x40          64   
.text.INTSetVectorPrior 0x9d07208c           0x40          64   
.text.INTSetVectorSubPr 0x9d0720cc           0x40          64   
.text.PORTSetPinsDigita 0x9d07210c           0x40          64   
.text.PORTSetPinsDigita 0x9d07214c           0x40          64   
.text.UARTGetDataRate   0x9d07218c           0x40          64   
.text                   0x9d0721cc           0x80         128  App's exec code 
.text.EthRxGetBuffer    0x9d07224c           0x3c          60   
.text.INTEnable         0x9d072288           0x3c          60   
.text.UARTConfigure     0x9d0722c4           0x3c          60   
.text.UARTSetAddress    0x9d072300           0x3c          60   
.text                   0x9d07233c           0x3c          60  App's exec code 
.rodata                 0x9d072378           0x38          56  Read-only const 
.text._EthFindPacket    0x9d0723b0           0x38          56   
.text.EthMIIMWriteStart 0x9d0723e8           0x38          56   
.text.EthRxSetBufferSiz 0x9d072420           0x34          52   
.text.EthMIIMScanStart  0x9d072454           0x34          52   
.text.INTEnableSystemMu 0x9d072488           0x34          52   
.text.UARTWatchForAddre 0x9d0724bc           0x34          52   
.text.EthTxAcknowledgeB 0x9d0724f0           0x30          48   
.text.EthTxAckBuffer    0x9d072520           0x30          48   
.text.INTGetVectorPrior 0x9d072550           0x30          48   
.text.INTGetVectorSubPr 0x9d072580           0x30          48   
.rodata                 0x9d0725b0           0x30          48  Read-only const 
.text                   0x9d0725e0           0x30          48  App's exec code 
.text.INTClearFlag      0x9d072610           0x2c          44   
.text.INTSetFlag        0x9d07263c           0x2c          44   
.text.INTGetFlag        0x9d072668           0x2c          44   
.text.INTGetEnable      0x9d072694           0x2c          44   
.text                   0x9d0726c0           0x2c          44  App's exec code 
.text.EthMIIMReadResult 0x9d0726ec           0x28          40   
.text.UARTSetFifoMode   0x9d072714           0x28          40   
.text.UARTSetLineContro 0x9d07273c           0x28          40   
.text                   0x9d072764           0x4c          76  App's exec code 
.rodata                 0x9d0727b0           0x20          32  Read-only const 
.text.EthMIIMScanResult 0x9d0727d0           0x20          32   
.rodata                 0x9d0727f0           0x1c          28  Read-only const 
.text.EthRxAcknowledgeB 0x9d07280c           0x1c          28   
.text.EthRxAckBuffer    0x9d072828           0x1c          28   
.text.INTRestoreInterru 0x9d072844           0x1c          28   
.text                   0x9d072860           0x38          56  App's exec code 
.text.negdf2            0x9d072898           0x1c          28   
.text.EthRxFiltersHTSet 0x9d0728b4           0x18          24   
.text.CheKseg0CacheOff  0x9d0728cc           0x18          24   
.text.CheKseg0CacheOn   0x9d0728e4           0x18          24   
.rodata                 0x9d0728fc           0x18          24  Read-only const 
.text                   0x9d072914           0x18          24  App's exec code 
.rodata                 0x9d07292c           0x40          64  Read-only const 
.text.EthMACSetMaxFrame 0x9d07296c           0x14          20   
.text.EthRxFiltersPMClr 0x9d072980           0x14          20   
.rodata                 0x9d072994           0x28          40  Read-only const 
.text.negsf2            0x9d0729bc           0x14          20   
.rodata                 0x9d0729d0           0x30          48  Read-only const 
.text.EthRxFiltersSet   0x9d072a00           0x10          16   
.text.EthRxFiltersClr   0x9d072a10           0x10          16   
.text.EthRxFiltersWrite 0x9d072a20           0x10          16   
.rodata                 0x9d072a30           0x2c          44  Read-only const 
.text.ReadCoreTimer     0x9d072a5c            0x8           8   
.text.INTDisableInterru 0x9d072a64            0x8           8   
.text.INTEnableInterrup 0x9d072a6c            0x8           8   
.text._on_reset         0x9d072a74            0x8           8   
.text._on_bootstrap     0x9d072a7c            0x8           8   
.text                   0x9d072a84           0x18          24  App's exec code 
      Total kseg0_program_mem used  :     0x72a98      469656  89.6% of 0x80000

kseg0 Boot-Memory Usage
section                    address  length [bytes]      (dec)  Description
-------                 ----------  -------------------------  -----------
         Total kseg0_boot_mem used  :           0           0  <1% of 0x970

Exception-Memory Usage 
section                    address  length [bytes]      (dec)  Description
-------                 ----------  -------------------------  -----------
.app_excpt              0x9fc01180           0x10          16  General-Exception 
.vector_0               0x9fc01200            0x8           8  Interrupt Vector 0 
.vector_1               0x9fc01220            0x8           8  Interrupt Vector 1 
.vector_2               0x9fc01240            0x8           8  Interrupt Vector 2 
.vector_3               0x9fc01260            0x8           8  Interrupt Vector 3 
.vector_4               0x9fc01280            0x8           8  Interrupt Vector 4 
.vector_5               0x9fc012a0            0x8           8  Interrupt Vector 5 
.vector_6               0x9fc012c0            0x8           8  Interrupt Vector 6 
.vector_7               0x9fc012e0            0x8           8  Interrupt Vector 7 
.vector_8               0x9fc01300            0x8           8  Interrupt Vector 8 
.vector_9               0x9fc01320            0x8           8  Interrupt Vector 9 
.vector_10              0x9fc01340            0x8           8  Interrupt Vector 10 
.vector_11              0x9fc01360            0x8           8  Interrupt Vector 11 
.vector_12              0x9fc01380            0x8           8  Interrupt Vector 12 
.vector_13              0x9fc013a0            0x8           8  Interrupt Vector 13 
.vector_14              0x9fc013c0            0x8           8  Interrupt Vector 14 
.vector_15              0x9fc013e0            0x8           8  Interrupt Vector 15 
.vector_16              0x9fc01400            0x8           8  Interrupt Vector 16 
.vector_17              0x9fc01420            0x8           8  Interrupt Vector 17 
.vector_18              0x9fc01440            0x8           8  Interrupt Vector 18 
.vector_19              0x9fc01460            0x8           8  Interrupt Vector 19 
.vector_20              0x9fc01480            0x8           8  Interrupt Vector 20 
.vector_21              0x9fc014a0            0x8           8  Interrupt Vector 21 
.vector_22              0x9fc014c0            0x8           8  Interrupt Vector 22 
.vector_23              0x9fc014e0            0x8           8  Interrupt Vector 23 
.vector_24              0x9fc01500            0x8           8  Interrupt Vector 24 
.vector_25              0x9fc01520            0x8           8  Interrupt Vector 25 
.vector_26              0x9fc01540            0x8           8  Interrupt Vector 26 
.vector_27              0x9fc01560            0x8           8  Interrupt Vector 27 
.vector_28              0x9fc01580            0x8           8  Interrupt Vector 28 
.vector_29              0x9fc015a0            0x8           8  Interrupt Vector 29 
.vector_30              0x9fc015c0            0x8           8  Interrupt Vector 30 
.vector_31              0x9fc015e0            0x8           8  Interrupt Vector 31 
.vector_32              0x9fc01600            0x8           8  Interrupt Vector 32 
.vector_33              0x9fc01620            0x8           8  Interrupt Vector 33 
.vector_34              0x9fc01640            0x8           8  Interrupt Vector 34 
.vector_35              0x9fc01660            0x8           8  Interrupt Vector 35 
.vector_36              0x9fc01680            0x8           8  Interrupt Vector 36 
.vector_37              0x9fc016a0            0x8           8  Interrupt Vector 37 
.vector_38              0x9fc016c0            0x8           8  Interrupt Vector 38 
.vector_39              0x9fc016e0            0x8           8  Interrupt Vector 39 
.vector_40              0x9fc01700            0x8           8  Interrupt Vector 40 
.vector_41              0x9fc01720            0x8           8  Interrupt Vector 41 
.vector_42              0x9fc01740            0x8           8  Interrupt Vector 42 
.vector_43              0x9fc01760            0x8           8  Interrupt Vector 43 
.vector_44              0x9fc01780            0x8           8  Interrupt Vector 44 
.vector_45              0x9fc017a0            0x8           8  Interrupt Vector 45 
.vector_46              0x9fc017c0            0x8           8  Interrupt Vector 46 
.vector_47              0x9fc017e0            0x8           8  Interrupt Vector 47 
.vector_48              0x9fc01800            0x8           8  Interrupt Vector 48 
.vector_49              0x9fc01820            0x8           8  Interrupt Vector 49 
.vector_50              0x9fc01840            0x8           8  Interrupt Vector 50 
.vector_51              0x9fc01860            0x8           8  Interrupt Vector 51 
          Total exception_mem used  :       0x1b0         432  10.5% of 0x1000

kseg1 Boot-Memory Usage
section                    address  length [bytes]      (dec)  Description
-------                 ----------  -------------------------  -----------
.reset                  0xbfc00000          0x1f4         500  Reset handler 
.bev_excpt              0xbfc00380           0x10          16  BEV-Exception 
         Total kseg1_boot_mem used  :       0x204         516  44.2% of 0x490
        --------------------------------------------------------------------------
         Total Program Memory used  :     0x72e4c      470604  88.5% of 0x81e00
        --------------------------------------------------------------------------


kseg1 Data-Memory Usage
section                    address  length [bytes]      (dec)  Description
-------                 ----------  -------------------------  -----------
.sdata                  0xa0000000           0x38          56  Small init data 
.sbss                   0xa0000038          0x22c         556  Small uninit data 
.bss                    0xa0000264         0x3f6c       16236  Uninitialized data 
.bss                    0xa00041d0         0x8054       32852  Uninitialized data 
.data                   0xa000c224          0x410        1040  Initialized data 
.bss                    0xa000c634          0x1c0         448  Uninitialized data 
.data                   0xa000c7f4           0xe8         232  Initialized data 
.bss                    0xa000c8dc           0xe0         224  Uninitialized data 
.data                   0xa000c9bc           0xd4         212  Initialized data 
.bss                    0xa000ca90          0x18c         396  Uninitialized data 
.data                   0xa000cc1c           0xb8         184  Initialized data 
.bss                    0xa000ccd4           0x88         136  Uninitialized data 
.data                   0xa000cd5c           0x40          64  Initialized data 
.bss                    0xa000cd9c           0x34          52  Uninitialized data 
.data                   0xa000cdd0           0x34          52  Initialized data 
.bss                    0xa000ce04           0x64         100  Uninitialized data 
.data                   0xa000ce68           0x2c          44  Initialized data 
.bss                    0xa000ce94           0x2c          44  Uninitialized data 
.data                   0xa000cec0           0x2c          44  Initialized data 
.bss                    0xa000ceec           0x2c          44  Uninitialized data 
.data                   0xa000cf18           0x2c          44  Initialized data 
.bss                    0xa000cf44           0x64         100  Uninitialized data 
.data                   0xa000cfa8           0x40          64  Initialized data 
.bss                    0xa000cfe8           0x54          84  Uninitialized data 
.data                   0xa000d03c           0x10          16  Initialized data 
.bss                    0xa000d04c           0x48          72  Uninitialized data 
         Total kseg1_data_mem used  :      0xd094       53396  40.7% of 0x20000
        --------------------------------------------------------------------------
            Total Data Memory used  :      0xd094       53396  40.7% of 0x20000
        --------------------------------------------------------------------------


Dynamic Data-Memory Reservation
section                    address  length [bytes]      (dec)  Description
-------                 ----------  -------------------------  -----------
heap                    0xa000d098         0x3e80       16000  Reserved for heap 
stack                   0xa0010f30         0xf0c0       61632  Reserved for stack 

        --------------------------------------------------------------------------

Discarded input sections

 .reginfo       0x00000000       0x18 /sdd/opt/microchip/xc32/v1.40/bin/bin/../../lib/gcc/pic32mx/4.8.3/../../../../pic32mx/lib/speed/debug-exception-return.o
 .reginfo       0x00000000       0x18 build/default/production/_ext/1472/BerkeleyTCPClientDemo.o
 .reginfo       0x00000000       0x18 build/default/production/_ext/1472/BerkeleyTCPServerDemo.o
 .reginfo       0x00000000       0x18 build/default/production/_ext/1472/BerkeleyUDPClientDemo.o
 .reginfo       0x00000000       0x18 build/default/production/_ext/1472/GenericTCPClient.o
 .reginfo       0x00000000       0x18 build/default/production/_ext/1472/GenericTCPServer.o
 .reginfo       0x00000000       0x18 build/default/production/_ext/1472/LegacyHTTPApp.o
 .reginfo       0x00000000       0x18 build/default/production/_ext/1472/PingDemo.o
 .reginfo       0x00000000       0x18 build/default/production/_ext/1472/SMTPDemo.o
 .reginfo       0x00000000       0x18 build/default/production/_ext/1472/UARTConfig.o
 .reginfo       0x00000000       0x18 build/default/production/_ext/1295770447/Announce.o
 .reginfo       0x00000000       0x18 build/default/production/_ext/1295770447/ARCFOUR.o
 .reginfo       0x00000000       0x18 build/default/production/_ext/1295770447/ARP.o
 .reginfo       0x00000000       0x18 build/default/production/_ext/1295770447/AutoIP.o
 .reginfo       0x00000000       0x18 build/default/production/_ext/1295770447/BerkeleyAPI.o
 .reginfo       0x00000000       0x18 build/default/production/_ext/1295770447/BigInt.o
 .reginfo       0x00000000       0x18 build/default/production/_ext/1295770447/Delay.o
 .reginfo       0x00000000       0x18 build/default/production/_ext/1295770447/DHCP.o
 .reginfo       0x00000000       0x18 build/default/production/_ext/1295770447/DHCPs.o
 .reginfo       0x00000000       0x18 build/default/production/_ext/1295770447/DNS.o
 .reginfo       0x00000000       0x18 build/default/production/_ext/1295770447/DNSs.o
 .reginfo       0x00000000       0x18 build/default/production/_ext/1295770447/DynDNS.o
 .reginfo       0x00000000       0x18 build/default/production/_ext/1295770447/ENC28J60.o
 .reginfo       0x00000000       0x18 build/default/production/_ext/1295770447/ENCX24J600.o
 .reginfo       0x00000000       0x18 build/default/production/_ext/1295770447/ETHPIC32ExtPhy.o
 .reginfo       0x00000000       0x18 build/default/production/_ext/1295770447/ETHPIC32ExtPhyDP83848.o
 .reginfo       0x00000000       0x18 build/default/production/_ext/1295770447/ETHPIC32IntMac.o
 .reginfo       0x00000000       0x18 build/default/production/_ext/1295770447/FileSystem.o
 .reginfo       0x00000000       0x18 build/default/production/_ext/1295770447/FTP.o
 .reginfo       0x00000000       0x18 build/default/production/_ext/1295770447/Hashes.o
 .reginfo       0x00000000       0x18 build/default/production/_ext/1295770447/Helpers.o
 .reginfo       0x00000000       0x18 build/default/production/_ext/1295770447/HTTP2.o
 .reginfo       0x00000000       0x18 build/default/production/_ext/1295770447/HTTP.o
 .reginfo       0x00000000       0x18 build/default/production/_ext/1295770447/ICMP.o
 .reginfo       0x00000000       0x18 build/default/production/_ext/1295770447/IP.o
 .reginfo       0x00000000       0x18 build/default/production/_ext/1295770447/LCDBlocking.o
 .reginfo       0x00000000       0x18 build/default/production/_ext/1295770447/MPFS2.o
 .reginfo       0x00000000       0x18 build/default/production/_ext/1295770447/MPFS.o
 .reginfo       0x00000000       0x18 build/default/production/_ext/1295770447/NBNS.o
 .reginfo       0x00000000       0x18 build/default/production/_ext/1295770447/Random.o
 .reginfo       0x00000000       0x18 build/default/production/_ext/1295770447/Reboot.o
 .reginfo       0x00000000       0x18 build/default/production/_ext/1295770447/RSA.o
 .reginfo       0x00000000       0x18 build/default/production/_ext/1295770447/SMTP.o
 .reginfo       0x00000000       0x18 build/default/production/_ext/1295770447/SNMP.o
 .reginfo       0x00000000       0x18 build/default/production/_ext/1295770447/SNMPv3.o
 .reginfo       0x00000000       0x18 build/default/production/_ext/1295770447/SNMPv3USM.o
 .reginfo       0x00000000       0x18 build/default/production/_ext/1295770447/SNTP.o
 .reginfo       0x00000000       0x18 build/default/production/_ext/1295770447/SPIEEPROM.o
 .reginfo       0x00000000       0x18 build/default/production/_ext/1295770447/SPIFlash.o
 .reginfo       0x00000000       0x18 build/default/production/_ext/1295770447/SPIRAM.o
 .reginfo       0x00000000       0x18 build/default/production/_ext/1295770447/SSL.o
 .reginfo       0x00000000       0x18 build/default/production/_ext/1295770447/StackTsk.o
 .reginfo       0x00000000       0x18 build/default/production/_ext/1295770447/TCP.o
 .reginfo       0x00000000       0x18 build/default/production/_ext/1295770447/TCPPerformanceTest.o
 .reginfo       0x00000000       0x18 build/default/production/_ext/1295770447/Telnet.o
 .reginfo       0x00000000       0x18 build/default/production/_ext/1295770447/TFTPc.o
 .reginfo       0x00000000       0x18 build/default/production/_ext/1295770447/Tick.o
 .reginfo       0x00000000       0x18 build/default/production/_ext/1295770447/UART2TCPBridge.o
 .reginfo       0x00000000       0x18 build/default/production/_ext/1295770447/UART.o
 .reginfo       0x00000000       0x18 build/default/production/_ext/1295770447/UDP.o
 .reginfo       0x00000000       0x18 build/default/production/_ext/1295770447/UDPPerformanceTest.o
 .reginfo       0x00000000       0x18 build/default/production/_ext/1295770447/ZeroconfHelper.o
 .reginfo       0x00000000       0x18 build/default/production/_ext/1295770447/ZeroconfLinkLocal.o
 .reginfo       0x00000000       0x18 build/default/production/_ext/1295770447/ZeroconfMulticastDNS.o
 .reginfo       0x00000000       0x18 build/default/production/_ext/1472/MPFSImg2.o
 .reginfo       0x00000000       0x18 build/default/production/_ext/1472/MPFSImg.o
 .reginfo       0x00000000       0x18 build/default/production/_ext/1295770447/BigInt_helper_C32.o
 .reginfo       0x00000000       0x18 build/default/production/_ext/1472/CustomHTTPApp.o
 .reginfo       0x00000000       0x18 build/default/production/_ext/1472/CustomSNMPApp.o
 .reginfo       0x00000000       0x18 build/default/production/_ext/1472/CustomSSLCert.o
 .reginfo       0x00000000       0x18 build/default/production/_ext/1472/MainDemo.o
 .reginfo       0x00000000       0x18 build/default/production/_ext/1472/mbmc.o
 .reginfo       0x00000000       0x18 build/default/production/_ext/1472/crc8_fast.o
 .reginfo       0x00000000       0x18 /sdd/opt/microchip/xc32/v1.40/bin/bin/../../lib/gcc/pic32mx/4.8.3/../../../../pic32mx/lib/./proc/32MX795F512L/default_isr_vectors.o
 .discard       0x00000000       0xd0 /sdd/opt/microchip/xc32/v1.40/bin/bin/../../lib/gcc/pic32mx/4.8.3/../../../../pic32mx/lib/./proc/32MX795F512L/default_isr_vectors.o
 .reginfo       0x00000000       0x18 /sdd/opt/microchip/xc32/v1.40/bin/bin/../../lib/gcc/pic32mx/4.8.3/../../../../pic32mx/lib/speed/pic32_software_reset.o
 .reginfo       0x00000000       0x18 /sdd/opt/microchip/xc32/v1.40/bin/bin/../../lib/gcc/pic32mx/4.8.3/../../../../pic32mx/lib/./proc/32MX795F512L/processor.o
 .reginfo       0x00000000       0x18 /sdd/opt/microchip/xc32/v1.40/bin/bin/../../lib/gcc/pic32mx/4.8.3/../../../../pic32mx/lib/speed/libmchp_peripheral.a(read_core_timer_lib.o)
 .reginfo       0x00000000       0x18 /sdd/opt/microchip/xc32/v1.40/bin/bin/../../lib/gcc/pic32mx/4.8.3/../../../../pic32mx/lib/speed/libmchp_peripheral_32MX795F512L.a(eth_ack_packet_lib.o)
 .reginfo       0x00000000       0x18 /sdd/opt/microchip/xc32/v1.40/bin/bin/../../lib/gcc/pic32mx/4.8.3/../../../../pic32mx/lib/speed/libmchp_peripheral_32MX795F512L.a(eth_descriptors_add_lib.o)
 .reginfo       0x00000000       0x18 /sdd/opt/microchip/xc32/v1.40/bin/bin/../../lib/gcc/pic32mx/4.8.3/../../../../pic32mx/lib/speed/libmchp_peripheral_32MX795F512L.a(eth_init_lib.o)
 .reginfo       0x00000000       0x18 /sdd/opt/microchip/xc32/v1.40/bin/bin/../../lib/gcc/pic32mx/4.8.3/../../../../pic32mx/lib/speed/libmchp_peripheral_32MX795F512L.a(eth_mac_open_lib.o)
 .reginfo       0x00000000       0x18 /sdd/opt/microchip/xc32/v1.40/bin/bin/../../lib/gcc/pic32mx/4.8.3/../../../../pic32mx/lib/speed/libmchp_peripheral_32MX795F512L.a(eth_mac_set_address_max_lib.o)
 .reginfo       0x00000000       0x18 /sdd/opt/microchip/xc32/v1.40/bin/bin/../../lib/gcc/pic32mx/4.8.3/../../../../pic32mx/lib/speed/libmchp_peripheral_32MX795F512L.a(eth_rx_buffers_append_lib.o)
 .reginfo       0x00000000       0x18 /sdd/opt/microchip/xc32/v1.40/bin/bin/../../lib/gcc/pic32mx/4.8.3/../../../../pic32mx/lib/speed/libmchp_peripheral_32MX795F512L.a(eth_rx_filters_lib.o)
 .reginfo       0x00000000       0x18 /sdd/opt/microchip/xc32/v1.40/bin/bin/../../lib/gcc/pic32mx/4.8.3/../../../../pic32mx/lib/speed/libmchp_peripheral_32MX795F512L.a(eth_rx_get_packet_lib.o)
 .reginfo       0x00000000       0x18 /sdd/opt/microchip/xc32/v1.40/bin/bin/../../lib/gcc/pic32mx/4.8.3/../../../../pic32mx/lib/speed/libmchp_peripheral_32MX795F512L.a(eth_rx_set_buffer_size_lib.o)
 .reginfo       0x00000000       0x18 /sdd/opt/microchip/xc32/v1.40/bin/bin/../../lib/gcc/pic32mx/4.8.3/../../../../pic32mx/lib/speed/libmchp_peripheral_32MX795F512L.a(eth_tx_packet_lib.o)
 .reginfo       0x00000000       0x18 /sdd/opt/microchip/xc32/v1.40/bin/bin/../../lib/gcc/pic32mx/4.8.3/../../../../pic32mx/lib/speed/libmchp_peripheral_32MX795F512L.a(_eth_append_busy_list_lib.o)
 .reginfo       0x00000000       0x18 /sdd/opt/microchip/xc32/v1.40/bin/bin/../../lib/gcc/pic32mx/4.8.3/../../../../pic32mx/lib/speed/libmchp_peripheral_32MX795F512L.a(eth_miim_access.o)
 .reginfo       0x00000000       0x18 /sdd/opt/microchip/xc32/v1.40/bin/bin/../../lib/gcc/pic32mx/4.8.3/../../../../pic32mx/lib/speed/libmchp_peripheral_32MX795F512L.a(soft_reset_lib.o)
 .reginfo       0x00000000       0x18 /sdd/opt/microchip/xc32/v1.40/bin/bin/../../lib/gcc/pic32mx/4.8.3/../../../../pic32mx/lib/speed/libmchp_peripheral_32MX795F512L.a(pcache.o)
 .reginfo       0x00000000       0x18 /sdd/opt/microchip/xc32/v1.40/bin/bin/../../lib/gcc/pic32mx/4.8.3/../../../../pic32mx/lib/speed/libmchp_peripheral_32MX795F512L.a(int_disable_interrupts_lib.o)
 .reginfo       0x00000000       0x18 /sdd/opt/microchip/xc32/v1.40/bin/bin/../../lib/gcc/pic32mx/4.8.3/../../../../pic32mx/lib/speed/libmchp_peripheral_32MX795F512L.a(int_restore_interrupts_lib.o)
 .reginfo       0x00000000       0x18 /sdd/opt/microchip/xc32/v1.40/bin/bin/../../lib/gcc/pic32mx/4.8.3/../../../../pic32mx/lib/speed/libmchp_peripheral_32MX795F512L.a(int_enable_mv_int_lib.o)
 .reginfo       0x00000000       0x18 /sdd/opt/microchip/xc32/v1.40/bin/bin/../../lib/gcc/pic32mx/4.8.3/../../../../pic32mx/lib/speed/libmchp_peripheral_32MX795F512L.a(int_tbl_lib.o)
 .reginfo       0x00000000       0x18 /sdd/opt/microchip/xc32/v1.40/bin/bin/../../lib/gcc/pic32mx/4.8.3/../../../../pic32mx/lib/speed/libmchp_peripheral_32MX795F512L.a(port_set_pins_digital_in_lib.o)
 .reginfo       0x00000000       0x18 /sdd/opt/microchip/xc32/v1.40/bin/bin/../../lib/gcc/pic32mx/4.8.3/../../../../pic32mx/lib/speed/libmchp_peripheral_32MX795F512L.a(port_set_pins_digital_out_lib.o)
 .reginfo       0x00000000       0x18 /sdd/opt/microchip/xc32/v1.40/bin/bin/../../lib/gcc/pic32mx/4.8.3/../../../../pic32mx/lib/speed/libmchp_peripheral_32MX795F512L.a(_ports_tbl_libp.o)
 .reginfo       0x00000000       0x18 /sdd/opt/microchip/xc32/v1.40/bin/bin/../../lib/gcc/pic32mx/4.8.3/../../../../pic32mx/lib/speed/libmchp_peripheral_32MX795F512L.a(uart_lib.o)
 .reginfo       0x00000000       0x18 /sdd/opt/microchip/xc32/v1.40/bin/bin/../../lib/gcc/pic32mx/4.8.3/../../../../pic32mx/lib/speed/libmchp_peripheral_32MX795F512L.a(int_enable_interrupts_lib.o)
 .reginfo       0x00000000       0x18 /sdd/opt/microchip/xc32/v1.40/bin/bin/../../lib/gcc/pic32mx/4.8.3/speed/libgcc.a(_udivdi3.o)
 .reginfo       0x00000000       0x18 /sdd/opt/microchip/xc32/v1.40/bin/bin/../../lib/gcc/pic32mx/4.8.3/speed/libgcc.a(floatunsisf.o)
 .reginfo       0x00000000       0x18 /sdd/opt/microchip/xc32/v1.40/bin/bin/../../lib/gcc/pic32mx/4.8.3/../../../../pic32mx/lib/speed/libpic32.a(memcmp.o)
 .reginfo       0x00000000       0x18 /sdd/opt/microchip/xc32/v1.40/bin/bin/../../lib/gcc/pic32mx/4.8.3/../../../../pic32mx/lib/speed/libpic32.a(memcpy.o)
 .reginfo       0x00000000       0x18 /sdd/opt/microchip/xc32/v1.40/bin/bin/../../lib/gcc/pic32mx/4.8.3/../../../../pic32mx/lib/speed/libpic32.a(memset.o)
 .reginfo       0x00000000       0x18 /sdd/opt/microchip/xc32/v1.40/bin/bin/../../lib/gcc/pic32mx/4.8.3/../../../../pic32mx/lib/speed/libpic32.a(strcmp.o)
 .reginfo       0x00000000       0x18 /sdd/opt/microchip/xc32/v1.40/bin/bin/../../lib/gcc/pic32mx/4.8.3/../../../../pic32mx/lib/speed/libpic32.a(strcpy.o)
 .reginfo       0x00000000       0x18 /sdd/opt/microchip/xc32/v1.40/bin/bin/../../lib/gcc/pic32mx/4.8.3/../../../../pic32mx/lib/speed/libpic32.a(strlen.o)
 .reginfo       0x00000000       0x18 /sdd/opt/microchip/xc32/v1.40/bin/bin/../../lib/gcc/pic32mx/4.8.3/../../../../pic32mx/lib/speed/libpic32.a(default-bootstrap-exception-handler.o)
 .reginfo       0x00000000       0x18 /sdd/opt/microchip/xc32/v1.40/bin/bin/../../lib/gcc/pic32mx/4.8.3/../../../../pic32mx/lib/speed/libpic32.a(default-on-reset.o)
 .reginfo       0x00000000       0x18 /sdd/opt/microchip/xc32/v1.40/bin/bin/../../lib/gcc/pic32mx/4.8.3/../../../../pic32mx/lib/speed/libpic32.a(default-on-bootstrap.o)
 .reginfo       0x00000000       0x18 /sdd/opt/microchip/xc32/v1.40/bin/bin/../../lib/gcc/pic32mx/4.8.3/../../../../pic32mx/lib/speed/libpic32.a(default-nmi-handler.o)
 .reginfo       0x00000000       0x18 /sdd/opt/microchip/xc32/v1.40/bin/bin/../../lib/gcc/pic32mx/4.8.3/../../../../pic32mx/lib/speed/libpic32.a(general-exception.o)
 .reginfo       0x00000000       0x18 /sdd/opt/microchip/xc32/v1.40/bin/bin/../../lib/gcc/pic32mx/4.8.3/../../../../pic32mx/lib/speed/libpic32.a(vector0.o)
 .reginfo       0x00000000       0x18 /sdd/opt/microchip/xc32/v1.40/bin/bin/../../lib/gcc/pic32mx/4.8.3/../../../../pic32mx/lib/speed/libpic32.a(vector1.o)
 .reginfo       0x00000000       0x18 /sdd/opt/microchip/xc32/v1.40/bin/bin/../../lib/gcc/pic32mx/4.8.3/../../../../pic32mx/lib/speed/libpic32.a(vector2.o)
 .reginfo       0x00000000       0x18 /sdd/opt/microchip/xc32/v1.40/bin/bin/../../lib/gcc/pic32mx/4.8.3/../../../../pic32mx/lib/speed/libpic32.a(vector3.o)
 .reginfo       0x00000000       0x18 /sdd/opt/microchip/xc32/v1.40/bin/bin/../../lib/gcc/pic32mx/4.8.3/../../../../pic32mx/lib/speed/libpic32.a(vector5.o)
 .reginfo       0x00000000       0x18 /sdd/opt/microchip/xc32/v1.40/bin/bin/../../lib/gcc/pic32mx/4.8.3/../../../../pic32mx/lib/speed/libpic32.a(vector6.o)
 .reginfo       0x00000000       0x18 /sdd/opt/microchip/xc32/v1.40/bin/bin/../../lib/gcc/pic32mx/4.8.3/../../../../pic32mx/lib/speed/libpic32.a(vector7.o)
 .reginfo       0x00000000       0x18 /sdd/opt/microchip/xc32/v1.40/bin/bin/../../lib/gcc/pic32mx/4.8.3/../../../../pic32mx/lib/speed/libpic32.a(vector8.o)
 .reginfo       0x00000000       0x18 /sdd/opt/microchip/xc32/v1.40/bin/bin/../../lib/gcc/pic32mx/4.8.3/../../../../pic32mx/lib/speed/libpic32.a(vector9.o)
 .reginfo       0x00000000       0x18 /sdd/opt/microchip/xc32/v1.40/bin/bin/../../lib/gcc/pic32mx/4.8.3/../../../../pic32mx/lib/speed/libpic32.a(vector10.o)
 .reginfo       0x00000000       0x18 /sdd/opt/microchip/xc32/v1.40/bin/bin/../../lib/gcc/pic32mx/4.8.3/../../../../pic32mx/lib/speed/libpic32.a(vector11.o)
 .reginfo       0x00000000       0x18 /sdd/opt/microchip/xc32/v1.40/bin/bin/../../lib/gcc/pic32mx/4.8.3/../../../../pic32mx/lib/speed/libpic32.a(vector12.o)
 .reginfo       0x00000000       0x18 /sdd/opt/microchip/xc32/v1.40/bin/bin/../../lib/gcc/pic32mx/4.8.3/../../../../pic32mx/lib/speed/libpic32.a(vector13.o)
 .reginfo       0x00000000       0x18 /sdd/opt/microchip/xc32/v1.40/bin/bin/../../lib/gcc/pic32mx/4.8.3/../../../../pic32mx/lib/speed/libpic32.a(vector14.o)
 .reginfo       0x00000000       0x18 /sdd/opt/microchip/xc32/v1.40/bin/bin/../../lib/gcc/pic32mx/4.8.3/../../../../pic32mx/lib/speed/libpic32.a(vector15.o)
 .reginfo       0x00000000       0x18 /sdd/opt/microchip/xc32/v1.40/bin/bin/../../lib/gcc/pic32mx/4.8.3/../../../../pic32mx/lib/speed/libpic32.a(vector16.o)
 .reginfo       0x00000000       0x18 /sdd/opt/microchip/xc32/v1.40/bin/bin/../../lib/gcc/pic32mx/4.8.3/../../../../pic32mx/lib/speed/libpic32.a(vector17.o)
 .reginfo       0x00000000       0x18 /sdd/opt/microchip/xc32/v1.40/bin/bin/../../lib/gcc/pic32mx/4.8.3/../../../../pic32mx/lib/speed/libpic32.a(vector18.o)
 .reginfo       0x00000000       0x18 /sdd/opt/microchip/xc32/v1.40/bin/bin/../../lib/gcc/pic32mx/4.8.3/../../../../pic32mx/lib/speed/libpic32.a(vector19.o)
 .reginfo       0x00000000       0x18 /sdd/opt/microchip/xc32/v1.40/bin/bin/../../lib/gcc/pic32mx/4.8.3/../../../../pic32mx/lib/speed/libpic32.a(vector20.o)
 .reginfo       0x00000000       0x18 /sdd/opt/microchip/xc32/v1.40/bin/bin/../../lib/gcc/pic32mx/4.8.3/../../../../pic32mx/lib/speed/libpic32.a(vector21.o)
 .reginfo       0x00000000       0x18 /sdd/opt/microchip/xc32/v1.40/bin/bin/../../lib/gcc/pic32mx/4.8.3/../../../../pic32mx/lib/speed/libpic32.a(vector22.o)
 .reginfo       0x00000000       0x18 /sdd/opt/microchip/xc32/v1.40/bin/bin/../../lib/gcc/pic32mx/4.8.3/../../../../pic32mx/lib/speed/libpic32.a(vector23.o)
 .reginfo       0x00000000       0x18 /sdd/opt/microchip/xc32/v1.40/bin/bin/../../lib/gcc/pic32mx/4.8.3/../../../../pic32mx/lib/speed/libpic32.a(vector25.o)
 .reginfo       0x00000000       0x18 /sdd/opt/microchip/xc32/v1.40/bin/bin/../../lib/gcc/pic32mx/4.8.3/../../../../pic32mx/lib/speed/libpic32.a(vector26.o)
 .reginfo       0x00000000       0x18 /sdd/opt/microchip/xc32/v1.40/bin/bin/../../lib/gcc/pic32mx/4.8.3/../../../../pic32mx/lib/speed/libpic32.a(vector27.o)
 .reginfo       0x00000000       0x18 /sdd/opt/microchip/xc32/v1.40/bin/bin/../../lib/gcc/pic32mx/4.8.3/../../../../pic32mx/lib/speed/libpic32.a(vector28.o)
 .reginfo       0x00000000       0x18 /sdd/opt/microchip/xc32/v1.40/bin/bin/../../lib/gcc/pic32mx/4.8.3/../../../../pic32mx/lib/speed/libpic32.a(vector29.o)
 .reginfo       0x00000000       0x18 /sdd/opt/microchip/xc32/v1.40/bin/bin/../../lib/gcc/pic32mx/4.8.3/../../../../pic32mx/lib/speed/libpic32.a(vector30.o)
 .reginfo       0x00000000       0x18 /sdd/opt/microchip/xc32/v1.40/bin/bin/../../lib/gcc/pic32mx/4.8.3/../../../../pic32mx/lib/speed/libpic32.a(vector31.o)
 .reginfo       0x00000000       0x18 /sdd/opt/microchip/xc32/v1.40/bin/bin/../../lib/gcc/pic32mx/4.8.3/../../../../pic32mx/lib/speed/libpic32.a(vector33.o)
 .reginfo       0x00000000       0x18 /sdd/opt/microchip/xc32/v1.40/bin/bin/../../lib/gcc/pic32mx/4.8.3/../../../../pic32mx/lib/speed/libpic32.a(vector34.o)
 .reginfo       0x00000000       0x18 /sdd/opt/microchip/xc32/v1.40/bin/bin/../../lib/gcc/pic32mx/4.8.3/../../../../pic32mx/lib/speed/libpic32.a(vector35.o)
 .reginfo       0x00000000       0x18 /sdd/opt/microchip/xc32/v1.40/bin/bin/../../lib/gcc/pic32mx/4.8.3/../../../../pic32mx/lib/speed/libpic32.a(vector36.o)
 .reginfo       0x00000000       0x18 /sdd/opt/microchip/xc32/v1.40/bin/bin/../../lib/gcc/pic32mx/4.8.3/../../../../pic32mx/lib/speed/libpic32.a(vector37.o)
 .reginfo       0x00000000       0x18 /sdd/opt/microchip/xc32/v1.40/bin/bin/../../lib/gcc/pic32mx/4.8.3/../../../../pic32mx/lib/speed/libpic32.a(vector38.o)
 .reginfo       0x00000000       0x18 /sdd/opt/microchip/xc32/v1.40/bin/bin/../../lib/gcc/pic32mx/4.8.3/../../../../pic32mx/lib/speed/libpic32.a(vector39.o)
 .reginfo       0x00000000       0x18 /sdd/opt/microchip/xc32/v1.40/bin/bin/../../lib/gcc/pic32mx/4.8.3/../../../../pic32mx/lib/speed/libpic32.a(vector40.o)
 .reginfo       0x00000000       0x18 /sdd/opt/microchip/xc32/v1.40/bin/bin/../../lib/gcc/pic32mx/4.8.3/../../../../pic32mx/lib/speed/libpic32.a(vector41.o)
 .reginfo       0x00000000       0x18 /sdd/opt/microchip/xc32/v1.40/bin/bin/../../lib/gcc/pic32mx/4.8.3/../../../../pic32mx/lib/speed/libpic32.a(vector42.o)
 .reginfo       0x00000000       0x18 /sdd/opt/microchip/xc32/v1.40/bin/bin/../../lib/gcc/pic32mx/4.8.3/../../../../pic32mx/lib/speed/libpic32.a(vector43.o)
 .reginfo       0x00000000       0x18 /sdd/opt/microchip/xc32/v1.40/bin/bin/../../lib/gcc/pic32mx/4.8.3/../../../../pic32mx/lib/speed/libpic32.a(vector44.o)
 .reginfo       0x00000000       0x18 /sdd/opt/microchip/xc32/v1.40/bin/bin/../../lib/gcc/pic32mx/4.8.3/../../../../pic32mx/lib/speed/libpic32.a(vector45.o)
 .reginfo       0x00000000       0x18 /sdd/opt/microchip/xc32/v1.40/bin/bin/../../lib/gcc/pic32mx/4.8.3/../../../../pic32mx/lib/speed/libpic32.a(vector46.o)
 .reginfo       0x00000000       0x18 /sdd/opt/microchip/xc32/v1.40/bin/bin/../../lib/gcc/pic32mx/4.8.3/../../../../pic32mx/lib/speed/libpic32.a(vector47.o)
 .reginfo       0x00000000       0x18 /sdd/opt/microchip/xc32/v1.40/bin/bin/../../lib/gcc/pic32mx/4.8.3/../../../../pic32mx/lib/speed/libpic32.a(vector48.o)
 .reginfo       0x00000000       0x18 /sdd/opt/microchip/xc32/v1.40/bin/bin/../../lib/gcc/pic32mx/4.8.3/../../../../pic32mx/lib/speed/libpic32.a(vector49.o)
 .reginfo       0x00000000       0x18 /sdd/opt/microchip/xc32/v1.40/bin/bin/../../lib/gcc/pic32mx/4.8.3/../../../../pic32mx/lib/speed/libpic32.a(vector50.o)
 .reginfo       0x00000000       0x18 /sdd/opt/microchip/xc32/v1.40/bin/bin/../../lib/gcc/pic32mx/4.8.3/../../../../pic32mx/lib/speed/libpic32.a(vector51.o)
 .reginfo       0x00000000       0x18 /sdd/opt/microchip/xc32/v1.40/bin/bin/../../lib/gcc/pic32mx/4.8.3/../../../../pic32mx/lib/speed/libpic32.a(defaultinterrupt.o)
 .reginfo       0x00000000       0x18 /sdd/opt/microchip/xc32/v1.40/bin/bin/../../lib/gcc/pic32mx/4.8.3/../../../../pic32mx/lib/speed/libm.a(log32.o)
 .reginfo       0x00000000       0x18 /sdd/opt/microchip/xc32/v1.40/bin/bin/../../lib/gcc/pic32mx/4.8.3/../../../../pic32mx/lib/speed/libm.a(dp32div.o)
 .reginfo       0x00000000       0x18 /sdd/opt/microchip/xc32/v1.40/bin/bin/../../lib/gcc/pic32mx/4.8.3/../../../../pic32mx/lib/speed/libm.a(dp32mul.o)
 .reginfo       0x00000000       0x18 /sdd/opt/microchip/xc32/v1.40/bin/bin/../../lib/gcc/pic32mx/4.8.3/../../../../pic32mx/lib/speed/libm.a(dp32subadd.o)
 .reginfo       0x00000000       0x18 /sdd/opt/microchip/xc32/v1.40/bin/bin/../../lib/gcc/pic32mx/4.8.3/../../../../pic32mx/lib/speed/libm.a(dptofp.o)
 .reginfo       0x00000000       0x18 /sdd/opt/microchip/xc32/v1.40/bin/bin/../../lib/gcc/pic32mx/4.8.3/../../../../pic32mx/lib/speed/libm.a(dptoli.o)
 .reginfo       0x00000000       0x18 /sdd/opt/microchip/xc32/v1.40/bin/bin/../../lib/gcc/pic32mx/4.8.3/../../../../pic32mx/lib/speed/libm.a(exadd.o)
 .reginfo       0x00000000       0x18 /sdd/opt/microchip/xc32/v1.40/bin/bin/../../lib/gcc/pic32mx/4.8.3/../../../../pic32mx/lib/speed/libm.a(exdiv.o)
 .reginfo       0x00000000       0x18 /sdd/opt/microchip/xc32/v1.40/bin/bin/../../lib/gcc/pic32mx/4.8.3/../../../../pic32mx/lib/speed/libm.a(exmul.o)
 .reginfo       0x00000000       0x18 /sdd/opt/microchip/xc32/v1.40/bin/bin/../../lib/gcc/pic32mx/4.8.3/../../../../pic32mx/lib/speed/libm.a(fp32div.o)
 .reginfo       0x00000000       0x18 /sdd/opt/microchip/xc32/v1.40/bin/bin/../../lib/gcc/pic32mx/4.8.3/../../../../pic32mx/lib/speed/libm.a(fp32mul.o)
 .reginfo       0x00000000       0x18 /sdd/opt/microchip/xc32/v1.40/bin/bin/../../lib/gcc/pic32mx/4.8.3/../../../../pic32mx/lib/speed/libm.a(fp32subadd.o)
 .reginfo       0x00000000       0x18 /sdd/opt/microchip/xc32/v1.40/bin/bin/../../lib/gcc/pic32mx/4.8.3/../../../../pic32mx/lib/speed/libm.a(fpcmp.o)
 .reginfo       0x00000000       0x18 /sdd/opt/microchip/xc32/v1.40/bin/bin/../../lib/gcc/pic32mx/4.8.3/../../../../pic32mx/lib/speed/libm.a(fptodp.o)
 .reginfo       0x00000000       0x18 /sdd/opt/microchip/xc32/v1.40/bin/bin/../../lib/gcc/pic32mx/4.8.3/../../../../pic32mx/lib/speed/libm.a(litodp.o)
 .reginfo       0x00000000       0x18 /sdd/opt/microchip/xc32/v1.40/bin/bin/../../lib/gcc/pic32mx/4.8.3/../../../../pic32mx/lib/speed/libm.a(sigmax.o)
 .reginfo       0x00000000       0x18 /sdd/opt/microchip/xc32/v1.40/bin/bin/../../lib/gcc/pic32mx/4.8.3/../../../../pic32mx/lib/speed/libm.a(sitofp.o)
 .reginfo       0x00000000       0x18 /sdd/opt/microchip/xc32/v1.40/bin/bin/../../lib/gcc/pic32mx/4.8.3/../../../../pic32mx/lib/speed/liblega-c.a(strcat.o)
 .reginfo       0x00000000       0x18 /sdd/opt/microchip/xc32/v1.40/bin/bin/../../lib/gcc/pic32mx/4.8.3/../../../../pic32mx/lib/speed/liblega-c.a(strncat.o)
 .reginfo       0x00000000       0x18 /sdd/opt/microchip/xc32/v1.40/bin/bin/../../lib/gcc/pic32mx/4.8.3/../../../../pic32mx/lib/speed/liblega-c.a(strchr.o)
 .reginfo       0x00000000       0x18 /sdd/opt/microchip/xc32/v1.40/bin/bin/../../lib/gcc/pic32mx/4.8.3/../../../../pic32mx/lib/speed/liblega-c.a(strstr.o)
 .reginfo       0x00000000       0x18 /sdd/opt/microchip/xc32/v1.40/bin/bin/../../lib/gcc/pic32mx/4.8.3/../../../../pic32mx/lib/speed/liblega-c.a(malloc_calloc.o)
 .reginfo       0x00000000       0x18 /sdd/opt/microchip/xc32/v1.40/bin/bin/../../lib/gcc/pic32mx/4.8.3/../../../../pic32mx/lib/speed/liblega-c.a(strtol.o)
 .reginfo       0x00000000       0x18 /sdd/opt/microchip/xc32/v1.40/bin/bin/../../lib/gcc/pic32mx/4.8.3/../../../../pic32mx/lib/speed/liblega-c.a(sprintf.o)
 .reginfo       0x00000000       0x18 /sdd/opt/microchip/xc32/v1.40/bin/bin/../../lib/gcc/pic32mx/4.8.3/../../../../pic32mx/lib/speed/liblega-c.a(sscanf.o)
 .reginfo       0x00000000       0x18 /sdd/opt/microchip/xc32/v1.40/bin/bin/../../lib/gcc/pic32mx/4.8.3/../../../../pic32mx/lib/speed/liblega-c.a(vsscanf.o)
 .reginfo       0x00000000       0x18 /sdd/opt/microchip/xc32/v1.40/bin/bin/../../lib/gcc/pic32mx/4.8.3/../../../../pic32mx/lib/speed/liblega-c.a(__vsnprintf.o)
 .reginfo       0x00000000       0x18 /sdd/opt/microchip/xc32/v1.40/bin/bin/../../lib/gcc/pic32mx/4.8.3/../../../../pic32mx/lib/speed/liblega-c.a(gmtime.o)
 .reginfo       0x00000000       0x18 /sdd/opt/microchip/xc32/v1.40/bin/bin/../../lib/gcc/pic32mx/4.8.3/../../../../pic32mx/lib/speed/liblega-c.a(offtime.o)
 .reginfo       0x00000000       0x18 /sdd/opt/microchip/xc32/v1.40/bin/bin/../../lib/gcc/pic32mx/4.8.3/../../../../pic32mx/lib/speed/liblega-c.a(asctime.o)
 .reginfo       0x00000000       0x18 /sdd/opt/microchip/xc32/v1.40/bin/bin/../../lib/gcc/pic32mx/4.8.3/../../../../pic32mx/lib/speed/liblega-c.a(stubs.o)
 .reginfo       0x00000000       0x18 /sdd/opt/microchip/xc32/v1.40/bin/bin/../../lib/gcc/pic32mx/4.8.3/../../../../pic32mx/lib/speed/liblega-c.a(ctype.o)
 .reginfo       0x00000000       0x18 /sdd/opt/microchip/xc32/v1.40/bin/bin/../../lib/gcc/pic32mx/4.8.3/../../../../pic32mx/lib/speed/liblega-c.a(malloc.o)
 .reginfo       0x00000000       0x18 /sdd/opt/microchip/xc32/v1.40/bin/bin/../../lib/gcc/pic32mx/4.8.3/../../../../pic32mx/lib/speed/liblega-c.a(errno.o)
 .reginfo       0x00000000       0x18 /sdd/opt/microchip/xc32/v1.40/bin/bin/../../lib/gcc/pic32mx/4.8.3/../../../../pic32mx/lib/speed/liblega-c.a(_doprnt.o)
 .reginfo       0x00000000       0x18 /sdd/opt/microchip/xc32/v1.40/bin/bin/../../lib/gcc/pic32mx/4.8.3/../../../../pic32mx/lib/speed/liblega-c.a(_doscan.o)
 .reginfo       0x00000000       0x18 /sdd/opt/microchip/xc32/v1.40/bin/bin/../../lib/gcc/pic32mx/4.8.3/../../../../pic32mx/lib/speed/liblega-c.a(_iobdata.o)
 .reginfo       0x00000000       0x18 /sdd/opt/microchip/xc32/v1.40/bin/bin/../../lib/gcc/pic32mx/4.8.3/../../../../pic32mx/lib/speed/liblega-c.a(_iobfuncs.o)
 .reginfo       0x00000000       0x18 /sdd/opt/microchip/xc32/v1.40/bin/bin/../../lib/gcc/pic32mx/4.8.3/../../../../pic32mx/lib/speed/liblega-c.a(_iobstring.o)
 .reginfo       0x00000000       0x18 /sdd/opt/microchip/xc32/v1.40/bin/bin/../../lib/gcc/pic32mx/4.8.3/../../../../pic32mx/lib/speed/liblega-c.a(fgetc.o)
 .reginfo       0x00000000       0x18 /sdd/opt/microchip/xc32/v1.40/bin/bin/../../lib/gcc/pic32mx/4.8.3/../../../../pic32mx/lib/speed/liblega-c.a(fputc.o)
 .reginfo       0x00000000       0x18 /sdd/opt/microchip/xc32/v1.40/bin/bin/../../lib/gcc/pic32mx/4.8.3/../../../../pic32mx/lib/speed/liblega-c.a(ungetc.o)
 .reginfo       0x00000000       0x18 /sdd/opt/microchip/xc32/v1.40/bin/bin/../../lib/gcc/pic32mx/4.8.3/../../../../pic32mx/lib/speed/liblega-c.a(sbrk.o)
 .reginfo       0x00000000       0x18 /sdd/opt/microchip/xc32/v1.40/bin/bin/../../lib/gcc/pic32mx/4.8.3/../../../../pic32mx/lib/speed/liblega-c.a(_mon_getc.o)
 .reginfo       0x00000000       0x18 /sdd/opt/microchip/xc32/v1.40/bin/bin/../../lib/gcc/pic32mx/4.8.3/../../../../pic32mx/lib/speed/liblega-c.a(_mon_write.o)
 .reginfo       0x00000000       0x18 /sdd/opt/microchip/xc32/v1.40/bin/bin/../../lib/gcc/pic32mx/4.8.3/../../../../pic32mx/lib/speed/liblega-c.a(malloc_realloc.o)
 .reginfo       0x00000000       0x18 /sdd/opt/microchip/xc32/v1.40/bin/bin/../../lib/gcc/pic32mx/4.8.3/../../../../pic32mx/lib/speed/liblega-c.a(strtoul.o)
 .reginfo       0x00000000       0x18 /sdd/opt/microchip/xc32/v1.40/bin/bin/../../lib/gcc/pic32mx/4.8.3/../../../../pic32mx/lib/speed/liblega-c.a(strtoll.o)
 .reginfo       0x00000000       0x18 /sdd/opt/microchip/xc32/v1.40/bin/bin/../../lib/gcc/pic32mx/4.8.3/../../../../pic32mx/lib/speed/liblega-c.a(strtoull.o)
 .reginfo       0x00000000       0x18 /sdd/opt/microchip/xc32/v1.40/bin/bin/../../lib/gcc/pic32mx/4.8.3/../../../../pic32mx/lib/speed/liblega-c.a(strtod.o)
 .reginfo       0x00000000       0x18 /sdd/opt/microchip/xc32/v1.40/bin/bin/../../lib/gcc/pic32mx/4.8.3/../../../../pic32mx/lib/speed/liblega-c.a(strtof.o)
 .reginfo       0x00000000       0x18 /sdd/opt/microchip/xc32/v1.40/bin/bin/../../lib/gcc/pic32mx/4.8.3/../../../../pic32mx/lib/speed/liblega-c.a(fullexit.o)
 .reginfo       0x00000000       0x18 /sdd/opt/microchip/xc32/v1.40/bin/bin/../../lib/gcc/pic32mx/4.8.3/../../../../pic32mx/lib/speed/liblega-c.a(_ioinit.o)
 .reginfo       0x00000000       0x18 /sdd/opt/microchip/xc32/v1.40/bin/bin/../../lib/gcc/pic32mx/4.8.3/../../../../pic32mx/lib/speed/liblega-c.a(_cleanup.o)
 .reginfo       0x00000000       0x18 /sdd/opt/microchip/xc32/v1.40/bin/bin/../../lib/gcc/pic32mx/4.8.3/../../../../pic32mx/lib/speed/liblega-c.a(_exit.o)
 .reginfo       0x00000000       0x18 /sdd/opt/microchip/xc32/v1.40/bin/bin/../../lib/gcc/pic32mx/4.8.3/../../../../pic32mx/lib/speed/liblega-c.a(isatty.o)
 .reginfo       0x00000000       0x18 /sdd/opt/microchip/xc32/v1.40/bin/bin/../../lib/gcc/pic32mx/4.8.3/../../../../pic32mx/lib/speed/liblega-c.a(_mon_putc.o)
 .reginfo       0x00000000       0x18 /sdd/opt/microchip/xc32/v1.40/bin/bin/../../lib/gcc/pic32mx/4.8.3/../../../../pic32mx/lib/speed/liblega-c.a(memmove.o)
 .reginfo       0x00000000       0x18 /sdd/opt/microchip/xc32/v1.40/bin/bin/../../lib/gcc/pic32mx/4.8.3/../../../../pic32mx/lib/speed/liblega-c.a(_bufproc.o)
 .reginfo       0x00000000       0x18 /sdd/opt/microchip/xc32/v1.40/bin/bin/../../lib/gcc/pic32mx/4.8.3/../../../../pic32mx/lib/speed/libm.a(dpmodf.o)
 .reginfo       0x00000000       0x18 /sdd/opt/microchip/xc32/v1.40/bin/bin/../../lib/gcc/pic32mx/4.8.3/../../../../pic32mx/lib/speed/libm.a(dpcmp.o)
 .reginfo       0x00000000       0x18 /sdd/opt/microchip/xc32/v1.40/bin/bin/../../lib/gcc/pic32mx/4.8.3/../../../../pic32mx/lib/speed/libm.a(__strtod.o)
 .reginfo       0x00000000       0x18 /sdd/opt/microchip/xc32/v1.40/bin/bin/../../lib/gcc/pic32mx/4.8.3/../../../../pic32mx/lib/speed/libm.a(__strtof.o)
 .reginfo       0x00000000       0x18 /sdd/opt/microchip/xc32/v1.40/bin/bin/../../lib/gcc/pic32mx/4.8.3/../../../../pic32mx/lib/speed/libm.a(negdf2.o)
 .reginfo       0x00000000       0x18 /sdd/opt/microchip/xc32/v1.40/bin/bin/../../lib/gcc/pic32mx/4.8.3/../../../../pic32mx/lib/speed/libm.a(negsf2.o)
 .reginfo       0x00000000       0x18 /sdd/opt/microchip/xc32/v1.40/bin/bin/../../lib/gcc/pic32mx/4.8.3/../../../../pic32mx/lib/speed/libe.a(_ldexp.o)
 .reginfo       0x00000000       0x18 /sdd/opt/microchip/xc32/v1.40/bin/bin/../../lib/gcc/pic32mx/4.8.3/../../../../pic32mx/lib/speed/libe.a(_ldexpf.o)
 .reginfo       0x00000000       0x18 /sdd/opt/microchip/xc32/v1.40/bin/bin/../../lib/gcc/pic32mx/4.8.3/speed/libgcc.a(_lshrdi3.o)
 .reginfo       0x00000000       0x18 /sdd/opt/microchip/xc32/v1.40/bin/bin/../../lib/gcc/pic32mx/4.8.3/speed/libgcc.a(_ashldi3.o)
 .reginfo       0x00000000       0x18 /sdd/opt/microchip/xc32/v1.40/bin/bin/../../lib/gcc/pic32mx/4.8.3/speed/libgcc.a(_divdi3.o)
 .reginfo       0x00000000       0x18 /sdd/opt/microchip/xc32/v1.40/bin/bin/../../lib/gcc/pic32mx/4.8.3/speed/libgcc.a(_umoddi3.o)

Memory Configuration

Name             Origin             Length             Attributes
kseg0_program_mem 0x9d000000         0x00080000         xr
kseg0_boot_mem   0x9fc00490         0x00000970
exception_mem    0x9fc01000         0x00001000
kseg1_boot_mem   0xbfc00000         0x00000490
debug_exec_mem   0xbfc02000         0x00000ff0
config3          0xbfc02ff0         0x00000004
config2          0xbfc02ff4         0x00000004
config1          0xbfc02ff8         0x00000004
config0          0xbfc02ffc         0x00000004
kseg1_data_mem   0xa0000000         0x00020000         w !x
sfrs             0xbf800000         0x00100000
configsfrs       0xbfc02ff0         0x00000010
*default*        0x00000000         0xffffffff

Linker script and memory map

LOAD /sdd/opt/microchip/xc32/v1.40/bin/bin/../../lib/gcc/pic32mx/4.8.3/../../../../pic32mx/lib/./proc/32MX795F512L/crt0_mips32r2.o
LOAD /sdd/opt/microchip/xc32/v1.40/bin/bin/../../lib/gcc/pic32mx/4.8.3/../../../../pic32mx/lib/speed/debug-exception-return.o
LOAD build/default/production/_ext/1472/BerkeleyTCPClientDemo.o
LOAD build/default/production/_ext/1472/BerkeleyTCPServerDemo.o
LOAD build/default/production/_ext/1472/BerkeleyUDPClientDemo.o
LOAD build/default/production/_ext/1472/GenericTCPClient.o
LOAD build/default/production/_ext/1472/GenericTCPServer.o
LOAD build/default/production/_ext/1472/LegacyHTTPApp.o
LOAD build/default/production/_ext/1472/PingDemo.o
LOAD build/default/production/_ext/1472/SMTPDemo.o
LOAD build/default/production/_ext/1472/UARTConfig.o
LOAD build/default/production/_ext/1295770447/Announce.o
LOAD build/default/production/_ext/1295770447/ARCFOUR.o
LOAD build/default/production/_ext/1295770447/ARP.o
LOAD build/default/production/_ext/1295770447/AutoIP.o
LOAD build/default/production/_ext/1295770447/BerkeleyAPI.o
LOAD build/default/production/_ext/1295770447/BigInt.o
LOAD build/default/production/_ext/1295770447/Delay.o
LOAD build/default/production/_ext/1295770447/DHCP.o
LOAD build/default/production/_ext/1295770447/DHCPs.o
LOAD build/default/production/_ext/1295770447/DNS.o
LOAD build/default/production/_ext/1295770447/DNSs.o
LOAD build/default/production/_ext/1295770447/DynDNS.o
LOAD build/default/production/_ext/1295770447/ENC28J60.o
LOAD build/default/production/_ext/1295770447/ENCX24J600.o
LOAD build/default/production/_ext/1295770447/ETHPIC32ExtPhy.o
LOAD build/default/production/_ext/1295770447/ETHPIC32ExtPhyDP83848.o
LOAD build/default/production/_ext/1295770447/ETHPIC32IntMac.o
LOAD build/default/production/_ext/1295770447/FileSystem.o
LOAD build/default/production/_ext/1295770447/FTP.o
LOAD build/default/production/_ext/1295770447/Hashes.o
LOAD build/default/production/_ext/1295770447/Helpers.o
LOAD build/default/production/_ext/1295770447/HTTP2.o
LOAD build/default/production/_ext/1295770447/HTTP.o
LOAD build/default/production/_ext/1295770447/ICMP.o
LOAD build/default/production/_ext/1295770447/IP.o
LOAD build/default/production/_ext/1295770447/LCDBlocking.o
LOAD build/default/production/_ext/1295770447/MPFS2.o
LOAD build/default/production/_ext/1295770447/MPFS.o
LOAD build/default/production/_ext/1295770447/NBNS.o
LOAD build/default/production/_ext/1295770447/Random.o
LOAD build/default/production/_ext/1295770447/Reboot.o
LOAD build/default/production/_ext/1295770447/RSA.o
LOAD build/default/production/_ext/1295770447/SMTP.o
LOAD build/default/production/_ext/1295770447/SNMP.o
LOAD build/default/production/_ext/1295770447/SNMPv3.o
LOAD build/default/production/_ext/1295770447/SNMPv3USM.o
LOAD build/default/production/_ext/1295770447/SNTP.o
LOAD build/default/production/_ext/1295770447/SPIEEPROM.o
LOAD build/default/production/_ext/1295770447/SPIFlash.o
LOAD build/default/production/_ext/1295770447/SPIRAM.o
LOAD build/default/production/_ext/1295770447/SSL.o
LOAD build/default/production/_ext/1295770447/StackTsk.o
LOAD build/default/production/_ext/1295770447/TCP.o
LOAD build/default/production/_ext/1295770447/TCPPerformanceTest.o
LOAD build/default/production/_ext/1295770447/Telnet.o
LOAD build/default/production/_ext/1295770447/TFTPc.o
LOAD build/default/production/_ext/1295770447/Tick.o
LOAD build/default/production/_ext/1295770447/UART2TCPBridge.o
LOAD build/default/production/_ext/1295770447/UART.o
LOAD build/default/production/_ext/1295770447/UDP.o
LOAD build/default/production/_ext/1295770447/UDPPerformanceTest.o
LOAD build/default/production/_ext/1295770447/ZeroconfHelper.o
LOAD build/default/production/_ext/1295770447/ZeroconfLinkLocal.o
LOAD build/default/production/_ext/1295770447/ZeroconfMulticastDNS.o
LOAD build/default/production/_ext/1472/MPFSImg2.o
LOAD build/default/production/_ext/1472/MPFSImg.o
LOAD build/default/production/_ext/1295770447/BigInt_helper_C32.o
LOAD build/default/production/_ext/1472/CustomHTTPApp.o
LOAD build/default/production/_ext/1472/CustomSNMPApp.o
LOAD build/default/production/_ext/1472/CustomSSLCert.o
LOAD build/default/production/_ext/1472/MainDemo.o
LOAD build/default/production/_ext/1472/mbmc.o
LOAD build/default/production/_ext/1472/crc8_fast.o
LOAD ../../Microchip/Crypto/AES_PIC32MX.a
                0x00000001                __MPLAB_BUILD = 0x1
                0x00003e80                _min_heap_size = 0x3e80
                0x00000800                _min_stack_size = 0x800
LOAD /sdd/opt/microchip/xc32/v1.40/bin/bin/../../lib/gcc/pic32mx/4.8.3/../../../../pic32mx/lib/./proc/32MX795F512L/default_isr_vectors.o
LOAD /sdd/opt/microchip/xc32/v1.40/bin/bin/../../lib/gcc/pic32mx/4.8.3/../../../../pic32mx/lib/speed/pic32_software_reset.o
                0x00000400                PROVIDE (_min_stack_size, 0x400)
LOAD /sdd/opt/microchip/xc32/v1.40/bin/bin/../../lib/gcc/pic32mx/4.8.3/../../../../pic32mx/lib/./proc/32MX795F512L/processor.o
START GROUP
LOAD /sdd/opt/microchip/xc32/v1.40/bin/bin/../../lib/gcc/pic32mx/4.8.3/../../../../pic32mx/lib/speed/libmchp_peripheral.a
END GROUP
START GROUP
LOAD /sdd/opt/microchip/xc32/v1.40/bin/bin/../../lib/gcc/pic32mx/4.8.3/../../../../pic32mx/lib/speed/libmchp_peripheral_32MX795F512L.a
END GROUP
                0x00000001                PROVIDE (_vector_spacing, 0x1)
                0x9fc01000                _ebase_address = 0x9fc01000
                0xbfc00000                _RESET_ADDR = 0xbfc00000
                0xbfc00380                _BEV_EXCPT_ADDR = 0xbfc00380
                0xbfc00480                _DBG_EXCPT_ADDR = 0xbfc00480
                0xbfc02000                _DBG_CODE_ADDR = 0xbfc02000
                0x00000ff0                _DBG_CODE_SIZE = 0xff0
                0x9fc01180                _GEN_EXCPT_ADDR = (_ebase_address + 0x180)

.config_BFC02FF0
                0xbfc02ff0        0x4
 *(.config_BFC02FF0)
 .config_BFC02FF0
                0xbfc02ff0        0x4 build/default/production/_ext/1472/MainDemo.o

.config_BFC02FF4
                0xbfc02ff4        0x4
 *(.config_BFC02FF4)
 .config_BFC02FF4
                0xbfc02ff4        0x4 build/default/production/_ext/1472/MainDemo.o

.config_BFC02FF8
                0xbfc02ff8        0x4
 *(.config_BFC02FF8)
 .config_BFC02FF8
                0xbfc02ff8        0x4 build/default/production/_ext/1472/MainDemo.o

.config_BFC02FFC
                0xbfc02ffc        0x4
 *(.config_BFC02FFC)
 .config_BFC02FFC
                0xbfc02ffc        0x4 build/default/production/_ext/1472/MainDemo.o
                0xbfc02000                PROVIDE (_DBG_CODE_ADDR, 0xbfc02000)
                0x00000ff0                PROVIDE (_DBG_CODE_SIZE, 0xff0)

.reset          0xbfc00000      0x1f4
 *(.reset)
 .reset         0xbfc00000        0x8 /sdd/opt/microchip/xc32/v1.40/bin/bin/../../lib/gcc/pic32mx/4.8.3/../../../../pic32mx/lib/./proc/32MX795F512L/crt0_mips32r2.o
                0xbfc00000                _reset
 *(.reset.startup)
 .reset.startup
                0xbfc00008      0x1ec /sdd/opt/microchip/xc32/v1.40/bin/bin/../../lib/gcc/pic32mx/4.8.3/../../../../pic32mx/lib/./proc/32MX795F512L/crt0_mips32r2.o

.bev_excpt      0xbfc00380       0x10
 *(.bev_handler)
 .bev_handler   0xbfc00380       0x10 /sdd/opt/microchip/xc32/v1.40/bin/bin/../../lib/gcc/pic32mx/4.8.3/../../../../pic32mx/lib/./proc/32MX795F512L/crt0_mips32r2.o

.dbg_excpt      0xbfc00480        0x0
                0xbfc00480                . = (. + DEFINED (_DEBUGGER)?0x8:0x0)

.dbg_code       0xbfc02000        0x0
                0xbfc02000                . = (. + DEFINED (_DEBUGGER)?_DBG_CODE_SIZE:0x0)

.app_excpt      0x9fc01180       0x10
 *(.gen_handler)
 .gen_handler   0x9fc01180       0x10 /sdd/opt/microchip/xc32/v1.40/bin/bin/../../lib/gcc/pic32mx/4.8.3/../../../../pic32mx/lib/./proc/32MX795F512L/crt0_mips32r2.o

.vector_0       0x9fc01200        0x8
 *(.vector_0)
 .vector_0      0x9fc01200        0x8 /sdd/opt/microchip/xc32/v1.40/bin/bin/../../lib/gcc/pic32mx/4.8.3/../../../../pic32mx/lib/speed/libpic32.a(vector0.o)
                0x9fc01200                __vector_dispatch_0
                0x00000001                ASSERT (((_vector_spacing == 0x0) || (SIZEOF (.vector_0) <= (_vector_spacing << 0x5))), function at exception vector 0 too large)

.vector_1       0x9fc01220        0x8
 *(.vector_1)
 .vector_1      0x9fc01220        0x8 /sdd/opt/microchip/xc32/v1.40/bin/bin/../../lib/gcc/pic32mx/4.8.3/../../../../pic32mx/lib/speed/libpic32.a(vector1.o)
                0x9fc01220                __vector_dispatch_1
                0x00000001                ASSERT (((_vector_spacing == 0x0) || (SIZEOF (.vector_1) <= (_vector_spacing << 0x5))), function at exception vector 1 too large)

.vector_2       0x9fc01240        0x8
 *(.vector_2)
 .vector_2      0x9fc01240        0x8 /sdd/opt/microchip/xc32/v1.40/bin/bin/../../lib/gcc/pic32mx/4.8.3/../../../../pic32mx/lib/speed/libpic32.a(vector2.o)
                0x9fc01240                __vector_dispatch_2
                0x00000001                ASSERT (((_vector_spacing == 0x0) || (SIZEOF (.vector_2) <= (_vector_spacing << 0x5))), function at exception vector 2 too large)

.vector_3       0x9fc01260        0x8
 *(.vector_3)
 .vector_3      0x9fc01260        0x8 /sdd/opt/microchip/xc32/v1.40/bin/bin/../../lib/gcc/pic32mx/4.8.3/../../../../pic32mx/lib/speed/libpic32.a(vector3.o)
                0x9fc01260                __vector_dispatch_3
                0x00000001                ASSERT (((_vector_spacing == 0x0) || (SIZEOF (.vector_3) <= (_vector_spacing << 0x5))), function at exception vector 3 too large)

.vector_4       0x9fc01280        0x8
 *(.vector_4)
 .vector_4      0x9fc01280        0x8 build/default/production/_ext/1295770447/Tick.o
                0x9fc01280                __vector_dispatch_4
                0x00000001                ASSERT (((_vector_spacing == 0x0) || (SIZEOF (.vector_4) <= (_vector_spacing << 0x5))), function at exception vector 4 too large)

.vector_5       0x9fc012a0        0x8
 *(.vector_5)
 .vector_5      0x9fc012a0        0x8 /sdd/opt/microchip/xc32/v1.40/bin/bin/../../lib/gcc/pic32mx/4.8.3/../../../../pic32mx/lib/speed/libpic32.a(vector5.o)
                0x9fc012a0                __vector_dispatch_5
                0x00000001                ASSERT (((_vector_spacing == 0x0) || (SIZEOF (.vector_5) <= (_vector_spacing << 0x5))), function at exception vector 5 too large)

.vector_6       0x9fc012c0        0x8
 *(.vector_6)
 .vector_6      0x9fc012c0        0x8 /sdd/opt/microchip/xc32/v1.40/bin/bin/../../lib/gcc/pic32mx/4.8.3/../../../../pic32mx/lib/speed/libpic32.a(vector6.o)
                0x9fc012c0                __vector_dispatch_6
                0x00000001                ASSERT (((_vector_spacing == 0x0) || (SIZEOF (.vector_6) <= (_vector_spacing << 0x5))), function at exception vector 6 too large)

.vector_7       0x9fc012e0        0x8
 *(.vector_7)
 .vector_7      0x9fc012e0        0x8 /sdd/opt/microchip/xc32/v1.40/bin/bin/../../lib/gcc/pic32mx/4.8.3/../../../../pic32mx/lib/speed/libpic32.a(vector7.o)
                0x9fc012e0                __vector_dispatch_7
                0x00000001                ASSERT (((_vector_spacing == 0x0) || (SIZEOF (.vector_7) <= (_vector_spacing << 0x5))), function at exception vector 7 too large)

.vector_8       0x9fc01300        0x8
 *(.vector_8)
 .vector_8      0x9fc01300        0x8 /sdd/opt/microchip/xc32/v1.40/bin/bin/../../lib/gcc/pic32mx/4.8.3/../../../../pic32mx/lib/speed/libpic32.a(vector8.o)
                0x9fc01300                __vector_dispatch_8
                0x00000001                ASSERT (((_vector_spacing == 0x0) || (SIZEOF (.vector_8) <= (_vector_spacing << 0x5))), function at exception vector 8 too large)

.vector_9       0x9fc01320        0x8
 *(.vector_9)
 .vector_9      0x9fc01320        0x8 /sdd/opt/microchip/xc32/v1.40/bin/bin/../../lib/gcc/pic32mx/4.8.3/../../../../pic32mx/lib/speed/libpic32.a(vector9.o)
                0x9fc01320                __vector_dispatch_9
                0x00000001                ASSERT (((_vector_spacing == 0x0) || (SIZEOF (.vector_9) <= (_vector_spacing << 0x5))), function at exception vector 9 too large)

.vector_10      0x9fc01340        0x8
 *(.vector_10)
 .vector_10     0x9fc01340        0x8 /sdd/opt/microchip/xc32/v1.40/bin/bin/../../lib/gcc/pic32mx/4.8.3/../../../../pic32mx/lib/speed/libpic32.a(vector10.o)
                0x9fc01340                __vector_dispatch_10
                0x00000001                ASSERT (((_vector_spacing == 0x0) || (SIZEOF (.vector_10) <= (_vector_spacing << 0x5))), function at exception vector 10 too large)

.vector_11      0x9fc01360        0x8
 *(.vector_11)
 .vector_11     0x9fc01360        0x8 /sdd/opt/microchip/xc32/v1.40/bin/bin/../../lib/gcc/pic32mx/4.8.3/../../../../pic32mx/lib/speed/libpic32.a(vector11.o)
                0x9fc01360                __vector_dispatch_11
                0x00000001                ASSERT (((_vector_spacing == 0x0) || (SIZEOF (.vector_11) <= (_vector_spacing << 0x5))), function at exception vector 11 too large)

.vector_12      0x9fc01380        0x8
 *(.vector_12)
 .vector_12     0x9fc01380        0x8 /sdd/opt/microchip/xc32/v1.40/bin/bin/../../lib/gcc/pic32mx/4.8.3/../../../../pic32mx/lib/speed/libpic32.a(vector12.o)
                0x9fc01380                __vector_dispatch_12
                0x00000001                ASSERT (((_vector_spacing == 0x0) || (SIZEOF (.vector_12) <= (_vector_spacing << 0x5))), function at exception vector 12 too large)

.vector_13      0x9fc013a0        0x8
 *(.vector_13)
 .vector_13     0x9fc013a0        0x8 /sdd/opt/microchip/xc32/v1.40/bin/bin/../../lib/gcc/pic32mx/4.8.3/../../../../pic32mx/lib/speed/libpic32.a(vector13.o)
                0x9fc013a0                __vector_dispatch_13
                0x00000001                ASSERT (((_vector_spacing == 0x0) || (SIZEOF (.vector_13) <= (_vector_spacing << 0x5))), function at exception vector 13 too large)

.vector_14      0x9fc013c0        0x8
 *(.vector_14)
 .vector_14     0x9fc013c0        0x8 /sdd/opt/microchip/xc32/v1.40/bin/bin/../../lib/gcc/pic32mx/4.8.3/../../../../pic32mx/lib/speed/libpic32.a(vector14.o)
                0x9fc013c0                __vector_dispatch_14
                0x00000001                ASSERT (((_vector_spacing == 0x0) || (SIZEOF (.vector_14) <= (_vector_spacing << 0x5))), function at exception vector 14 too large)

.vector_15      0x9fc013e0        0x8
 *(.vector_15)
 .vector_15     0x9fc013e0        0x8 /sdd/opt/microchip/xc32/v1.40/bin/bin/../../lib/gcc/pic32mx/4.8.3/../../../../pic32mx/lib/speed/libpic32.a(vector15.o)
                0x9fc013e0                __vector_dispatch_15
                0x00000001                ASSERT (((_vector_spacing == 0x0) || (SIZEOF (.vector_15) <= (_vector_spacing << 0x5))), function at exception vector 15 too large)

.vector_16      0x9fc01400        0x8
 *(.vector_16)
 .vector_16     0x9fc01400        0x8 /sdd/opt/microchip/xc32/v1.40/bin/bin/../../lib/gcc/pic32mx/4.8.3/../../../../pic32mx/lib/speed/libpic32.a(vector16.o)
                0x9fc01400                __vector_dispatch_16
                0x00000001                ASSERT (((_vector_spacing == 0x0) || (SIZEOF (.vector_16) <= (_vector_spacing << 0x5))), function at exception vector 16 too large)

.vector_17      0x9fc01420        0x8
 *(.vector_17)
 .vector_17     0x9fc01420        0x8 /sdd/opt/microchip/xc32/v1.40/bin/bin/../../lib/gcc/pic32mx/4.8.3/../../../../pic32mx/lib/speed/libpic32.a(vector17.o)
                0x9fc01420                __vector_dispatch_17
                0x00000001                ASSERT (((_vector_spacing == 0x0) || (SIZEOF (.vector_17) <= (_vector_spacing << 0x5))), function at exception vector 17 too large)

.vector_18      0x9fc01440        0x8
 *(.vector_18)
 .vector_18     0x9fc01440        0x8 /sdd/opt/microchip/xc32/v1.40/bin/bin/../../lib/gcc/pic32mx/4.8.3/../../../../pic32mx/lib/speed/libpic32.a(vector18.o)
                0x9fc01440                __vector_dispatch_18
                0x00000001                ASSERT (((_vector_spacing == 0x0) || (SIZEOF (.vector_18) <= (_vector_spacing << 0x5))), function at exception vector 18 too large)

.vector_19      0x9fc01460        0x8
 *(.vector_19)
 .vector_19     0x9fc01460        0x8 /sdd/opt/microchip/xc32/v1.40/bin/bin/../../lib/gcc/pic32mx/4.8.3/../../../../pic32mx/lib/speed/libpic32.a(vector19.o)
                0x9fc01460                __vector_dispatch_19
                0x00000001                ASSERT (((_vector_spacing == 0x0) || (SIZEOF (.vector_19) <= (_vector_spacing << 0x5))), function at exception vector 19 too large)

.vector_20      0x9fc01480        0x8
 *(.vector_20)
 .vector_20     0x9fc01480        0x8 /sdd/opt/microchip/xc32/v1.40/bin/bin/../../lib/gcc/pic32mx/4.8.3/../../../../pic32mx/lib/speed/libpic32.a(vector20.o)
                0x9fc01480                __vector_dispatch_20
                0x00000001                ASSERT (((_vector_spacing == 0x0) || (SIZEOF (.vector_20) <= (_vector_spacing << 0x5))), function at exception vector 20 too large)

.vector_21      0x9fc014a0        0x8
 *(.vector_21)
 .vector_21     0x9fc014a0        0x8 /sdd/opt/microchip/xc32/v1.40/bin/bin/../../lib/gcc/pic32mx/4.8.3/../../../../pic32mx/lib/speed/libpic32.a(vector21.o)
                0x9fc014a0                __vector_dispatch_21
                0x00000001                ASSERT (((_vector_spacing == 0x0) || (SIZEOF (.vector_21) <= (_vector_spacing << 0x5))), function at exception vector 21 too large)

.vector_22      0x9fc014c0        0x8
 *(.vector_22)
 .vector_22     0x9fc014c0        0x8 /sdd/opt/microchip/xc32/v1.40/bin/bin/../../lib/gcc/pic32mx/4.8.3/../../../../pic32mx/lib/speed/libpic32.a(vector22.o)
                0x9fc014c0                __vector_dispatch_22
                0x00000001                ASSERT (((_vector_spacing == 0x0) || (SIZEOF (.vector_22) <= (_vector_spacing << 0x5))), function at exception vector 22 too large)

.vector_23      0x9fc014e0        0x8
 *(.vector_23)
 .vector_23     0x9fc014e0        0x8 /sdd/opt/microchip/xc32/v1.40/bin/bin/../../lib/gcc/pic32mx/4.8.3/../../../../pic32mx/lib/speed/libpic32.a(vector23.o)
                0x9fc014e0                __vector_dispatch_23
                0x00000001                ASSERT (((_vector_spacing == 0x0) || (SIZEOF (.vector_23) <= (_vector_spacing << 0x5))), function at exception vector 23 too large)

.vector_24      0x9fc01500        0x8
 *(.vector_24)
 .vector_24     0x9fc01500        0x8 build/default/production/_ext/1472/mbmc.o
                0x9fc01500                __vector_dispatch_24
                0x00000001                ASSERT (((_vector_spacing == 0x0) || (SIZEOF (.vector_24) <= (_vector_spacing << 0x5))), function at exception vector 24 too large)

.vector_25      0x9fc01520        0x8
 *(.vector_25)
 .vector_25     0x9fc01520        0x8 /sdd/opt/microchip/xc32/v1.40/bin/bin/../../lib/gcc/pic32mx/4.8.3/../../../../pic32mx/lib/speed/libpic32.a(vector25.o)
                0x9fc01520                __vector_dispatch_25
                0x00000001                ASSERT (((_vector_spacing == 0x0) || (SIZEOF (.vector_25) <= (_vector_spacing << 0x5))), function at exception vector 25 too large)

.vector_26      0x9fc01540        0x8
 *(.vector_26)
 .vector_26     0x9fc01540        0x8 /sdd/opt/microchip/xc32/v1.40/bin/bin/../../lib/gcc/pic32mx/4.8.3/../../../../pic32mx/lib/speed/libpic32.a(vector26.o)
                0x9fc01540                __vector_dispatch_26
                0x00000001                ASSERT (((_vector_spacing == 0x0) || (SIZEOF (.vector_26) <= (_vector_spacing << 0x5))), function at exception vector 26 too large)

.vector_27      0x9fc01560        0x8
 *(.vector_27)
 .vector_27     0x9fc01560        0x8 /sdd/opt/microchip/xc32/v1.40/bin/bin/../../lib/gcc/pic32mx/4.8.3/../../../../pic32mx/lib/speed/libpic32.a(vector27.o)
                0x9fc01560                __vector_dispatch_27
                0x00000001                ASSERT (((_vector_spacing == 0x0) || (SIZEOF (.vector_27) <= (_vector_spacing << 0x5))), function at exception vector 27 too large)

.vector_28      0x9fc01580        0x8
 *(.vector_28)
 .vector_28     0x9fc01580        0x8 /sdd/opt/microchip/xc32/v1.40/bin/bin/../../lib/gcc/pic32mx/4.8.3/../../../../pic32mx/lib/speed/libpic32.a(vector28.o)
                0x9fc01580                __vector_dispatch_28
                0x00000001                ASSERT (((_vector_spacing == 0x0) || (SIZEOF (.vector_28) <= (_vector_spacing << 0x5))), function at exception vector 28 too large)

.vector_29      0x9fc015a0        0x8
 *(.vector_29)
 .vector_29     0x9fc015a0        0x8 /sdd/opt/microchip/xc32/v1.40/bin/bin/../../lib/gcc/pic32mx/4.8.3/../../../../pic32mx/lib/speed/libpic32.a(vector29.o)
                0x9fc015a0                __vector_dispatch_29
                0x00000001                ASSERT (((_vector_spacing == 0x0) || (SIZEOF (.vector_29) <= (_vector_spacing << 0x5))), function at exception vector 29 too large)

.vector_30      0x9fc015c0        0x8
 *(.vector_30)
 .vector_30     0x9fc015c0        0x8 /sdd/opt/microchip/xc32/v1.40/bin/bin/../../lib/gcc/pic32mx/4.8.3/../../../../pic32mx/lib/speed/libpic32.a(vector30.o)
                0x9fc015c0                __vector_dispatch_30
                0x00000001                ASSERT (((_vector_spacing == 0x0) || (SIZEOF (.vector_30) <= (_vector_spacing << 0x5))), function at exception vector 30 too large)

.vector_31      0x9fc015e0        0x8
 *(.vector_31)
 .vector_31     0x9fc015e0        0x8 /sdd/opt/microchip/xc32/v1.40/bin/bin/../../lib/gcc/pic32mx/4.8.3/../../../../pic32mx/lib/speed/libpic32.a(vector31.o)
                0x9fc015e0                __vector_dispatch_31
                0x00000001                ASSERT (((_vector_spacing == 0x0) || (SIZEOF (.vector_31) <= (_vector_spacing << 0x5))), function at exception vector 31 too large)

.vector_32      0x9fc01600        0x8
 *(.vector_32)
 .vector_32     0x9fc01600        0x8 build/default/production/_ext/1472/mbmc.o
                0x9fc01600                __vector_dispatch_32
                0x00000001                ASSERT (((_vector_spacing == 0x0) || (SIZEOF (.vector_32) <= (_vector_spacing << 0x5))), function at exception vector 32 too large)

.vector_33      0x9fc01620        0x8
 *(.vector_33)
 .vector_33     0x9fc01620        0x8 /sdd/opt/microchip/xc32/v1.40/bin/bin/../../lib/gcc/pic32mx/4.8.3/../../../../pic32mx/lib/speed/libpic32.a(vector33.o)
                0x9fc01620                __vector_dispatch_33
                0x00000001                ASSERT (((_vector_spacing == 0x0) || (SIZEOF (.vector_33) <= (_vector_spacing << 0x5))), function at exception vector 33 too large)

.vector_34      0x9fc01640        0x8
 *(.vector_34)
 .vector_34     0x9fc01640        0x8 /sdd/opt/microchip/xc32/v1.40/bin/bin/../../lib/gcc/pic32mx/4.8.3/../../../../pic32mx/lib/speed/libpic32.a(vector34.o)
                0x9fc01640                __vector_dispatch_34
                0x00000001                ASSERT (((_vector_spacing == 0x0) || (SIZEOF (.vector_34) <= (_vector_spacing << 0x5))), function at exception vector 34 too large)

.vector_35      0x9fc01660        0x8
 *(.vector_35)
 .vector_35     0x9fc01660        0x8 /sdd/opt/microchip/xc32/v1.40/bin/bin/../../lib/gcc/pic32mx/4.8.3/../../../../pic32mx/lib/speed/libpic32.a(vector35.o)
                0x9fc01660                __vector_dispatch_35
                0x00000001                ASSERT (((_vector_spacing == 0x0) || (SIZEOF (.vector_35) <= (_vector_spacing << 0x5))), function at exception vector 35 too large)

.vector_36      0x9fc01680        0x8
 *(.vector_36)
 .vector_36     0x9fc01680        0x8 /sdd/opt/microchip/xc32/v1.40/bin/bin/../../lib/gcc/pic32mx/4.8.3/../../../../pic32mx/lib/speed/libpic32.a(vector36.o)
                0x9fc01680                __vector_dispatch_36
                0x00000001                ASSERT (((_vector_spacing == 0x0) || (SIZEOF (.vector_36) <= (_vector_spacing << 0x5))), function at exception vector 36 too large)

.vector_37      0x9fc016a0        0x8
 *(.vector_37)
 .vector_37     0x9fc016a0        0x8 /sdd/opt/microchip/xc32/v1.40/bin/bin/../../lib/gcc/pic32mx/4.8.3/../../../../pic32mx/lib/speed/libpic32.a(vector37.o)
                0x9fc016a0                __vector_dispatch_37
                0x00000001                ASSERT (((_vector_spacing == 0x0) || (SIZEOF (.vector_37) <= (_vector_spacing << 0x5))), function at exception vector 37 too large)

.vector_38      0x9fc016c0        0x8
 *(.vector_38)
 .vector_38     0x9fc016c0        0x8 /sdd/opt/microchip/xc32/v1.40/bin/bin/../../lib/gcc/pic32mx/4.8.3/../../../../pic32mx/lib/speed/libpic32.a(vector38.o)
                0x9fc016c0                __vector_dispatch_38
                0x00000001                ASSERT (((_vector_spacing == 0x0) || (SIZEOF (.vector_38) <= (_vector_spacing << 0x5))), function at exception vector 38 too large)

.vector_39      0x9fc016e0        0x8
 *(.vector_39)
 .vector_39     0x9fc016e0        0x8 /sdd/opt/microchip/xc32/v1.40/bin/bin/../../lib/gcc/pic32mx/4.8.3/../../../../pic32mx/lib/speed/libpic32.a(vector39.o)
                0x9fc016e0                __vector_dispatch_39
                0x00000001                ASSERT (((_vector_spacing == 0x0) || (SIZEOF (.vector_39) <= (_vector_spacing << 0x5))), function at exception vector 39 too large)

.vector_40      0x9fc01700        0x8
 *(.vector_40)
 .vector_40     0x9fc01700        0x8 /sdd/opt/microchip/xc32/v1.40/bin/bin/../../lib/gcc/pic32mx/4.8.3/../../../../pic32mx/lib/speed/libpic32.a(vector40.o)
                0x9fc01700                __vector_dispatch_40
                0x00000001                ASSERT (((_vector_spacing == 0x0) || (SIZEOF (.vector_40) <= (_vector_spacing << 0x5))), function at exception vector 40 too large)

.vector_41      0x9fc01720        0x8
 *(.vector_41)
 .vector_41     0x9fc01720        0x8 /sdd/opt/microchip/xc32/v1.40/bin/bin/../../lib/gcc/pic32mx/4.8.3/../../../../pic32mx/lib/speed/libpic32.a(vector41.o)
                0x9fc01720                __vector_dispatch_41
                0x00000001                ASSERT (((_vector_spacing == 0x0) || (SIZEOF (.vector_41) <= (_vector_spacing << 0x5))), function at exception vector 41 too large)

.vector_42      0x9fc01740        0x8
 *(.vector_42)
 .vector_42     0x9fc01740        0x8 /sdd/opt/microchip/xc32/v1.40/bin/bin/../../lib/gcc/pic32mx/4.8.3/../../../../pic32mx/lib/speed/libpic32.a(vector42.o)
                0x9fc01740                __vector_dispatch_42
                0x00000001                ASSERT (((_vector_spacing == 0x0) || (SIZEOF (.vector_42) <= (_vector_spacing << 0x5))), function at exception vector 42 too large)

.vector_43      0x9fc01760        0x8
 *(.vector_43)
 .vector_43     0x9fc01760        0x8 /sdd/opt/microchip/xc32/v1.40/bin/bin/../../lib/gcc/pic32mx/4.8.3/../../../../pic32mx/lib/speed/libpic32.a(vector43.o)
                0x9fc01760                __vector_dispatch_43
                0x00000001                ASSERT (((_vector_spacing == 0x0) || (SIZEOF (.vector_43) <= (_vector_spacing << 0x5))), function at exception vector 43 too large)

.vector_44      0x9fc01780        0x8
 *(.vector_44)
 .vector_44     0x9fc01780        0x8 /sdd/opt/microchip/xc32/v1.40/bin/bin/../../lib/gcc/pic32mx/4.8.3/../../../../pic32mx/lib/speed/libpic32.a(vector44.o)
                0x9fc01780                __vector_dispatch_44
                0x00000001                ASSERT (((_vector_spacing == 0x0) || (SIZEOF (.vector_44) <= (_vector_spacing << 0x5))), function at exception vector 44 too large)

.vector_45      0x9fc017a0        0x8
 *(.vector_45)
 .vector_45     0x9fc017a0        0x8 /sdd/opt/microchip/xc32/v1.40/bin/bin/../../lib/gcc/pic32mx/4.8.3/../../../../pic32mx/lib/speed/libpic32.a(vector45.o)
                0x9fc017a0                __vector_dispatch_45
                0x00000001                ASSERT (((_vector_spacing == 0x0) || (SIZEOF (.vector_45) <= (_vector_spacing << 0x5))), function at exception vector 45 too large)

.vector_46      0x9fc017c0        0x8
 *(.vector_46)
 .vector_46     0x9fc017c0        0x8 /sdd/opt/microchip/xc32/v1.40/bin/bin/../../lib/gcc/pic32mx/4.8.3/../../../../pic32mx/lib/speed/libpic32.a(vector46.o)
                0x9fc017c0                __vector_dispatch_46
                0x00000001                ASSERT (((_vector_spacing == 0x0) || (SIZEOF (.vector_46) <= (_vector_spacing << 0x5))), function at exception vector 46 too large)

.vector_47      0x9fc017e0        0x8
 *(.vector_47)
 .vector_47     0x9fc017e0        0x8 /sdd/opt/microchip/xc32/v1.40/bin/bin/../../lib/gcc/pic32mx/4.8.3/../../../../pic32mx/lib/speed/libpic32.a(vector47.o)
                0x9fc017e0                __vector_dispatch_47
                0x00000001                ASSERT (((_vector_spacing == 0x0) || (SIZEOF (.vector_47) <= (_vector_spacing << 0x5))), function at exception vector 47 too large)

.vector_48      0x9fc01800        0x8
 *(.vector_48)
 .vector_48     0x9fc01800        0x8 /sdd/opt/microchip/xc32/v1.40/bin/bin/../../lib/gcc/pic32mx/4.8.3/../../../../pic32mx/lib/speed/libpic32.a(vector48.o)
                0x9fc01800                __vector_dispatch_48
                0x00000001                ASSERT (((_vector_spacing == 0x0) || (SIZEOF (.vector_48) <= (_vector_spacing << 0x5))), function at exception vector 48 too large)

.vector_49      0x9fc01820        0x8
 *(.vector_49)
 .vector_49     0x9fc01820        0x8 /sdd/opt/microchip/xc32/v1.40/bin/bin/../../lib/gcc/pic32mx/4.8.3/../../../../pic32mx/lib/speed/libpic32.a(vector49.o)
                0x9fc01820                __vector_dispatch_49
                0x00000001                ASSERT (((_vector_spacing == 0x0) || (SIZEOF (.vector_49) <= (_vector_spacing << 0x5))), function at exception vector 49 too large)

.vector_50      0x9fc01840        0x8
 *(.vector_50)
 .vector_50     0x9fc01840        0x8 /sdd/opt/microchip/xc32/v1.40/bin/bin/../../lib/gcc/pic32mx/4.8.3/../../../../pic32mx/lib/speed/libpic32.a(vector50.o)
                0x9fc01840                __vector_dispatch_50
                0x00000001                ASSERT (((_vector_spacing == 0x0) || (SIZEOF (.vector_50) <= (_vector_spacing << 0x5))), function at exception vector 50 too large)

.vector_51      0x9fc01860        0x8
 *(.vector_51)
 .vector_51     0x9fc01860        0x8 /sdd/opt/microchip/xc32/v1.40/bin/bin/../../lib/gcc/pic32mx/4.8.3/../../../../pic32mx/lib/speed/libpic32.a(vector51.o)
                0x9fc01860                __vector_dispatch_51
                0x00000001                ASSERT (((_vector_spacing == 0x0) || (SIZEOF (.vector_51) <= (_vector_spacing << 0x5))), function at exception vector 51 too large)

.vector_52      0x9fc01880        0x0
 *(.vector_52)
                0x00000001                ASSERT (((_vector_spacing == 0x0) || (SIZEOF (.vector_52) <= (_vector_spacing << 0x5))), function at exception vector 52 too large)

.vector_53      0x9fc018a0        0x0
 *(.vector_53)
                0x00000001                ASSERT (((_vector_spacing == 0x0) || (SIZEOF (.vector_53) <= (_vector_spacing << 0x5))), function at exception vector 53 too large)

.vector_54      0x9fc018c0        0x0
 *(.vector_54)
                0x00000001                ASSERT (((_vector_spacing == 0x0) || (SIZEOF (.vector_54) <= (_vector_spacing << 0x5))), function at exception vector 54 too large)

.vector_55      0x9fc018e0        0x0
 *(.vector_55)
                0x00000001                ASSERT (((_vector_spacing == 0x0) || (SIZEOF (.vector_55) <= (_vector_spacing << 0x5))), function at exception vector 55 too large)

.vector_56      0x9fc01900        0x0
 *(.vector_56)
                0x00000001                ASSERT (((_vector_spacing == 0x0) || (SIZEOF (.vector_56) <= (_vector_spacing << 0x5))), function at exception vector 56 too large)

.vector_57      0x9fc01920        0x0
 *(.vector_57)
                0x00000001                ASSERT (((_vector_spacing == 0x0) || (SIZEOF (.vector_57) <= (_vector_spacing << 0x5))), function at exception vector 57 too large)

.vector_58      0x9fc01940        0x0
 *(.vector_58)
                0x00000001                ASSERT (((_vector_spacing == 0x0) || (SIZEOF (.vector_58) <= (_vector_spacing << 0x5))), function at exception vector 58 too large)

.vector_59      0x9fc01960        0x0
 *(.vector_59)
                0x00000001                ASSERT (((_vector_spacing == 0x0) || (SIZEOF (.vector_59) <= (_vector_spacing << 0x5))), function at exception vector 59 too large)

.vector_60      0x9fc01980        0x0
 *(.vector_60)
                0x00000001                ASSERT (((_vector_spacing == 0x0) || (SIZEOF (.vector_60) <= (_vector_spacing << 0x5))), function at exception vector 60 too large)

.vector_61      0x9fc019a0        0x0
 *(.vector_61)
                0x00000001                ASSERT (((_vector_spacing == 0x0) || (SIZEOF (.vector_61) <= (_vector_spacing << 0x5))), function at exception vector 61 too large)

.vector_62      0x9fc019c0        0x0
 *(.vector_62)
                0x00000001                ASSERT (((_vector_spacing == 0x0) || (SIZEOF (.vector_62) <= (_vector_spacing << 0x5))), function at exception vector 62 too large)

.vector_63      0x9fc019e0        0x0
 *(.vector_63)
                0x00000001                ASSERT (((_vector_spacing == 0x0) || (SIZEOF (.vector_63) <= (_vector_spacing << 0x5))), function at exception vector 63 too large)

.startup
 *(.startup)

.text           0x9d000000        0x0
 *(.stub .gnu.linkonce.t.*)
 *(.text.*personality*)
 *(.mips16.fn.*)
 *(.mips16.call.*)
 *(.gnu.warning)
                0x9d000000                . = ALIGN (0x4)

.init           0x9d000000        0x0
 *crti.o(.init)
 *crtbegin.o(.init)
 *(EXCLUDE_FILE(*crtn.o *crtend?.o *crtend.o) .init)
 *crtend.o(.init)
 *crtn.o(.init)
                0x9d000000                . = ALIGN (0x4)

.fini           0x9d000000        0x0
 *(.fini)
                0x9d000000                . = ALIGN (0x4)

.preinit_array  0x9d000000        0x0
                0x9d000000                PROVIDE (__preinit_array_start, .)
 *(.preinit_array)
                0x9d000000                PROVIDE (__preinit_array_end, .)
                0x9d000000                . = ALIGN (0x4)

.init_array     0x9d000000        0x0
                0x9d000000                PROVIDE (__init_array_start, .)
 *(SORT(.init_array.*))
 *(.init_array)
                0x9d000000                PROVIDE (__init_array_end, .)
                0x9d000000                . = ALIGN (0x4)

.fini_array     0x9d000000        0x0
                0x9d000000                PROVIDE (__fini_array_start, .)
 *(SORT(.fini_array.*))
 *(.fini_array)
                0x9d000000                PROVIDE (__fini_array_end, .)
                0x9d000000                . = ALIGN (0x4)

.ctors          0x9d000000        0x0
 *crtbegin.o(.ctors)
 *crtbegin?.o(.ctors)
 *(EXCLUDE_FILE(*crtend?.o *crtend.o) .ctors)
 *(SORT(.ctors.*))
 *(.ctors)
                0x9d000000                . = ALIGN (0x4)

.dtors          0x9d000000        0x0
 *crtbegin.o(.dtors)
 *crtbegin?.o(.dtors)
 *(EXCLUDE_FILE(*crtend?.o *crtend.o) .dtors)
 *(SORT(.dtors.*))
 *(.dtors)
                0x9d000000                . = ALIGN (0x4)

.rodata         0x9d000000        0x0
 *(.gnu.linkonce.r.*)
 *(.rodata1)
                0x9d000000                . = ALIGN (0x4)

.sdata2         0x9fc00490        0x0
 *(.sdata2 .sdata2.* .gnu.linkonce.s2.*)
                0x9fc00490                . = ALIGN (0x4)

.sbss2          0x9fc00490        0x0
 *(.sbss2 .sbss2.* .gnu.linkonce.sb2.*)
                0x9fc00490                . = ALIGN (0x4)

.eh_frame_hdr
 *(.eh_frame_hdr)
                0x9fc00490                . = ALIGN (0x4)

.eh_frame
 *(.eh_frame)
                0x9fc00490                . = ALIGN (0x4)

.gcc_except_table
 *(.gcc_except_table .gcc_except_table.*)
                0x9fc00490                . = ALIGN (0x4)

.dbg_data       0xa0000000        0x0
                0xa0000000                . = (. + DEFINED (_DEBUGGER)?0x200:0x0)

.jcr            0xa0000000        0x0
 *(.jcr)
                0xa0000000                . = ALIGN (0x4)

.eh_frame
 *(.eh_frame)
                0xa0000000                . = ALIGN (0x4)

.gcc_except_table
 *(.gcc_except_table .gcc_except_table.*)
                0xa0000000                . = ALIGN (0x4)

.persist        0xa0000000        0x0
                0xa0000000                _persist_begin = .
 *(.persist .persist.*)
 *(.pbss .pbss.*)
                0xa0000000                . = ALIGN (0x4)
                0xa0000000                _persist_end = .

.data           0xa0000000        0x0
 *(.gnu.linkonce.d.*)
 *(.data1)
                0xa0000000                . = ALIGN (0x4)
                0xa0000000                . = .
                0xa0007ff0                _gp = (ALIGN (0x10) + 0x7ff0)

.got            0xa0000000        0x0
 *(.got.plt)
 *(.got)
                0xa0000000                . = ALIGN (0x4)

.sdata          0xa0000000       0x38
                0xa0000000                _sdata_begin = .
 *(.sdata .sdata.* .gnu.linkonce.s.*)
 .sdata         0xa0000000        0x4 build/default/production/_ext/1472/BerkeleyTCPClientDemo.o
 .sdata         0xa0000004        0xc build/default/production/_ext/1472/GenericTCPClient.o
 .sdata         0xa0000010        0x2 build/default/production/_ext/1295770447/BerkeleyAPI.o
 *fill*         0xa0000012        0x2 
 .sdata         0xa0000014        0x4 build/default/production/_ext/1295770447/DHCPs.o
                0xa0000014                bDHCPServerEnabled
 .sdata         0xa0000018        0x8 build/default/production/_ext/1295770447/DNS.o
 .sdata         0xa0000020        0x1 build/default/production/_ext/1295770447/DynDNS.o
 *fill*         0xa0000021        0x3 
 .sdata         0xa0000024        0x4 build/default/production/_ext/1295770447/Helpers.o
 .sdata         0xa0000028        0x1 build/default/production/_ext/1295770447/Reboot.o
 .sdata         0xa0000029        0x1 build/default/production/_ext/1295770447/SMTP.o
 .sdata         0xa000002a        0x2 build/default/production/_ext/1295770447/TCP.o
 .sdata         0xa000002c        0x2 build/default/production/_ext/1295770447/TCPPerformanceTest.o
 .sdata         0xa000002e        0x2 build/default/production/_ext/1295770447/UDP.o
 .sdata         0xa0000030        0x4 build/default/production/_ext/1472/MainDemo.o
 .sdata         0xa0000034        0x4 /sdd/opt/microchip/xc32/v1.40/bin/bin/../../lib/gcc/pic32mx/4.8.3/../../../../pic32mx/lib/speed/liblega-c.a(_iobdata.o)
                0xa0000034                _libc_data
                0xa0000038                . = ALIGN (0x4)
                0xa0000038                _sdata_end = .

.lit8
 *(.lit8)

.lit4
 *(.lit4)
                0xa0000038                . = ALIGN (0x4)
                0xa0000038                _data_end = .
                0xa0000038                _bss_begin = .

.sbss           0xa0000038      0x22c
                0xa0000038                _sbss_begin = .
 *(.dynsbss)
 *(.sbss .sbss.* .gnu.linkonce.sb.*)
 .sbss          0xa0000038        0x1 build/default/production/_ext/1472/BerkeleyTCPClientDemo.o
 *fill*         0xa0000039        0x3 
 .sbss          0xa000003c        0x8 build/default/production/_ext/1472/BerkeleyTCPServerDemo.o
 .sbss          0xa0000044       0x18 build/default/production/_ext/1472/BerkeleyUDPClientDemo.o
 .sbss          0xa000005c        0x4 build/default/production/_ext/1472/GenericTCPClient.o
 .sbss          0xa0000060        0x8 build/default/production/_ext/1472/GenericTCPServer.o
 .sbss          0xa0000068        0x8 build/default/production/_ext/1472/PingDemo.o
 .sbss          0xa0000070        0x8 build/default/production/_ext/1472/SMTPDemo.o
 .sbss          0xa0000078        0x8 build/default/production/_ext/1295770447/Announce.o
 .sbss          0xa0000080        0x4 build/default/production/_ext/1295770447/ARP.o
 .sbss          0xa0000084        0x4 build/default/production/_ext/1295770447/BerkeleyAPI.o
 .sbss          0xa0000088        0x4 build/default/production/_ext/1295770447/DHCP.o
                0xa0000088                DHCPClientInitializedOnce
 .sbss          0xa000008c        0xc build/default/production/_ext/1295770447/DHCPs.o
 .sbss          0xa0000098       0x18 build/default/production/_ext/1295770447/DNS.o
 .sbss          0xa00000b0       0x24 build/default/production/_ext/1295770447/DynDNS.o
 .sbss          0xa00000d4       0x40 build/default/production/_ext/1295770447/ETHPIC32IntMac.o
                0xa0000100                _stackMgrRxOkPkts
                0xa0000104                _stackMgrRxBadPkts
                0xa0000108                _stackMgrInGetHdr
                0xa000010c                _stackMgrRxDiscarded
                0xa0000110                _stackMgrTxNotReady
 .sbss          0xa0000114       0x10 build/default/production/_ext/1295770447/ICMP.o
 .sbss          0xa0000124        0x4 build/default/production/_ext/1295770447/IP.o
 .sbss          0xa0000128        0x8 build/default/production/_ext/1295770447/MPFS2.o
 .sbss          0xa0000130        0x8 build/default/production/_ext/1295770447/NBNS.o
 .sbss          0xa0000138       0x34 build/default/production/_ext/1295770447/SMTP.o
 .sbss          0xa000016c       0x14 build/default/production/_ext/1295770447/SNTP.o
 .sbss          0xa0000180        0x8 build/default/production/_ext/1295770447/StackTsk.o
 .sbss          0xa0000188        0x2 build/default/production/_ext/1295770447/TCP.o
 *fill*         0xa000018a        0x2 
 .sbss          0xa000018c       0x14 build/default/production/_ext/1295770447/TCPPerformanceTest.o
 .sbss          0xa00001a0        0xc build/default/production/_ext/1295770447/Telnet.o
 .sbss          0xa00001ac        0xc build/default/production/_ext/1295770447/Tick.o
 .sbss          0xa00001b8        0x8 build/default/production/_ext/1295770447/UDP.o
 .sbss          0xa00001c0       0x34 build/default/production/_ext/1472/CustomHTTPApp.o
 .sbss          0xa00001f4        0xc build/default/production/_ext/1472/MainDemo.o
 .sbss          0xa0000200       0x20 build/default/production/_ext/1472/mbmc.o
                0xa0000200                TIi
                0xa0000204                MIi
                0xa0000208                HRi
                0xa000020c                time_outs
                0xa0000210                crc_errors
 .sbss          0xa0000220        0x4 /sdd/opt/microchip/xc32/v1.40/bin/bin/../../lib/gcc/pic32mx/4.8.3/../../../../pic32mx/lib/speed/liblega-c.a(errno.o)
                0xa0000220                errno
 *(.scommon)
 .scommon       0xa0000224        0x4 build/default/production/_ext/1295770447/ETHPIC32ExtPhy.o
                0xa0000224                _PhyAdd
 .scommon       0xa0000228        0x1 build/default/production/_ext/1295770447/HTTP2.o
                0xa0000228                curHTTPID
 *fill*         0xa0000229        0x1 
 .scommon       0xa000022a        0x5 build/default/production/_ext/1295770447/UDP.o
                0xa000022a                UDPRxCount
                0xa000022c                UDPTxCount
                0xa000022e                activeUDPSocket
 *fill*         0xa000022f        0x1 
 .scommon       0xa0000230        0x8 build/default/production/_ext/1472/MainDemo.o
                0xa0000230                AN0String
 .scommon       0xa0000238       0x29 build/default/production/_ext/1472/mbmc.o
                0xa0000238                TOTEFF
                0xa000023c                alarms
                0xa0000240                dd
                0xa0000244                PVEFF
                0xa0000248                mbmctime
                0xa000024c                mbmccmd
                0xa0000250                mbmc_crc
                0xa0000252                Head
                0xa0000254                CCEFF
                0xa0000258                ltime
                0xa000025c                utc_time
                0xa0000260                Tail
                0xa0000261                _sbss_end = .
                0xa0000264                . = ALIGN (0x4)
 *fill*         0xa0000261        0x3 

.bss            0xa0000264     0x3f6c
 *(.dynbss)
 *(COMMON)
 COMMON         0xa0000264       0x20 build/default/production/_ext/1295770447/DynDNS.o
                0xa0000264                DDNSClient
 COMMON         0xa0000284       0x40 build/default/production/_ext/1295770447/Hashes.o
                0xa0000284                lastBlock
 COMMON         0xa00002c4      0x138 build/default/production/_ext/1295770447/HTTP2.o
                0xa00002c4                curHTTP
                0xa00003ec                httpStubs
 COMMON         0xa00003fc       0x2c build/default/production/_ext/1295770447/SMTP.o
                0xa00003fc                SMTPClient
 COMMON         0xa0000428        0xa build/default/production/_ext/1295770447/StackTsk.o
                0xa0000428                remoteNode
 *fill*         0xa0000432        0x2 
 COMMON         0xa0000434       0x8c build/default/production/_ext/1295770447/UDP.o
                0xa0000434                UDPSocketInfo
 COMMON         0xa00004c0       0x33 build/default/production/_ext/1472/MainDemo.o
                0xa00004c0                AppConfig
 *fill*         0xa00004f3        0x1 
 COMMON         0xa00004f4     0x3cdc build/default/production/_ext/1472/mbmc.o
                0xa00004f4                mbmc_buffer
                0xa0000588                sdc0
                0xa0000600                cbuf
                0xa0000680                chart
                0xa0003e50                mbmcflag
                0xa0003e78                hoststat
                0xa0003e94                remote_daq
                0xa0003ec4                cell
                0xa0003f8c                hist
                0xa00041d0                . = ALIGN ((. != 0x0)?0x4:0x1)
                0xa00041d0                . = ALIGN (0x4)
                0xa00041d0                _end = .
                0xa00041d0                _bss_end = .
                0x00020000                _bmxdudba_address = 0x20000
                0x00020000                _bmxdupba_address = 0x20000

/DISCARD/
 *(.pdr)
 *(.rel.dyn)
 *(.note.GNU-stack)
 *(.note.GNU-stack)
 *(.gnu_debuglink)
 *(.gnu.lto_*)
 *(.discard)

.gptab.sdata
 *(.gptab.data)
 *(.gptab.sdata)

.gptab.sbss
 *(.gptab.bss)
 *(.gptab.sbss)

.mdebug.abi32   0xa00041d0        0x0
 *(.mdebug.abi32)
 .mdebug.abi32  0xa00041d0        0x0 build/default/production/_ext/1472/BerkeleyTCPClientDemo.o
 .mdebug.abi32  0xa00041d0        0x0 build/default/production/_ext/1472/BerkeleyTCPServerDemo.o
 .mdebug.abi32  0xa00041d0        0x0 build/default/production/_ext/1472/BerkeleyUDPClientDemo.o
 .mdebug.abi32  0xa00041d0        0x0 build/default/production/_ext/1472/GenericTCPClient.o
 .mdebug.abi32  0xa00041d0        0x0 build/default/production/_ext/1472/GenericTCPServer.o
 .mdebug.abi32  0xa00041d0        0x0 build/default/production/_ext/1472/LegacyHTTPApp.o
 .mdebug.abi32  0xa00041d0        0x0 build/default/production/_ext/1472/PingDemo.o
 .mdebug.abi32  0xa00041d0        0x0 build/default/production/_ext/1472/SMTPDemo.o
 .mdebug.abi32  0xa00041d0        0x0 build/default/production/_ext/1472/UARTConfig.o
 .mdebug.abi32  0xa00041d0        0x0 build/default/production/_ext/1295770447/Announce.o
 .mdebug.abi32  0xa00041d0        0x0 build/default/production/_ext/1295770447/ARCFOUR.o
 .mdebug.abi32  0xa00041d0        0x0 build/default/production/_ext/1295770447/ARP.o
 .mdebug.abi32  0xa00041d0        0x0 build/default/production/_ext/1295770447/AutoIP.o
 .mdebug.abi32  0xa00041d0        0x0 build/default/production/_ext/1295770447/BerkeleyAPI.o
 .mdebug.abi32  0xa00041d0        0x0 build/default/production/_ext/1295770447/BigInt.o
 .mdebug.abi32  0xa00041d0        0x0 build/default/production/_ext/1295770447/Delay.o
 .mdebug.abi32  0xa00041d0        0x0 build/default/production/_ext/1295770447/DHCP.o
 .mdebug.abi32  0xa00041d0        0x0 build/default/production/_ext/1295770447/DHCPs.o
 .mdebug.abi32  0xa00041d0        0x0 build/default/production/_ext/1295770447/DNS.o
 .mdebug.abi32  0xa00041d0        0x0 build/default/production/_ext/1295770447/DNSs.o
 .mdebug.abi32  0xa00041d0        0x0 build/default/production/_ext/1295770447/DynDNS.o
 .mdebug.abi32  0xa00041d0        0x0 build/default/production/_ext/1295770447/ENC28J60.o
 .mdebug.abi32  0xa00041d0        0x0 build/default/production/_ext/1295770447/ENCX24J600.o
 .mdebug.abi32  0xa00041d0        0x0 build/default/production/_ext/1295770447/ETHPIC32ExtPhy.o
 .mdebug.abi32  0xa00041d0        0x0 build/default/production/_ext/1295770447/ETHPIC32ExtPhyDP83848.o
 .mdebug.abi32  0xa00041d0        0x0 build/default/production/_ext/1295770447/ETHPIC32IntMac.o
 .mdebug.abi32  0xa00041d0        0x0 build/default/production/_ext/1295770447/FileSystem.o
 .mdebug.abi32  0xa00041d0        0x0 build/default/production/_ext/1295770447/FTP.o
 .mdebug.abi32  0xa00041d0        0x0 build/default/production/_ext/1295770447/Hashes.o
 .mdebug.abi32  0xa00041d0        0x0 build/default/production/_ext/1295770447/Helpers.o
 .mdebug.abi32  0xa00041d0        0x0 build/default/production/_ext/1295770447/HTTP2.o
 .mdebug.abi32  0xa00041d0        0x0 build/default/production/_ext/1295770447/HTTP.o
 .mdebug.abi32  0xa00041d0        0x0 build/default/production/_ext/1295770447/ICMP.o
 .mdebug.abi32  0xa00041d0        0x0 build/default/production/_ext/1295770447/IP.o
 .mdebug.abi32  0xa00041d0        0x0 build/default/production/_ext/1295770447/LCDBlocking.o
 .mdebug.abi32  0xa00041d0        0x0 build/default/production/_ext/1295770447/MPFS2.o
 .mdebug.abi32  0xa00041d0        0x0 build/default/production/_ext/1295770447/MPFS.o
 .mdebug.abi32  0xa00041d0        0x0 build/default/production/_ext/1295770447/NBNS.o
 .mdebug.abi32  0xa00041d0        0x0 build/default/production/_ext/1295770447/Random.o
 .mdebug.abi32  0xa00041d0        0x0 build/default/production/_ext/1295770447/Reboot.o
 .mdebug.abi32  0xa00041d0        0x0 build/default/production/_ext/1295770447/RSA.o
 .mdebug.abi32  0xa00041d0        0x0 build/default/production/_ext/1295770447/SMTP.o
 .mdebug.abi32  0xa00041d0        0x0 build/default/production/_ext/1295770447/SNMP.o
 .mdebug.abi32  0xa00041d0        0x0 build/default/production/_ext/1295770447/SNMPv3.o
 .mdebug.abi32  0xa00041d0        0x0 build/default/production/_ext/1295770447/SNMPv3USM.o
 .mdebug.abi32  0xa00041d0        0x0 build/default/production/_ext/1295770447/SNTP.o
 .mdebug.abi32  0xa00041d0        0x0 build/default/production/_ext/1295770447/SPIEEPROM.o
 .mdebug.abi32  0xa00041d0        0x0 build/default/production/_ext/1295770447/SPIFlash.o
 .mdebug.abi32  0xa00041d0        0x0 build/default/production/_ext/1295770447/SPIRAM.o
 .mdebug.abi32  0xa00041d0        0x0 build/default/production/_ext/1295770447/SSL.o
 .mdebug.abi32  0xa00041d0        0x0 build/default/production/_ext/1295770447/StackTsk.o
 .mdebug.abi32  0xa00041d0        0x0 build/default/production/_ext/1295770447/TCP.o
 .mdebug.abi32  0xa00041d0        0x0 build/default/production/_ext/1295770447/TCPPerformanceTest.o
 .mdebug.abi32  0xa00041d0        0x0 build/default/production/_ext/1295770447/Telnet.o
 .mdebug.abi32  0xa00041d0        0x0 build/default/production/_ext/1295770447/TFTPc.o
 .mdebug.abi32  0xa00041d0        0x0 build/default/production/_ext/1295770447/Tick.o
 .mdebug.abi32  0xa00041d0        0x0 build/default/production/_ext/1295770447/UART2TCPBridge.o
 .mdebug.abi32  0xa00041d0        0x0 build/default/production/_ext/1295770447/UART.o
 .mdebug.abi32  0xa00041d0        0x0 build/default/production/_ext/1295770447/UDP.o
 .mdebug.abi32  0xa00041d0        0x0 build/default/production/_ext/1295770447/UDPPerformanceTest.o
 .mdebug.abi32  0xa00041d0        0x0 build/default/production/_ext/1295770447/ZeroconfHelper.o
 .mdebug.abi32  0xa00041d0        0x0 build/default/production/_ext/1295770447/ZeroconfLinkLocal.o
 .mdebug.abi32  0xa00041d0        0x0 build/default/production/_ext/1295770447/ZeroconfMulticastDNS.o
 .mdebug.abi32  0xa00041d0        0x0 build/default/production/_ext/1472/MPFSImg2.o
 .mdebug.abi32  0xa00041d0        0x0 build/default/production/_ext/1472/MPFSImg.o
 .mdebug.abi32  0xa00041d0        0x0 build/default/production/_ext/1472/CustomHTTPApp.o
 .mdebug.abi32  0xa00041d0        0x0 build/default/production/_ext/1472/CustomSNMPApp.o
 .mdebug.abi32  0xa00041d0        0x0 build/default/production/_ext/1472/CustomSSLCert.o
 .mdebug.abi32  0xa00041d0        0x0 build/default/production/_ext/1472/MainDemo.o
 .mdebug.abi32  0xa00041d0        0x0 build/default/production/_ext/1472/mbmc.o
 .mdebug.abi32  0xa00041d0        0x0 build/default/production/_ext/1472/crc8_fast.o
 .mdebug.abi32  0xa00041d0        0x0 /sdd/opt/microchip/xc32/v1.40/bin/bin/../../lib/gcc/pic32mx/4.8.3/../../../../pic32mx/lib/speed/libmchp_peripheral.a(read_core_timer_lib.o)
 .mdebug.abi32  0xa00041d0        0x0 /sdd/opt/microchip/xc32/v1.40/bin/bin/../../lib/gcc/pic32mx/4.8.3/../../../../pic32mx/lib/speed/libmchp_peripheral_32MX795F512L.a(eth_ack_packet_lib.o)
 .mdebug.abi32  0xa00041d0        0x0 /sdd/opt/microchip/xc32/v1.40/bin/bin/../../lib/gcc/pic32mx/4.8.3/../../../../pic32mx/lib/speed/libmchp_peripheral_32MX795F512L.a(eth_descriptors_add_lib.o)
 .mdebug.abi32  0xa00041d0        0x0 /sdd/opt/microchip/xc32/v1.40/bin/bin/../../lib/gcc/pic32mx/4.8.3/../../../../pic32mx/lib/speed/libmchp_peripheral_32MX795F512L.a(eth_init_lib.o)
 .mdebug.abi32  0xa00041d0        0x0 /sdd/opt/microchip/xc32/v1.40/bin/bin/../../lib/gcc/pic32mx/4.8.3/../../../../pic32mx/lib/speed/libmchp_peripheral_32MX795F512L.a(eth_mac_open_lib.o)
 .mdebug.abi32  0xa00041d0        0x0 /sdd/opt/microchip/xc32/v1.40/bin/bin/../../lib/gcc/pic32mx/4.8.3/../../../../pic32mx/lib/speed/libmchp_peripheral_32MX795F512L.a(eth_mac_set_address_max_lib.o)
 .mdebug.abi32  0xa00041d0        0x0 /sdd/opt/microchip/xc32/v1.40/bin/bin/../../lib/gcc/pic32mx/4.8.3/../../../../pic32mx/lib/speed/libmchp_peripheral_32MX795F512L.a(eth_rx_buffers_append_lib.o)
 .mdebug.abi32  0xa00041d0        0x0 /sdd/opt/microchip/xc32/v1.40/bin/bin/../../lib/gcc/pic32mx/4.8.3/../../../../pic32mx/lib/speed/libmchp_peripheral_32MX795F512L.a(eth_rx_filters_lib.o)
 .mdebug.abi32  0xa00041d0        0x0 /sdd/opt/microchip/xc32/v1.40/bin/bin/../../lib/gcc/pic32mx/4.8.3/../../../../pic32mx/lib/speed/libmchp_peripheral_32MX795F512L.a(eth_rx_get_packet_lib.o)
 .mdebug.abi32  0xa00041d0        0x0 /sdd/opt/microchip/xc32/v1.40/bin/bin/../../lib/gcc/pic32mx/4.8.3/../../../../pic32mx/lib/speed/libmchp_peripheral_32MX795F512L.a(eth_rx_set_buffer_size_lib.o)
 .mdebug.abi32  0xa00041d0        0x0 /sdd/opt/microchip/xc32/v1.40/bin/bin/../../lib/gcc/pic32mx/4.8.3/../../../../pic32mx/lib/speed/libmchp_peripheral_32MX795F512L.a(eth_tx_packet_lib.o)
 .mdebug.abi32  0xa00041d0        0x0 /sdd/opt/microchip/xc32/v1.40/bin/bin/../../lib/gcc/pic32mx/4.8.3/../../../../pic32mx/lib/speed/libmchp_peripheral_32MX795F512L.a(_eth_append_busy_list_lib.o)
 .mdebug.abi32  0xa00041d0        0x0 /sdd/opt/microchip/xc32/v1.40/bin/bin/../../lib/gcc/pic32mx/4.8.3/../../../../pic32mx/lib/speed/libmchp_peripheral_32MX795F512L.a(eth_miim_access.o)
 .mdebug.abi32  0xa00041d0        0x0 /sdd/opt/microchip/xc32/v1.40/bin/bin/../../lib/gcc/pic32mx/4.8.3/../../../../pic32mx/lib/speed/libmchp_peripheral_32MX795F512L.a(soft_reset_lib.o)
 .mdebug.abi32  0xa00041d0        0x0 /sdd/opt/microchip/xc32/v1.40/bin/bin/../../lib/gcc/pic32mx/4.8.3/../../../../pic32mx/lib/speed/libmchp_peripheral_32MX795F512L.a(pcache.o)
 .mdebug.abi32  0xa00041d0        0x0 /sdd/opt/microchip/xc32/v1.40/bin/bin/../../lib/gcc/pic32mx/4.8.3/../../../../pic32mx/lib/speed/libmchp_peripheral_32MX795F512L.a(int_disable_interrupts_lib.o)
 .mdebug.abi32  0xa00041d0        0x0 /sdd/opt/microchip/xc32/v1.40/bin/bin/../../lib/gcc/pic32mx/4.8.3/../../../../pic32mx/lib/speed/libmchp_peripheral_32MX795F512L.a(int_restore_interrupts_lib.o)
 .mdebug.abi32  0xa00041d0        0x0 /sdd/opt/microchip/xc32/v1.40/bin/bin/../../lib/gcc/pic32mx/4.8.3/../../../../pic32mx/lib/speed/libmchp_peripheral_32MX795F512L.a(int_enable_mv_int_lib.o)
 .mdebug.abi32  0xa00041d0        0x0 /sdd/opt/microchip/xc32/v1.40/bin/bin/../../lib/gcc/pic32mx/4.8.3/../../../../pic32mx/lib/speed/libmchp_peripheral_32MX795F512L.a(int_tbl_lib.o)
 .mdebug.abi32  0xa00041d0        0x0 /sdd/opt/microchip/xc32/v1.40/bin/bin/../../lib/gcc/pic32mx/4.8.3/../../../../pic32mx/lib/speed/libmchp_peripheral_32MX795F512L.a(port_set_pins_digital_in_lib.o)
 .mdebug.abi32  0xa00041d0        0x0 /sdd/opt/microchip/xc32/v1.40/bin/bin/../../lib/gcc/pic32mx/4.8.3/../../../../pic32mx/lib/speed/libmchp_peripheral_32MX795F512L.a(port_set_pins_digital_out_lib.o)
 .mdebug.abi32  0xa00041d0        0x0 /sdd/opt/microchip/xc32/v1.40/bin/bin/../../lib/gcc/pic32mx/4.8.3/../../../../pic32mx/lib/speed/libmchp_peripheral_32MX795F512L.a(_ports_tbl_libp.o)
 .mdebug.abi32  0xa00041d0        0x0 /sdd/opt/microchip/xc32/v1.40/bin/bin/../../lib/gcc/pic32mx/4.8.3/../../../../pic32mx/lib/speed/libmchp_peripheral_32MX795F512L.a(uart_lib.o)
 .mdebug.abi32  0xa00041d0        0x0 /sdd/opt/microchip/xc32/v1.40/bin/bin/../../lib/gcc/pic32mx/4.8.3/../../../../pic32mx/lib/speed/libmchp_peripheral_32MX795F512L.a(int_enable_interrupts_lib.o)
 .mdebug.abi32  0xa00041d0        0x0 /sdd/opt/microchip/xc32/v1.40/bin/bin/../../lib/gcc/pic32mx/4.8.3/speed/libgcc.a(_udivdi3.o)
 .mdebug.abi32  0xa00041d0        0x0 /sdd/opt/microchip/xc32/v1.40/bin/bin/../../lib/gcc/pic32mx/4.8.3/speed/libgcc.a(floatunsisf.o)
 .mdebug.abi32  0xa00041d0        0x0 /sdd/opt/microchip/xc32/v1.40/bin/bin/../../lib/gcc/pic32mx/4.8.3/../../../../pic32mx/lib/speed/libpic32.a(default-bootstrap-exception-handler.o)
 .mdebug.abi32  0xa00041d0        0x0 /sdd/opt/microchip/xc32/v1.40/bin/bin/../../lib/gcc/pic32mx/4.8.3/../../../../pic32mx/lib/speed/libpic32.a(default-on-reset.o)
 .mdebug.abi32  0xa00041d0        0x0 /sdd/opt/microchip/xc32/v1.40/bin/bin/../../lib/gcc/pic32mx/4.8.3/../../../../pic32mx/lib/speed/libpic32.a(default-on-bootstrap.o)
 .mdebug.abi32  0xa00041d0        0x0 /sdd/opt/microchip/xc32/v1.40/bin/bin/../../lib/gcc/pic32mx/4.8.3/../../../../pic32mx/lib/speed/libpic32.a(defaultinterrupt.o)
 .mdebug.abi32  0xa00041d0        0x0 /sdd/opt/microchip/xc32/v1.40/bin/bin/../../lib/gcc/pic32mx/4.8.3/../../../../pic32mx/lib/speed/liblega-c.a(strcat.o)
 .mdebug.abi32  0xa00041d0        0x0 /sdd/opt/microchip/xc32/v1.40/bin/bin/../../lib/gcc/pic32mx/4.8.3/../../../../pic32mx/lib/speed/liblega-c.a(strncat.o)
 .mdebug.abi32  0xa00041d0        0x0 /sdd/opt/microchip/xc32/v1.40/bin/bin/../../lib/gcc/pic32mx/4.8.3/../../../../pic32mx/lib/speed/liblega-c.a(strchr.o)
 .mdebug.abi32  0xa00041d0        0x0 /sdd/opt/microchip/xc32/v1.40/bin/bin/../../lib/gcc/pic32mx/4.8.3/../../../../pic32mx/lib/speed/liblega-c.a(strstr.o)
 .mdebug.abi32  0xa00041d0        0x0 /sdd/opt/microchip/xc32/v1.40/bin/bin/../../lib/gcc/pic32mx/4.8.3/../../../../pic32mx/lib/speed/liblega-c.a(malloc_calloc.o)
 .mdebug.abi32  0xa00041d0        0x0 /sdd/opt/microchip/xc32/v1.40/bin/bin/../../lib/gcc/pic32mx/4.8.3/../../../../pic32mx/lib/speed/liblega-c.a(strtol.o)
 .mdebug.abi32  0xa00041d0        0x0 /sdd/opt/microchip/xc32/v1.40/bin/bin/../../lib/gcc/pic32mx/4.8.3/../../../../pic32mx/lib/speed/liblega-c.a(sprintf.o)
 .mdebug.abi32  0xa00041d0        0x0 /sdd/opt/microchip/xc32/v1.40/bin/bin/../../lib/gcc/pic32mx/4.8.3/../../../../pic32mx/lib/speed/liblega-c.a(sscanf.o)
 .mdebug.abi32  0xa00041d0        0x0 /sdd/opt/microchip/xc32/v1.40/bin/bin/../../lib/gcc/pic32mx/4.8.3/../../../../pic32mx/lib/speed/liblega-c.a(vsscanf.o)
 .mdebug.abi32  0xa00041d0        0x0 /sdd/opt/microchip/xc32/v1.40/bin/bin/../../lib/gcc/pic32mx/4.8.3/../../../../pic32mx/lib/speed/liblega-c.a(__vsnprintf.o)
 .mdebug.abi32  0xa00041d0        0x0 /sdd/opt/microchip/xc32/v1.40/bin/bin/../../lib/gcc/pic32mx/4.8.3/../../../../pic32mx/lib/speed/liblega-c.a(gmtime.o)
 .mdebug.abi32  0xa00041d0        0x0 /sdd/opt/microchip/xc32/v1.40/bin/bin/../../lib/gcc/pic32mx/4.8.3/../../../../pic32mx/lib/speed/liblega-c.a(offtime.o)
 .mdebug.abi32  0xa00041d0        0x0 /sdd/opt/microchip/xc32/v1.40/bin/bin/../../lib/gcc/pic32mx/4.8.3/../../../../pic32mx/lib/speed/liblega-c.a(asctime.o)
 .mdebug.abi32  0xa00041d0        0x0 /sdd/opt/microchip/xc32/v1.40/bin/bin/../../lib/gcc/pic32mx/4.8.3/../../../../pic32mx/lib/speed/liblega-c.a(stubs.o)
 .mdebug.abi32  0xa00041d0        0x0 /sdd/opt/microchip/xc32/v1.40/bin/bin/../../lib/gcc/pic32mx/4.8.3/../../../../pic32mx/lib/speed/liblega-c.a(ctype.o)
 .mdebug.abi32  0xa00041d0        0x0 /sdd/opt/microchip/xc32/v1.40/bin/bin/../../lib/gcc/pic32mx/4.8.3/../../../../pic32mx/lib/speed/liblega-c.a(malloc.o)
 .mdebug.abi32  0xa00041d0        0x0 /sdd/opt/microchip/xc32/v1.40/bin/bin/../../lib/gcc/pic32mx/4.8.3/../../../../pic32mx/lib/speed/liblega-c.a(errno.o)
 .mdebug.abi32  0xa00041d0        0x0 /sdd/opt/microchip/xc32/v1.40/bin/bin/../../lib/gcc/pic32mx/4.8.3/../../../../pic32mx/lib/speed/liblega-c.a(_doprnt.o)
 .mdebug.abi32  0xa00041d0        0x0 /sdd/opt/microchip/xc32/v1.40/bin/bin/../../lib/gcc/pic32mx/4.8.3/../../../../pic32mx/lib/speed/liblega-c.a(_doscan.o)
 .mdebug.abi32  0xa00041d0        0x0 /sdd/opt/microchip/xc32/v1.40/bin/bin/../../lib/gcc/pic32mx/4.8.3/../../../../pic32mx/lib/speed/liblega-c.a(_iobdata.o)
 .mdebug.abi32  0xa00041d0        0x0 /sdd/opt/microchip/xc32/v1.40/bin/bin/../../lib/gcc/pic32mx/4.8.3/../../../../pic32mx/lib/speed/liblega-c.a(_iobfuncs.o)
 .mdebug.abi32  0xa00041d0        0x0 /sdd/opt/microchip/xc32/v1.40/bin/bin/../../lib/gcc/pic32mx/4.8.3/../../../../pic32mx/lib/speed/liblega-c.a(_iobstring.o)
 .mdebug.abi32  0xa00041d0        0x0 /sdd/opt/microchip/xc32/v1.40/bin/bin/../../lib/gcc/pic32mx/4.8.3/../../../../pic32mx/lib/speed/liblega-c.a(fgetc.o)
 .mdebug.abi32  0xa00041d0        0x0 /sdd/opt/microchip/xc32/v1.40/bin/bin/../../lib/gcc/pic32mx/4.8.3/../../../../pic32mx/lib/speed/liblega-c.a(fputc.o)
 .mdebug.abi32  0xa00041d0        0x0 /sdd/opt/microchip/xc32/v1.40/bin/bin/../../lib/gcc/pic32mx/4.8.3/../../../../pic32mx/lib/speed/liblega-c.a(ungetc.o)
 .mdebug.abi32  0xa00041d0        0x0 /sdd/opt/microchip/xc32/v1.40/bin/bin/../../lib/gcc/pic32mx/4.8.3/../../../../pic32mx/lib/speed/liblega-c.a(sbrk.o)
 .mdebug.abi32  0xa00041d0        0x0 /sdd/opt/microchip/xc32/v1.40/bin/bin/../../lib/gcc/pic32mx/4.8.3/../../../../pic32mx/lib/speed/liblega-c.a(_mon_getc.o)
 .mdebug.abi32  0xa00041d0        0x0 /sdd/opt/microchip/xc32/v1.40/bin/bin/../../lib/gcc/pic32mx/4.8.3/../../../../pic32mx/lib/speed/liblega-c.a(_mon_write.o)
 .mdebug.abi32  0xa00041d0        0x0 /sdd/opt/microchip/xc32/v1.40/bin/bin/../../lib/gcc/pic32mx/4.8.3/../../../../pic32mx/lib/speed/liblega-c.a(malloc_realloc.o)
 .mdebug.abi32  0xa00041d0        0x0 /sdd/opt/microchip/xc32/v1.40/bin/bin/../../lib/gcc/pic32mx/4.8.3/../../../../pic32mx/lib/speed/liblega-c.a(strtoul.o)
 .mdebug.abi32  0xa00041d0        0x0 /sdd/opt/microchip/xc32/v1.40/bin/bin/../../lib/gcc/pic32mx/4.8.3/../../../../pic32mx/lib/speed/liblega-c.a(strtoll.o)
 .mdebug.abi32  0xa00041d0        0x0 /sdd/opt/microchip/xc32/v1.40/bin/bin/../../lib/gcc/pic32mx/4.8.3/../../../../pic32mx/lib/speed/liblega-c.a(strtoull.o)
 .mdebug.abi32  0xa00041d0        0x0 /sdd/opt/microchip/xc32/v1.40/bin/bin/../../lib/gcc/pic32mx/4.8.3/../../../../pic32mx/lib/speed/liblega-c.a(strtod.o)
 .mdebug.abi32  0xa00041d0        0x0 /sdd/opt/microchip/xc32/v1.40/bin/bin/../../lib/gcc/pic32mx/4.8.3/../../../../pic32mx/lib/speed/liblega-c.a(strtof.o)
 .mdebug.abi32  0xa00041d0        0x0 /sdd/opt/microchip/xc32/v1.40/bin/bin/../../lib/gcc/pic32mx/4.8.3/../../../../pic32mx/lib/speed/liblega-c.a(fullexit.o)
 .mdebug.abi32  0xa00041d0        0x0 /sdd/opt/microchip/xc32/v1.40/bin/bin/../../lib/gcc/pic32mx/4.8.3/../../../../pic32mx/lib/speed/liblega-c.a(_ioinit.o)
 .mdebug.abi32  0xa00041d0        0x0 /sdd/opt/microchip/xc32/v1.40/bin/bin/../../lib/gcc/pic32mx/4.8.3/../../../../pic32mx/lib/speed/liblega-c.a(_cleanup.o)
 .mdebug.abi32  0xa00041d0        0x0 /sdd/opt/microchip/xc32/v1.40/bin/bin/../../lib/gcc/pic32mx/4.8.3/../../../../pic32mx/lib/speed/liblega-c.a(_exit.o)
 .mdebug.abi32  0xa00041d0        0x0 /sdd/opt/microchip/xc32/v1.40/bin/bin/../../lib/gcc/pic32mx/4.8.3/../../../../pic32mx/lib/speed/liblega-c.a(isatty.o)
 .mdebug.abi32  0xa00041d0        0x0 /sdd/opt/microchip/xc32/v1.40/bin/bin/../../lib/gcc/pic32mx/4.8.3/../../../../pic32mx/lib/speed/liblega-c.a(_mon_putc.o)
 .mdebug.abi32  0xa00041d0        0x0 /sdd/opt/microchip/xc32/v1.40/bin/bin/../../lib/gcc/pic32mx/4.8.3/../../../../pic32mx/lib/speed/liblega-c.a(memmove.o)
 .mdebug.abi32  0xa00041d0        0x0 /sdd/opt/microchip/xc32/v1.40/bin/bin/../../lib/gcc/pic32mx/4.8.3/../../../../pic32mx/lib/speed/liblega-c.a(_bufproc.o)
 .mdebug.abi32  0xa00041d0        0x0 /sdd/opt/microchip/xc32/v1.40/bin/bin/../../lib/gcc/pic32mx/4.8.3/../../../../pic32mx/lib/speed/libm.a(__strtod.o)
 .mdebug.abi32  0xa00041d0        0x0 /sdd/opt/microchip/xc32/v1.40/bin/bin/../../lib/gcc/pic32mx/4.8.3/../../../../pic32mx/lib/speed/libm.a(__strtof.o)
 .mdebug.abi32  0xa00041d0        0x0 /sdd/opt/microchip/xc32/v1.40/bin/bin/../../lib/gcc/pic32mx/4.8.3/../../../../pic32mx/lib/speed/libe.a(_ldexp.o)
 .mdebug.abi32  0xa00041d0        0x0 /sdd/opt/microchip/xc32/v1.40/bin/bin/../../lib/gcc/pic32mx/4.8.3/../../../../pic32mx/lib/speed/libe.a(_ldexpf.o)
 .mdebug.abi32  0xa00041d0        0x0 /sdd/opt/microchip/xc32/v1.40/bin/bin/../../lib/gcc/pic32mx/4.8.3/speed/libgcc.a(_lshrdi3.o)
 .mdebug.abi32  0xa00041d0        0x0 /sdd/opt/microchip/xc32/v1.40/bin/bin/../../lib/gcc/pic32mx/4.8.3/speed/libgcc.a(_ashldi3.o)
 .mdebug.abi32  0xa00041d0        0x0 /sdd/opt/microchip/xc32/v1.40/bin/bin/../../lib/gcc/pic32mx/4.8.3/speed/libgcc.a(_divdi3.o)
 .mdebug.abi32  0xa00041d0        0x0 /sdd/opt/microchip/xc32/v1.40/bin/bin/../../lib/gcc/pic32mx/4.8.3/speed/libgcc.a(_umoddi3.o)

.mdebug.abiN32
 *(.mdebug.abiN32)

.mdebug.abi64
 *(.mdebug.abi64)

.mdebug.abiO64
 *(.mdebug.abiO64)

.mdebug.eabi32
 *(.mdebug.eabi32)

.mdebug.eabi64
 *(.mdebug.eabi64)

.gcc_compiled_long32
 *(.gcc_compiled_long32)

.gcc_compiled_long64
 *(.gcc_compiled_long64)

.stab
 *(.stab)

.stabstr
 *(.stabstr)

.stab.excl
 *(.stab.excl)

.stab.exclstr
 *(.stab.exclstr)

.stab.index
 *(.stab.index)

.stab.indexstr
 *(.stab.indexstr)

.comment        0x00000000      0xc92
 *(.comment)
 .comment       0x00000000       0x3c build/default/production/_ext/1472/BerkeleyTCPClientDemo.o
                                 0x3d (size before relaxing)
 .comment       0x00000000       0x3d build/default/production/_ext/1472/BerkeleyTCPServerDemo.o
 .comment       0x00000000       0x3d build/default/production/_ext/1472/BerkeleyUDPClientDemo.o
 .comment       0x00000000       0x3d build/default/production/_ext/1472/GenericTCPClient.o
 .comment       0x00000000       0x3d build/default/production/_ext/1472/GenericTCPServer.o
 .comment       0x00000000       0x3d build/default/production/_ext/1472/LegacyHTTPApp.o
 .comment       0x00000000       0x3d build/default/production/_ext/1472/PingDemo.o
 .comment       0x00000000       0x3d build/default/production/_ext/1472/SMTPDemo.o
 .comment       0x00000000       0x3d build/default/production/_ext/1472/UARTConfig.o
 .comment       0x00000000       0x3d build/default/production/_ext/1295770447/Announce.o
 .comment       0x00000000       0x3d build/default/production/_ext/1295770447/ARCFOUR.o
 .comment       0x00000000       0x3d build/default/production/_ext/1295770447/ARP.o
 .comment       0x00000000       0x3d build/default/production/_ext/1295770447/AutoIP.o
 .comment       0x00000000       0x3d build/default/production/_ext/1295770447/BerkeleyAPI.o
 .comment       0x00000000       0x3d build/default/production/_ext/1295770447/BigInt.o
 .comment       0x00000000       0x3d build/default/production/_ext/1295770447/Delay.o
 .comment       0x00000000       0x3d build/default/production/_ext/1295770447/DHCP.o
 .comment       0x00000000       0x3d build/default/production/_ext/1295770447/DHCPs.o
 .comment       0x00000000       0x3d build/default/production/_ext/1295770447/DNS.o
 .comment       0x00000000       0x3d build/default/production/_ext/1295770447/DNSs.o
 .comment       0x00000000       0x3d build/default/production/_ext/1295770447/DynDNS.o
 .comment       0x00000000       0x3d build/default/production/_ext/1295770447/ENC28J60.o
 .comment       0x00000000       0x3d build/default/production/_ext/1295770447/ENCX24J600.o
 .comment       0x00000000       0x3d build/default/production/_ext/1295770447/ETHPIC32ExtPhy.o
 .comment       0x00000000       0x3d build/default/production/_ext/1295770447/ETHPIC32ExtPhyDP83848.o
 .comment       0x00000000       0x3d build/default/production/_ext/1295770447/ETHPIC32IntMac.o
 .comment       0x00000000       0x3d build/default/production/_ext/1295770447/FileSystem.o
 .comment       0x00000000       0x3d build/default/production/_ext/1295770447/FTP.o
 .comment       0x00000000       0x3d build/default/production/_ext/1295770447/Hashes.o
 .comment       0x00000000       0x3d build/default/production/_ext/1295770447/Helpers.o
 .comment       0x00000000       0x3d build/default/production/_ext/1295770447/HTTP2.o
 .comment       0x00000000       0x3d build/default/production/_ext/1295770447/HTTP.o
 .comment       0x00000000       0x3d build/default/production/_ext/1295770447/ICMP.o
 .comment       0x00000000       0x3d build/default/production/_ext/1295770447/IP.o
 .comment       0x00000000       0x3d build/default/production/_ext/1295770447/LCDBlocking.o
 .comment       0x00000000       0x3d build/default/production/_ext/1295770447/MPFS2.o
 .comment       0x00000000       0x3d build/default/production/_ext/1295770447/MPFS.o
 .comment       0x00000000       0x3d build/default/production/_ext/1295770447/NBNS.o
 .comment       0x00000000       0x3d build/default/production/_ext/1295770447/Random.o
 .comment       0x00000000       0x3d build/default/production/_ext/1295770447/Reboot.o
 .comment       0x00000000       0x3d build/default/production/_ext/1295770447/RSA.o
 .comment       0x00000000       0x3d build/default/production/_ext/1295770447/SMTP.o
 .comment       0x00000000       0x3d build/default/production/_ext/1295770447/SNMP.o
 .comment       0x00000000       0x3d build/default/production/_ext/1295770447/SNMPv3.o
 .comment       0x00000000       0x3d build/default/production/_ext/1295770447/SNMPv3USM.o
 .comment       0x00000000       0x3d build/default/production/_ext/1295770447/SNTP.o
 .comment       0x00000000       0x3d build/default/production/_ext/1295770447/SPIEEPROM.o
 .comment       0x00000000       0x3d build/default/production/_ext/1295770447/SPIFlash.o
 .comment       0x00000000       0x3d build/default/production/_ext/1295770447/SPIRAM.o
 .comment       0x00000000       0x3d build/default/production/_ext/1295770447/SSL.o
 .comment       0x00000000       0x3d build/default/production/_ext/1295770447/StackTsk.o
 .comment       0x00000000       0x3d build/default/production/_ext/1295770447/TCP.o
 .comment       0x00000000       0x3d build/default/production/_ext/1295770447/TCPPerformanceTest.o
 .comment       0x00000000       0x3d build/default/production/_ext/1295770447/Telnet.o
 .comment       0x00000000       0x3d build/default/production/_ext/1295770447/TFTPc.o
 .comment       0x00000000       0x3d build/default/production/_ext/1295770447/Tick.o
 .comment       0x00000000       0x3d build/default/production/_ext/1295770447/UART2TCPBridge.o
 .comment       0x00000000       0x3d build/default/production/_ext/1295770447/UART.o
 .comment       0x00000000       0x3d build/default/production/_ext/1295770447/UDP.o
 .comment       0x00000000       0x3d build/default/production/_ext/1295770447/UDPPerformanceTest.o
 .comment       0x00000000       0x3d build/default/production/_ext/1295770447/ZeroconfHelper.o
 .comment       0x00000000       0x3d build/default/production/_ext/1295770447/ZeroconfLinkLocal.o
 .comment       0x00000000       0x3d build/default/production/_ext/1295770447/ZeroconfMulticastDNS.o
 .comment       0x00000000       0x3d build/default/production/_ext/1472/MPFSImg2.o
 .comment       0x00000000       0x3d build/default/production/_ext/1472/MPFSImg.o
 .comment       0x00000000       0x3d build/default/production/_ext/1472/CustomHTTPApp.o
 .comment       0x00000000       0x3d build/default/production/_ext/1472/CustomSNMPApp.o
 .comment       0x00000000       0x3d build/default/production/_ext/1472/CustomSSLCert.o
 .comment       0x00000000       0x3d build/default/production/_ext/1472/MainDemo.o
 .comment       0x00000000       0x3d build/default/production/_ext/1472/mbmc.o
 .comment       0x00000000       0x3d build/default/production/_ext/1472/crc8_fast.o
 .comment       0x00000000       0x3d /sdd/opt/microchip/xc32/v1.40/bin/bin/../../lib/gcc/pic32mx/4.8.3/../../../../pic32mx/lib/speed/libmchp_peripheral.a(read_core_timer_lib.o)
 .comment       0x00000000       0x3d /sdd/opt/microchip/xc32/v1.40/bin/bin/../../lib/gcc/pic32mx/4.8.3/../../../../pic32mx/lib/speed/libmchp_peripheral_32MX795F512L.a(eth_ack_packet_lib.o)
 .comment       0x00000000       0x3d /sdd/opt/microchip/xc32/v1.40/bin/bin/../../lib/gcc/pic32mx/4.8.3/../../../../pic32mx/lib/speed/libmchp_peripheral_32MX795F512L.a(eth_descriptors_add_lib.o)
 .comment       0x00000000       0x3d /sdd/opt/microchip/xc32/v1.40/bin/bin/../../lib/gcc/pic32mx/4.8.3/../../../../pic32mx/lib/speed/libmchp_peripheral_32MX795F512L.a(eth_init_lib.o)
 .comment       0x00000000       0x3d /sdd/opt/microchip/xc32/v1.40/bin/bin/../../lib/gcc/pic32mx/4.8.3/../../../../pic32mx/lib/speed/libmchp_peripheral_32MX795F512L.a(eth_mac_open_lib.o)
 .comment       0x00000000       0x3d /sdd/opt/microchip/xc32/v1.40/bin/bin/../../lib/gcc/pic32mx/4.8.3/../../../../pic32mx/lib/speed/libmchp_peripheral_32MX795F512L.a(eth_mac_set_address_max_lib.o)
 .comment       0x00000000       0x3d /sdd/opt/microchip/xc32/v1.40/bin/bin/../../lib/gcc/pic32mx/4.8.3/../../../../pic32mx/lib/speed/libmchp_peripheral_32MX795F512L.a(eth_rx_buffers_append_lib.o)
 .comment       0x00000000       0x3d /sdd/opt/microchip/xc32/v1.40/bin/bin/../../lib/gcc/pic32mx/4.8.3/../../../../pic32mx/lib/speed/libmchp_peripheral_32MX795F512L.a(eth_rx_filters_lib.o)
 .comment       0x00000000       0x3d /sdd/opt/microchip/xc32/v1.40/bin/bin/../../lib/gcc/pic32mx/4.8.3/../../../../pic32mx/lib/speed/libmchp_peripheral_32MX795F512L.a(eth_rx_get_packet_lib.o)
 .comment       0x00000000       0x3d /sdd/opt/microchip/xc32/v1.40/bin/bin/../../lib/gcc/pic32mx/4.8.3/../../../../pic32mx/lib/speed/libmchp_peripheral_32MX795F512L.a(eth_rx_set_buffer_size_lib.o)
 .comment       0x00000000       0x3d /sdd/opt/microchip/xc32/v1.40/bin/bin/../../lib/gcc/pic32mx/4.8.3/../../../../pic32mx/lib/speed/libmchp_peripheral_32MX795F512L.a(eth_tx_packet_lib.o)
 .comment       0x00000000       0x3d /sdd/opt/microchip/xc32/v1.40/bin/bin/../../lib/gcc/pic32mx/4.8.3/../../../../pic32mx/lib/speed/libmchp_peripheral_32MX795F512L.a(_eth_append_busy_list_lib.o)
 .comment       0x00000000       0x3d /sdd/opt/microchip/xc32/v1.40/bin/bin/../../lib/gcc/pic32mx/4.8.3/../../../../pic32mx/lib/speed/libmchp_peripheral_32MX795F512L.a(eth_miim_access.o)
 .comment       0x00000000       0x3d /sdd/opt/microchip/xc32/v1.40/bin/bin/../../lib/gcc/pic32mx/4.8.3/../../../../pic32mx/lib/speed/libmchp_peripheral_32MX795F512L.a(soft_reset_lib.o)
 .comment       0x00000000       0x3d /sdd/opt/microchip/xc32/v1.40/bin/bin/../../lib/gcc/pic32mx/4.8.3/../../../../pic32mx/lib/speed/libmchp_peripheral_32MX795F512L.a(pcache.o)
 .comment       0x00000000       0x3d /sdd/opt/microchip/xc32/v1.40/bin/bin/../../lib/gcc/pic32mx/4.8.3/../../../../pic32mx/lib/speed/libmchp_peripheral_32MX795F512L.a(int_disable_interrupts_lib.o)
 .comment       0x00000000       0x3d /sdd/opt/microchip/xc32/v1.40/bin/bin/../../lib/gcc/pic32mx/4.8.3/../../../../pic32mx/lib/speed/libmchp_peripheral_32MX795F512L.a(int_restore_interrupts_lib.o)
 .comment       0x00000000       0x3d /sdd/opt/microchip/xc32/v1.40/bin/bin/../../lib/gcc/pic32mx/4.8.3/../../../../pic32mx/lib/speed/libmchp_peripheral_32MX795F512L.a(int_enable_mv_int_lib.o)
 .comment       0x00000000       0x3d /sdd/opt/microchip/xc32/v1.40/bin/bin/../../lib/gcc/pic32mx/4.8.3/../../../../pic32mx/lib/speed/libmchp_peripheral_32MX795F512L.a(int_tbl_lib.o)
 .comment       0x00000000       0x3d /sdd/opt/microchip/xc32/v1.40/bin/bin/../../lib/gcc/pic32mx/4.8.3/../../../../pic32mx/lib/speed/libmchp_peripheral_32MX795F512L.a(port_set_pins_digital_in_lib.o)
 .comment       0x00000000       0x3d /sdd/opt/microchip/xc32/v1.40/bin/bin/../../lib/gcc/pic32mx/4.8.3/../../../../pic32mx/lib/speed/libmchp_peripheral_32MX795F512L.a(port_set_pins_digital_out_lib.o)
 .comment       0x00000000       0x3d /sdd/opt/microchip/xc32/v1.40/bin/bin/../../lib/gcc/pic32mx/4.8.3/../../../../pic32mx/lib/speed/libmchp_peripheral_32MX795F512L.a(_ports_tbl_libp.o)
 .comment       0x00000000       0x3d /sdd/opt/microchip/xc32/v1.40/bin/bin/../../lib/gcc/pic32mx/4.8.3/../../../../pic32mx/lib/speed/libmchp_peripheral_32MX795F512L.a(uart_lib.o)
 .comment       0x00000000       0x3d /sdd/opt/microchip/xc32/v1.40/bin/bin/../../lib/gcc/pic32mx/4.8.3/../../../../pic32mx/lib/speed/libmchp_peripheral_32MX795F512L.a(int_enable_interrupts_lib.o)
 .comment       0x00000000       0x3d /sdd/opt/microchip/xc32/v1.40/bin/bin/../../lib/gcc/pic32mx/4.8.3/speed/libgcc.a(_udivdi3.o)
 .comment       0x00000000       0x3d /sdd/opt/microchip/xc32/v1.40/bin/bin/../../lib/gcc/pic32mx/4.8.3/speed/libgcc.a(floatunsisf.o)
 .comment       0x0000003c       0x18 /sdd/opt/microchip/xc32/v1.40/bin/bin/../../lib/gcc/pic32mx/4.8.3/../../../../pic32mx/lib/speed/libpic32.a(memcmp.o)
                                 0x19 (size before relaxing)
 .comment       0x00000054       0x18 /sdd/opt/microchip/xc32/v1.40/bin/bin/../../lib/gcc/pic32mx/4.8.3/../../../../pic32mx/lib/speed/libpic32.a(memset.o)
                                 0x19 (size before relaxing)
 .comment       0x0000006c       0x55 /sdd/opt/microchip/xc32/v1.40/bin/bin/../../lib/gcc/pic32mx/4.8.3/../../../../pic32mx/lib/speed/libpic32.a(strcmp.o)
                                 0x56 (size before relaxing)
 .comment       0x000000c1       0x19 /sdd/opt/microchip/xc32/v1.40/bin/bin/../../lib/gcc/pic32mx/4.8.3/../../../../pic32mx/lib/speed/libpic32.a(strcpy.o)
                                 0x1a (size before relaxing)
 .comment       0x000000da       0x19 /sdd/opt/microchip/xc32/v1.40/bin/bin/../../lib/gcc/pic32mx/4.8.3/../../../../pic32mx/lib/speed/libpic32.a(strlen.o)
                                 0x1a (size before relaxing)
 .comment       0x00000000       0x3d /sdd/opt/microchip/xc32/v1.40/bin/bin/../../lib/gcc/pic32mx/4.8.3/../../../../pic32mx/lib/speed/libpic32.a(default-bootstrap-exception-handler.o)
 .comment       0x00000000       0x3d /sdd/opt/microchip/xc32/v1.40/bin/bin/../../lib/gcc/pic32mx/4.8.3/../../../../pic32mx/lib/speed/libpic32.a(default-on-reset.o)
 .comment       0x00000000       0x3d /sdd/opt/microchip/xc32/v1.40/bin/bin/../../lib/gcc/pic32mx/4.8.3/../../../../pic32mx/lib/speed/libpic32.a(default-on-bootstrap.o)
 .comment       0x00000000       0x3d /sdd/opt/microchip/xc32/v1.40/bin/bin/../../lib/gcc/pic32mx/4.8.3/../../../../pic32mx/lib/speed/libpic32.a(defaultinterrupt.o)
 .comment       0x000000f3       0x4f /sdd/opt/microchip/xc32/v1.40/bin/bin/../../lib/gcc/pic32mx/4.8.3/../../../../pic32mx/lib/speed/liblega-c.a(strcat.o)
                                 0x8c (size before relaxing)
 .comment       0x00000142       0x50 /sdd/opt/microchip/xc32/v1.40/bin/bin/../../lib/gcc/pic32mx/4.8.3/../../../../pic32mx/lib/speed/liblega-c.a(strncat.o)
                                 0x8d (size before relaxing)
 .comment       0x00000192       0x4f /sdd/opt/microchip/xc32/v1.40/bin/bin/../../lib/gcc/pic32mx/4.8.3/../../../../pic32mx/lib/speed/liblega-c.a(strchr.o)
                                 0x8c (size before relaxing)
 .comment       0x000001e1       0x4f /sdd/opt/microchip/xc32/v1.40/bin/bin/../../lib/gcc/pic32mx/4.8.3/../../../../pic32mx/lib/speed/liblega-c.a(strstr.o)
                                 0x8c (size before relaxing)
 .comment       0x00000000       0x3d /sdd/opt/microchip/xc32/v1.40/bin/bin/../../lib/gcc/pic32mx/4.8.3/../../../../pic32mx/lib/speed/liblega-c.a(malloc_calloc.o)
 .comment       0x00000230       0x4f /sdd/opt/microchip/xc32/v1.40/bin/bin/../../lib/gcc/pic32mx/4.8.3/../../../../pic32mx/lib/speed/liblega-c.a(strtol.o)
                                 0x8c (size before relaxing)
 .comment       0x0000027f       0x52 /sdd/opt/microchip/xc32/v1.40/bin/bin/../../lib/gcc/pic32mx/4.8.3/../../../../pic32mx/lib/speed/liblega-c.a(sprintf.o)
                                 0x8f (size before relaxing)
 .comment       0x000002d1       0x51 /sdd/opt/microchip/xc32/v1.40/bin/bin/../../lib/gcc/pic32mx/4.8.3/../../../../pic32mx/lib/speed/liblega-c.a(sscanf.o)
                                 0x8e (size before relaxing)
 .comment       0x00000322       0x52 /sdd/opt/microchip/xc32/v1.40/bin/bin/../../lib/gcc/pic32mx/4.8.3/../../../../pic32mx/lib/speed/liblega-c.a(vsscanf.o)
                                 0x8f (size before relaxing)
 .comment       0x00000374       0x56 /sdd/opt/microchip/xc32/v1.40/bin/bin/../../lib/gcc/pic32mx/4.8.3/../../../../pic32mx/lib/speed/liblega-c.a(__vsnprintf.o)
                                 0x93 (size before relaxing)
 .comment       0x00000000       0x3d /sdd/opt/microchip/xc32/v1.40/bin/bin/../../lib/gcc/pic32mx/4.8.3/../../../../pic32mx/lib/speed/liblega-c.a(gmtime.o)
 .comment       0x00000000       0x3d /sdd/opt/microchip/xc32/v1.40/bin/bin/../../lib/gcc/pic32mx/4.8.3/../../../../pic32mx/lib/speed/liblega-c.a(offtime.o)
 .comment       0x000003ca       0x51 /sdd/opt/microchip/xc32/v1.40/bin/bin/../../lib/gcc/pic32mx/4.8.3/../../../../pic32mx/lib/speed/liblega-c.a(asctime.o)
                                 0x8e (size before relaxing)
 .comment       0x0000041b       0x4e /sdd/opt/microchip/xc32/v1.40/bin/bin/../../lib/gcc/pic32mx/4.8.3/../../../../pic32mx/lib/speed/liblega-c.a(stubs.o)
                                 0x8b (size before relaxing)
 .comment       0x00000469       0x4e /sdd/opt/microchip/xc32/v1.40/bin/bin/../../lib/gcc/pic32mx/4.8.3/../../../../pic32mx/lib/speed/liblega-c.a(ctype.o)
                                 0x8b (size before relaxing)
 .comment       0x00000000       0x3d /sdd/opt/microchip/xc32/v1.40/bin/bin/../../lib/gcc/pic32mx/4.8.3/../../../../pic32mx/lib/speed/liblega-c.a(malloc.o)
 .comment       0x000004b7       0x4e /sdd/opt/microchip/xc32/v1.40/bin/bin/../../lib/gcc/pic32mx/4.8.3/../../../../pic32mx/lib/speed/liblega-c.a(errno.o)
                                 0x8b (size before relaxing)
 .comment       0x00000505       0x52 /sdd/opt/microchip/xc32/v1.40/bin/bin/../../lib/gcc/pic32mx/4.8.3/../../../../pic32mx/lib/speed/liblega-c.a(_doprnt.o)
                                 0x8f (size before relaxing)
 .comment       0x00000557       0x52 /sdd/opt/microchip/xc32/v1.40/bin/bin/../../lib/gcc/pic32mx/4.8.3/../../../../pic32mx/lib/speed/liblega-c.a(_doscan.o)
                                 0x8f (size before relaxing)
 .comment       0x000005a9       0x53 /sdd/opt/microchip/xc32/v1.40/bin/bin/../../lib/gcc/pic32mx/4.8.3/../../../../pic32mx/lib/speed/liblega-c.a(_iobdata.o)
                                 0x90 (size before relaxing)
 .comment       0x000005fc       0x54 /sdd/opt/microchip/xc32/v1.40/bin/bin/../../lib/gcc/pic32mx/4.8.3/../../../../pic32mx/lib/speed/liblega-c.a(_iobfuncs.o)
                                 0x91 (size before relaxing)
 .comment       0x00000650       0x55 /sdd/opt/microchip/xc32/v1.40/bin/bin/../../lib/gcc/pic32mx/4.8.3/../../../../pic32mx/lib/speed/liblega-c.a(_iobstring.o)
                                 0x92 (size before relaxing)
 .comment       0x000006a5       0x50 /sdd/opt/microchip/xc32/v1.40/bin/bin/../../lib/gcc/pic32mx/4.8.3/../../../../pic32mx/lib/speed/liblega-c.a(fgetc.o)
                                 0x8d (size before relaxing)
 .comment       0x000006f5       0x50 /sdd/opt/microchip/xc32/v1.40/bin/bin/../../lib/gcc/pic32mx/4.8.3/../../../../pic32mx/lib/speed/liblega-c.a(fputc.o)
                                 0x8d (size before relaxing)
 .comment       0x00000745       0x51 /sdd/opt/microchip/xc32/v1.40/bin/bin/../../lib/gcc/pic32mx/4.8.3/../../../../pic32mx/lib/speed/liblega-c.a(ungetc.o)
                                 0x8e (size before relaxing)
 .comment       0x00000796       0x4b /sdd/opt/microchip/xc32/v1.40/bin/bin/../../lib/gcc/pic32mx/4.8.3/../../../../pic32mx/lib/speed/liblega-c.a(sbrk.o)
                                 0x88 (size before relaxing)
 .comment       0x00000000       0x3d /sdd/opt/microchip/xc32/v1.40/bin/bin/../../lib/gcc/pic32mx/4.8.3/../../../../pic32mx/lib/speed/liblega-c.a(_mon_getc.o)
 .comment       0x00000000       0x3d /sdd/opt/microchip/xc32/v1.40/bin/bin/../../lib/gcc/pic32mx/4.8.3/../../../../pic32mx/lib/speed/liblega-c.a(_mon_write.o)
 .comment       0x00000000       0x3d /sdd/opt/microchip/xc32/v1.40/bin/bin/../../lib/gcc/pic32mx/4.8.3/../../../../pic32mx/lib/speed/liblega-c.a(malloc_realloc.o)
 .comment       0x000007e1       0x50 /sdd/opt/microchip/xc32/v1.40/bin/bin/../../lib/gcc/pic32mx/4.8.3/../../../../pic32mx/lib/speed/liblega-c.a(strtoul.o)
                                 0x8d (size before relaxing)
 .comment       0x00000831       0x50 /sdd/opt/microchip/xc32/v1.40/bin/bin/../../lib/gcc/pic32mx/4.8.3/../../../../pic32mx/lib/speed/liblega-c.a(strtoll.o)
                                 0x8d (size before relaxing)
 .comment       0x00000881       0x51 /sdd/opt/microchip/xc32/v1.40/bin/bin/../../lib/gcc/pic32mx/4.8.3/../../../../pic32mx/lib/speed/liblega-c.a(strtoull.o)
                                 0x8e (size before relaxing)
 .comment       0x000008d2       0x4f /sdd/opt/microchip/xc32/v1.40/bin/bin/../../lib/gcc/pic32mx/4.8.3/../../../../pic32mx/lib/speed/liblega-c.a(strtod.o)
                                 0x8c (size before relaxing)
 .comment       0x00000000       0x8c /sdd/opt/microchip/xc32/v1.40/bin/bin/../../lib/gcc/pic32mx/4.8.3/../../../../pic32mx/lib/speed/liblega-c.a(strtof.o)
 .comment       0x00000921       0x51 /sdd/opt/microchip/xc32/v1.40/bin/bin/../../lib/gcc/pic32mx/4.8.3/../../../../pic32mx/lib/speed/liblega-c.a(fullexit.o)
                                 0x8e (size before relaxing)
 .comment       0x00000972       0x52 /sdd/opt/microchip/xc32/v1.40/bin/bin/../../lib/gcc/pic32mx/4.8.3/../../../../pic32mx/lib/speed/liblega-c.a(_ioinit.o)
                                 0x8f (size before relaxing)
 .comment       0x000009c4       0x51 /sdd/opt/microchip/xc32/v1.40/bin/bin/../../lib/gcc/pic32mx/4.8.3/../../../../pic32mx/lib/speed/liblega-c.a(_cleanup.o)
                                 0x8e (size before relaxing)
 .comment       0x00000000       0x3d /sdd/opt/microchip/xc32/v1.40/bin/bin/../../lib/gcc/pic32mx/4.8.3/../../../../pic32mx/lib/speed/liblega-c.a(_exit.o)
 .comment       0x00000a15       0x4e /sdd/opt/microchip/xc32/v1.40/bin/bin/../../lib/gcc/pic32mx/4.8.3/../../../../pic32mx/lib/speed/liblega-c.a(isatty.o)
                                 0x8b (size before relaxing)
 .comment       0x00000000       0x3d /sdd/opt/microchip/xc32/v1.40/bin/bin/../../lib/gcc/pic32mx/4.8.3/../../../../pic32mx/lib/speed/liblega-c.a(_mon_putc.o)
 .comment       0x00000a63       0x50 /sdd/opt/microchip/xc32/v1.40/bin/bin/../../lib/gcc/pic32mx/4.8.3/../../../../pic32mx/lib/speed/liblega-c.a(memmove.o)
                                 0x8d (size before relaxing)
 .comment       0x00000ab3       0x53 /sdd/opt/microchip/xc32/v1.40/bin/bin/../../lib/gcc/pic32mx/4.8.3/../../../../pic32mx/lib/speed/liblega-c.a(_bufproc.o)
                                 0x90 (size before relaxing)
 .comment       0x00000b06       0x9d /sdd/opt/microchip/xc32/v1.40/bin/bin/../../lib/gcc/pic32mx/4.8.3/../../../../pic32mx/lib/speed/libm.a(__strtod.o)
                                 0xda (size before relaxing)
 .comment       0x00000ba3       0x4f /sdd/opt/microchip/xc32/v1.40/bin/bin/../../lib/gcc/pic32mx/4.8.3/../../../../pic32mx/lib/speed/libm.a(__strtof.o)
                                 0xda (size before relaxing)
 .comment       0x00000bf2       0x50 /sdd/opt/microchip/xc32/v1.40/bin/bin/../../lib/gcc/pic32mx/4.8.3/../../../../pic32mx/lib/speed/libe.a(_ldexp.o)
                                 0xdb (size before relaxing)
 .comment       0x00000c42       0x50 /sdd/opt/microchip/xc32/v1.40/bin/bin/../../lib/gcc/pic32mx/4.8.3/../../../../pic32mx/lib/speed/libe.a(_ldexpf.o)
                                 0xdb (size before relaxing)
 .comment       0x00000000       0x3d /sdd/opt/microchip/xc32/v1.40/bin/bin/../../lib/gcc/pic32mx/4.8.3/speed/libgcc.a(_lshrdi3.o)
 .comment       0x00000000       0x3d /sdd/opt/microchip/xc32/v1.40/bin/bin/../../lib/gcc/pic32mx/4.8.3/speed/libgcc.a(_ashldi3.o)
 .comment       0x00000000       0x3d /sdd/opt/microchip/xc32/v1.40/bin/bin/../../lib/gcc/pic32mx/4.8.3/speed/libgcc.a(_divdi3.o)
 .comment       0x00000000       0x3d /sdd/opt/microchip/xc32/v1.40/bin/bin/../../lib/gcc/pic32mx/4.8.3/speed/libgcc.a(_umoddi3.o)

.debug
 *(.debug)

.line
 *(.line)

.debug_srcinfo
 *(.debug_srcinfo)

.debug_sfnames
 *(.debug_sfnames)

.debug_aranges  0x00000000      0x5d0
 *(.debug_aranges)
 .debug_aranges
                0x00000000       0x20 /sdd/opt/microchip/xc32/v1.40/bin/bin/../../lib/gcc/pic32mx/4.8.3/../../../../pic32mx/lib/speed/libmchp_peripheral.a(read_core_timer_lib.o)
 .debug_aranges
                0x00000020       0x48 /sdd/opt/microchip/xc32/v1.40/bin/bin/../../lib/gcc/pic32mx/4.8.3/../../../../pic32mx/lib/speed/libmchp_peripheral_32MX795F512L.a(eth_ack_packet_lib.o)
 .debug_aranges
                0x00000068       0x28 /sdd/opt/microchip/xc32/v1.40/bin/bin/../../lib/gcc/pic32mx/4.8.3/../../../../pic32mx/lib/speed/libmchp_peripheral_32MX795F512L.a(eth_descriptors_add_lib.o)
 .debug_aranges
                0x00000090       0x20 /sdd/opt/microchip/xc32/v1.40/bin/bin/../../lib/gcc/pic32mx/4.8.3/../../../../pic32mx/lib/speed/libmchp_peripheral_32MX795F512L.a(eth_init_lib.o)
 .debug_aranges
                0x000000b0       0x20 /sdd/opt/microchip/xc32/v1.40/bin/bin/../../lib/gcc/pic32mx/4.8.3/../../../../pic32mx/lib/speed/libmchp_peripheral_32MX795F512L.a(eth_mac_open_lib.o)
 .debug_aranges
                0x000000d0       0x30 /sdd/opt/microchip/xc32/v1.40/bin/bin/../../lib/gcc/pic32mx/4.8.3/../../../../pic32mx/lib/speed/libmchp_peripheral_32MX795F512L.a(eth_mac_set_address_max_lib.o)
 .debug_aranges
                0x00000100       0x20 /sdd/opt/microchip/xc32/v1.40/bin/bin/../../lib/gcc/pic32mx/4.8.3/../../../../pic32mx/lib/speed/libmchp_peripheral_32MX795F512L.a(eth_rx_buffers_append_lib.o)
 .debug_aranges
                0x00000120       0x48 /sdd/opt/microchip/xc32/v1.40/bin/bin/../../lib/gcc/pic32mx/4.8.3/../../../../pic32mx/lib/speed/libmchp_peripheral_32MX795F512L.a(eth_rx_filters_lib.o)
 .debug_aranges
                0x00000168       0x28 /sdd/opt/microchip/xc32/v1.40/bin/bin/../../lib/gcc/pic32mx/4.8.3/../../../../pic32mx/lib/speed/libmchp_peripheral_32MX795F512L.a(eth_rx_get_packet_lib.o)
 .debug_aranges
                0x00000190       0x20 /sdd/opt/microchip/xc32/v1.40/bin/bin/../../lib/gcc/pic32mx/4.8.3/../../../../pic32mx/lib/speed/libmchp_peripheral_32MX795F512L.a(eth_rx_set_buffer_size_lib.o)
 .debug_aranges
                0x000001b0       0x38 /sdd/opt/microchip/xc32/v1.40/bin/bin/../../lib/gcc/pic32mx/4.8.3/../../../../pic32mx/lib/speed/libmchp_peripheral_32MX795F512L.a(eth_tx_packet_lib.o)
 .debug_aranges
                0x000001e8       0x20 /sdd/opt/microchip/xc32/v1.40/bin/bin/../../lib/gcc/pic32mx/4.8.3/../../../../pic32mx/lib/speed/libmchp_peripheral_32MX795F512L.a(_eth_append_busy_list_lib.o)
 .debug_aranges
                0x00000208       0x48 /sdd/opt/microchip/xc32/v1.40/bin/bin/../../lib/gcc/pic32mx/4.8.3/../../../../pic32mx/lib/speed/libmchp_peripheral_32MX795F512L.a(eth_miim_access.o)
 .debug_aranges
                0x00000250       0x20 /sdd/opt/microchip/xc32/v1.40/bin/bin/../../lib/gcc/pic32mx/4.8.3/../../../../pic32mx/lib/speed/libmchp_peripheral_32MX795F512L.a(soft_reset_lib.o)
 .debug_aranges
                0x00000270       0x28 /sdd/opt/microchip/xc32/v1.40/bin/bin/../../lib/gcc/pic32mx/4.8.3/../../../../pic32mx/lib/speed/libmchp_peripheral_32MX795F512L.a(pcache.o)
 .debug_aranges
                0x00000298       0x20 /sdd/opt/microchip/xc32/v1.40/bin/bin/../../lib/gcc/pic32mx/4.8.3/../../../../pic32mx/lib/speed/libmchp_peripheral_32MX795F512L.a(int_disable_interrupts_lib.o)
 .debug_aranges
                0x000002b8       0x20 /sdd/opt/microchip/xc32/v1.40/bin/bin/../../lib/gcc/pic32mx/4.8.3/../../../../pic32mx/lib/speed/libmchp_peripheral_32MX795F512L.a(int_restore_interrupts_lib.o)
 .debug_aranges
                0x000002d8       0x20 /sdd/opt/microchip/xc32/v1.40/bin/bin/../../lib/gcc/pic32mx/4.8.3/../../../../pic32mx/lib/speed/libmchp_peripheral_32MX795F512L.a(int_enable_mv_int_lib.o)
 .debug_aranges
                0x000002f8       0x60 /sdd/opt/microchip/xc32/v1.40/bin/bin/../../lib/gcc/pic32mx/4.8.3/../../../../pic32mx/lib/speed/libmchp_peripheral_32MX795F512L.a(int_tbl_lib.o)
 .debug_aranges
                0x00000358       0x20 /sdd/opt/microchip/xc32/v1.40/bin/bin/../../lib/gcc/pic32mx/4.8.3/../../../../pic32mx/lib/speed/libmchp_peripheral_32MX795F512L.a(port_set_pins_digital_in_lib.o)
 .debug_aranges
                0x00000378       0x20 /sdd/opt/microchip/xc32/v1.40/bin/bin/../../lib/gcc/pic32mx/4.8.3/../../../../pic32mx/lib/speed/libmchp_peripheral_32MX795F512L.a(port_set_pins_digital_out_lib.o)
 .debug_aranges
                0x00000398       0x58 /sdd/opt/microchip/xc32/v1.40/bin/bin/../../lib/gcc/pic32mx/4.8.3/../../../../pic32mx/lib/speed/libmchp_peripheral_32MX795F512L.a(uart_lib.o)
 .debug_aranges
                0x000003f0       0x20 /sdd/opt/microchip/xc32/v1.40/bin/bin/../../lib/gcc/pic32mx/4.8.3/../../../../pic32mx/lib/speed/libmchp_peripheral_32MX795F512L.a(int_enable_interrupts_lib.o)
 .debug_aranges
                0x00000410       0x20 /sdd/opt/microchip/xc32/v1.40/bin/bin/../../lib/gcc/pic32mx/4.8.3/speed/libgcc.a(_udivdi3.o)
 .debug_aranges
                0x00000430       0x20 /sdd/opt/microchip/xc32/v1.40/bin/bin/../../lib/gcc/pic32mx/4.8.3/speed/libgcc.a(floatunsisf.o)
 .debug_aranges
                0x00000450       0x20 /sdd/opt/microchip/xc32/v1.40/bin/bin/../../lib/gcc/pic32mx/4.8.3/../../../../pic32mx/lib/speed/libpic32.a(default-bootstrap-exception-handler.o)
 .debug_aranges
                0x00000470       0x20 /sdd/opt/microchip/xc32/v1.40/bin/bin/../../lib/gcc/pic32mx/4.8.3/../../../../pic32mx/lib/speed/libpic32.a(default-on-reset.o)
 .debug_aranges
                0x00000490       0x20 /sdd/opt/microchip/xc32/v1.40/bin/bin/../../lib/gcc/pic32mx/4.8.3/../../../../pic32mx/lib/speed/libpic32.a(default-on-bootstrap.o)
 .debug_aranges
                0x000004b0       0x20 /sdd/opt/microchip/xc32/v1.40/bin/bin/../../lib/gcc/pic32mx/4.8.3/../../../../pic32mx/lib/speed/libpic32.a(defaultinterrupt.o)
 .debug_aranges
                0x000004d0       0x20 /sdd/opt/microchip/xc32/v1.40/bin/bin/../../lib/gcc/pic32mx/4.8.3/../../../../pic32mx/lib/speed/libm.a(__strtod.o)
 .debug_aranges
                0x000004f0       0x20 /sdd/opt/microchip/xc32/v1.40/bin/bin/../../lib/gcc/pic32mx/4.8.3/../../../../pic32mx/lib/speed/libm.a(__strtof.o)
 .debug_aranges
                0x00000510       0x20 /sdd/opt/microchip/xc32/v1.40/bin/bin/../../lib/gcc/pic32mx/4.8.3/../../../../pic32mx/lib/speed/libe.a(_ldexp.o)
 .debug_aranges
                0x00000530       0x20 /sdd/opt/microchip/xc32/v1.40/bin/bin/../../lib/gcc/pic32mx/4.8.3/../../../../pic32mx/lib/speed/libe.a(_ldexpf.o)
 .debug_aranges
                0x00000550       0x20 /sdd/opt/microchip/xc32/v1.40/bin/bin/../../lib/gcc/pic32mx/4.8.3/speed/libgcc.a(_lshrdi3.o)
 .debug_aranges
                0x00000570       0x20 /sdd/opt/microchip/xc32/v1.40/bin/bin/../../lib/gcc/pic32mx/4.8.3/speed/libgcc.a(_ashldi3.o)
 .debug_aranges
                0x00000590       0x20 /sdd/opt/microchip/xc32/v1.40/bin/bin/../../lib/gcc/pic32mx/4.8.3/speed/libgcc.a(_divdi3.o)
 .debug_aranges
                0x000005b0       0x20 /sdd/opt/microchip/xc32/v1.40/bin/bin/../../lib/gcc/pic32mx/4.8.3/speed/libgcc.a(_umoddi3.o)

.debug_pubnames
 *(.debug_pubnames)

.debug_info     0x00000000     0x3962
 *(.debug_info .gnu.linkonce.wi.*)
 .debug_info    0x00000000       0xa8 /sdd/opt/microchip/xc32/v1.40/bin/bin/../../lib/gcc/pic32mx/4.8.3/../../../../pic32mx/lib/speed/libmchp_peripheral.a(read_core_timer_lib.o)
 .debug_info    0x000000a8      0x16e /sdd/opt/microchip/xc32/v1.40/bin/bin/../../lib/gcc/pic32mx/4.8.3/../../../../pic32mx/lib/speed/libmchp_peripheral_32MX795F512L.a(eth_ack_packet_lib.o)
 .debug_info    0x00000216       0xf1 /sdd/opt/microchip/xc32/v1.40/bin/bin/../../lib/gcc/pic32mx/4.8.3/../../../../pic32mx/lib/speed/libmchp_peripheral_32MX795F512L.a(eth_descriptors_add_lib.o)
 .debug_info    0x00000307       0xbc /sdd/opt/microchip/xc32/v1.40/bin/bin/../../lib/gcc/pic32mx/4.8.3/../../../../pic32mx/lib/speed/libmchp_peripheral_32MX795F512L.a(eth_init_lib.o)
 .debug_info    0x000003c3       0xa0 /sdd/opt/microchip/xc32/v1.40/bin/bin/../../lib/gcc/pic32mx/4.8.3/../../../../pic32mx/lib/speed/libmchp_peripheral_32MX795F512L.a(eth_mac_open_lib.o)
 .debug_info    0x00000463       0xf2 /sdd/opt/microchip/xc32/v1.40/bin/bin/../../lib/gcc/pic32mx/4.8.3/../../../../pic32mx/lib/speed/libmchp_peripheral_32MX795F512L.a(eth_mac_set_address_max_lib.o)
 .debug_info    0x00000555       0xe4 /sdd/opt/microchip/xc32/v1.40/bin/bin/../../lib/gcc/pic32mx/4.8.3/../../../../pic32mx/lib/speed/libmchp_peripheral_32MX795F512L.a(eth_rx_buffers_append_lib.o)
 .debug_info    0x00000639      0x14a /sdd/opt/microchip/xc32/v1.40/bin/bin/../../lib/gcc/pic32mx/4.8.3/../../../../pic32mx/lib/speed/libmchp_peripheral_32MX795F512L.a(eth_rx_filters_lib.o)
 .debug_info    0x00000783       0xc7 /sdd/opt/microchip/xc32/v1.40/bin/bin/../../lib/gcc/pic32mx/4.8.3/../../../../pic32mx/lib/speed/libmchp_peripheral_32MX795F512L.a(eth_rx_get_packet_lib.o)
 .debug_info    0x0000084a       0xb2 /sdd/opt/microchip/xc32/v1.40/bin/bin/../../lib/gcc/pic32mx/4.8.3/../../../../pic32mx/lib/speed/libmchp_peripheral_32MX795F512L.a(eth_rx_set_buffer_size_lib.o)
 .debug_info    0x000008fc      0x16b /sdd/opt/microchip/xc32/v1.40/bin/bin/../../lib/gcc/pic32mx/4.8.3/../../../../pic32mx/lib/speed/libmchp_peripheral_32MX795F512L.a(eth_tx_packet_lib.o)
 .debug_info    0x00000a67       0xd2 /sdd/opt/microchip/xc32/v1.40/bin/bin/../../lib/gcc/pic32mx/4.8.3/../../../../pic32mx/lib/speed/libmchp_peripheral_32MX795F512L.a(_eth_append_busy_list_lib.o)
 .debug_info    0x00000b39      0x146 /sdd/opt/microchip/xc32/v1.40/bin/bin/../../lib/gcc/pic32mx/4.8.3/../../../../pic32mx/lib/speed/libmchp_peripheral_32MX795F512L.a(eth_miim_access.o)
 .debug_info    0x00000c7f       0xb0 /sdd/opt/microchip/xc32/v1.40/bin/bin/../../lib/gcc/pic32mx/4.8.3/../../../../pic32mx/lib/speed/libmchp_peripheral_32MX795F512L.a(soft_reset_lib.o)
 .debug_info    0x00000d2f       0xbe /sdd/opt/microchip/xc32/v1.40/bin/bin/../../lib/gcc/pic32mx/4.8.3/../../../../pic32mx/lib/speed/libmchp_peripheral_32MX795F512L.a(pcache.o)
 .debug_info    0x00000ded       0xb4 /sdd/opt/microchip/xc32/v1.40/bin/bin/../../lib/gcc/pic32mx/4.8.3/../../../../pic32mx/lib/speed/libmchp_peripheral_32MX795F512L.a(int_disable_interrupts_lib.o)
 .debug_info    0x00000ea1       0xb4 /sdd/opt/microchip/xc32/v1.40/bin/bin/../../lib/gcc/pic32mx/4.8.3/../../../../pic32mx/lib/speed/libmchp_peripheral_32MX795F512L.a(int_restore_interrupts_lib.o)
 .debug_info    0x00000f55       0xba /sdd/opt/microchip/xc32/v1.40/bin/bin/../../lib/gcc/pic32mx/4.8.3/../../../../pic32mx/lib/speed/libmchp_peripheral_32MX795F512L.a(int_enable_mv_int_lib.o)
 .debug_info    0x0000100f      0x19c /sdd/opt/microchip/xc32/v1.40/bin/bin/../../lib/gcc/pic32mx/4.8.3/../../../../pic32mx/lib/speed/libmchp_peripheral_32MX795F512L.a(int_tbl_lib.o)
 .debug_info    0x000011ab       0xb8 /sdd/opt/microchip/xc32/v1.40/bin/bin/../../lib/gcc/pic32mx/4.8.3/../../../../pic32mx/lib/speed/libmchp_peripheral_32MX795F512L.a(port_set_pins_digital_in_lib.o)
 .debug_info    0x00001263       0xba /sdd/opt/microchip/xc32/v1.40/bin/bin/../../lib/gcc/pic32mx/4.8.3/../../../../pic32mx/lib/speed/libmchp_peripheral_32MX795F512L.a(port_set_pins_digital_out_lib.o)
 .debug_info    0x0000131d      0x17a /sdd/opt/microchip/xc32/v1.40/bin/bin/../../lib/gcc/pic32mx/4.8.3/../../../../pic32mx/lib/speed/libmchp_peripheral_32MX795F512L.a(uart_lib.o)
 .debug_info    0x00001497       0xb2 /sdd/opt/microchip/xc32/v1.40/bin/bin/../../lib/gcc/pic32mx/4.8.3/../../../../pic32mx/lib/speed/libmchp_peripheral_32MX795F512L.a(int_enable_interrupts_lib.o)
 .debug_info    0x00001549      0x755 /sdd/opt/microchip/xc32/v1.40/bin/bin/../../lib/gcc/pic32mx/4.8.3/speed/libgcc.a(_udivdi3.o)
 .debug_info    0x00001c9e      0x11f /sdd/opt/microchip/xc32/v1.40/bin/bin/../../lib/gcc/pic32mx/4.8.3/speed/libgcc.a(floatunsisf.o)
 .debug_info    0x00001dbd       0xe3 /sdd/opt/microchip/xc32/v1.40/bin/bin/../../lib/gcc/pic32mx/4.8.3/../../../../pic32mx/lib/speed/libpic32.a(default-bootstrap-exception-handler.o)
 .debug_info    0x00001ea0       0xbd /sdd/opt/microchip/xc32/v1.40/bin/bin/../../lib/gcc/pic32mx/4.8.3/../../../../pic32mx/lib/speed/libpic32.a(default-on-reset.o)
 .debug_info    0x00001f5d       0xc5 /sdd/opt/microchip/xc32/v1.40/bin/bin/../../lib/gcc/pic32mx/4.8.3/../../../../pic32mx/lib/speed/libpic32.a(default-on-bootstrap.o)
 .debug_info    0x00002022       0xd7 /sdd/opt/microchip/xc32/v1.40/bin/bin/../../lib/gcc/pic32mx/4.8.3/../../../../pic32mx/lib/speed/libpic32.a(defaultinterrupt.o)
 .debug_info    0x000020f9       0xc7 /sdd/opt/microchip/xc32/v1.40/bin/bin/../../lib/gcc/pic32mx/4.8.3/../../../../pic32mx/lib/speed/libm.a(__strtod.o)
 .debug_info    0x000021c0       0xc7 /sdd/opt/microchip/xc32/v1.40/bin/bin/../../lib/gcc/pic32mx/4.8.3/../../../../pic32mx/lib/speed/libm.a(__strtof.o)
 .debug_info    0x00002287       0xc8 /sdd/opt/microchip/xc32/v1.40/bin/bin/../../lib/gcc/pic32mx/4.8.3/../../../../pic32mx/lib/speed/libe.a(_ldexp.o)
 .debug_info    0x0000234f       0xc9 /sdd/opt/microchip/xc32/v1.40/bin/bin/../../lib/gcc/pic32mx/4.8.3/../../../../pic32mx/lib/speed/libe.a(_ldexpf.o)
 .debug_info    0x00002418      0x316 /sdd/opt/microchip/xc32/v1.40/bin/bin/../../lib/gcc/pic32mx/4.8.3/speed/libgcc.a(_lshrdi3.o)
 .debug_info    0x0000272e      0x319 /sdd/opt/microchip/xc32/v1.40/bin/bin/../../lib/gcc/pic32mx/4.8.3/speed/libgcc.a(_ashldi3.o)
 .debug_info    0x00002a47      0x789 /sdd/opt/microchip/xc32/v1.40/bin/bin/../../lib/gcc/pic32mx/4.8.3/speed/libgcc.a(_divdi3.o)
 .debug_info    0x000031d0      0x792 /sdd/opt/microchip/xc32/v1.40/bin/bin/../../lib/gcc/pic32mx/4.8.3/speed/libgcc.a(_umoddi3.o)

.debug_abbrev   0x00000000      0xbf7
 *(.debug_abbrev)
 .debug_abbrev  0x00000000       0x28 /sdd/opt/microchip/xc32/v1.40/bin/bin/../../lib/gcc/pic32mx/4.8.3/../../../../pic32mx/lib/speed/libmchp_peripheral.a(read_core_timer_lib.o)
 .debug_abbrev  0x00000028       0x61 /sdd/opt/microchip/xc32/v1.40/bin/bin/../../lib/gcc/pic32mx/4.8.3/../../../../pic32mx/lib/speed/libmchp_peripheral_32MX795F512L.a(eth_ack_packet_lib.o)
 .debug_abbrev  0x00000089       0x37 /sdd/opt/microchip/xc32/v1.40/bin/bin/../../lib/gcc/pic32mx/4.8.3/../../../../pic32mx/lib/speed/libmchp_peripheral_32MX795F512L.a(eth_descriptors_add_lib.o)
 .debug_abbrev  0x000000c0       0x37 /sdd/opt/microchip/xc32/v1.40/bin/bin/../../lib/gcc/pic32mx/4.8.3/../../../../pic32mx/lib/speed/libmchp_peripheral_32MX795F512L.a(eth_init_lib.o)
 .debug_abbrev  0x000000f7       0x28 /sdd/opt/microchip/xc32/v1.40/bin/bin/../../lib/gcc/pic32mx/4.8.3/../../../../pic32mx/lib/speed/libmchp_peripheral_32MX795F512L.a(eth_mac_open_lib.o)
 .debug_abbrev  0x0000011f       0x3e /sdd/opt/microchip/xc32/v1.40/bin/bin/../../lib/gcc/pic32mx/4.8.3/../../../../pic32mx/lib/speed/libmchp_peripheral_32MX795F512L.a(eth_mac_set_address_max_lib.o)
 .debug_abbrev  0x0000015d       0x37 /sdd/opt/microchip/xc32/v1.40/bin/bin/../../lib/gcc/pic32mx/4.8.3/../../../../pic32mx/lib/speed/libmchp_peripheral_32MX795F512L.a(eth_rx_buffers_append_lib.o)
 .debug_abbrev  0x00000194       0x28 /sdd/opt/microchip/xc32/v1.40/bin/bin/../../lib/gcc/pic32mx/4.8.3/../../../../pic32mx/lib/speed/libmchp_peripheral_32MX795F512L.a(eth_rx_filters_lib.o)
 .debug_abbrev  0x000001bc       0x3e /sdd/opt/microchip/xc32/v1.40/bin/bin/../../lib/gcc/pic32mx/4.8.3/../../../../pic32mx/lib/speed/libmchp_peripheral_32MX795F512L.a(eth_rx_get_packet_lib.o)
 .debug_abbrev  0x000001fa       0x28 /sdd/opt/microchip/xc32/v1.40/bin/bin/../../lib/gcc/pic32mx/4.8.3/../../../../pic32mx/lib/speed/libmchp_peripheral_32MX795F512L.a(eth_rx_set_buffer_size_lib.o)
 .debug_abbrev  0x00000222       0x79 /sdd/opt/microchip/xc32/v1.40/bin/bin/../../lib/gcc/pic32mx/4.8.3/../../../../pic32mx/lib/speed/libmchp_peripheral_32MX795F512L.a(eth_tx_packet_lib.o)
 .debug_abbrev  0x0000029b       0x37 /sdd/opt/microchip/xc32/v1.40/bin/bin/../../lib/gcc/pic32mx/4.8.3/../../../../pic32mx/lib/speed/libmchp_peripheral_32MX795F512L.a(_eth_append_busy_list_lib.o)
 .debug_abbrev  0x000002d2       0x3e /sdd/opt/microchip/xc32/v1.40/bin/bin/../../lib/gcc/pic32mx/4.8.3/../../../../pic32mx/lib/speed/libmchp_peripheral_32MX795F512L.a(eth_miim_access.o)
 .debug_abbrev  0x00000310       0x37 /sdd/opt/microchip/xc32/v1.40/bin/bin/../../lib/gcc/pic32mx/4.8.3/../../../../pic32mx/lib/speed/libmchp_peripheral_32MX795F512L.a(soft_reset_lib.o)
 .debug_abbrev  0x00000347       0x28 /sdd/opt/microchip/xc32/v1.40/bin/bin/../../lib/gcc/pic32mx/4.8.3/../../../../pic32mx/lib/speed/libmchp_peripheral_32MX795F512L.a(pcache.o)
 .debug_abbrev  0x0000036f       0x28 /sdd/opt/microchip/xc32/v1.40/bin/bin/../../lib/gcc/pic32mx/4.8.3/../../../../pic32mx/lib/speed/libmchp_peripheral_32MX795F512L.a(int_disable_interrupts_lib.o)
 .debug_abbrev  0x00000397       0x28 /sdd/opt/microchip/xc32/v1.40/bin/bin/../../lib/gcc/pic32mx/4.8.3/../../../../pic32mx/lib/speed/libmchp_peripheral_32MX795F512L.a(int_restore_interrupts_lib.o)
 .debug_abbrev  0x000003bf       0x28 /sdd/opt/microchip/xc32/v1.40/bin/bin/../../lib/gcc/pic32mx/4.8.3/../../../../pic32mx/lib/speed/libmchp_peripheral_32MX795F512L.a(int_enable_mv_int_lib.o)
 .debug_abbrev  0x000003e7       0x28 /sdd/opt/microchip/xc32/v1.40/bin/bin/../../lib/gcc/pic32mx/4.8.3/../../../../pic32mx/lib/speed/libmchp_peripheral_32MX795F512L.a(int_tbl_lib.o)
 .debug_abbrev  0x0000040f       0x28 /sdd/opt/microchip/xc32/v1.40/bin/bin/../../lib/gcc/pic32mx/4.8.3/../../../../pic32mx/lib/speed/libmchp_peripheral_32MX795F512L.a(port_set_pins_digital_in_lib.o)
 .debug_abbrev  0x00000437       0x28 /sdd/opt/microchip/xc32/v1.40/bin/bin/../../lib/gcc/pic32mx/4.8.3/../../../../pic32mx/lib/speed/libmchp_peripheral_32MX795F512L.a(port_set_pins_digital_out_lib.o)
 .debug_abbrev  0x0000045f       0x3e /sdd/opt/microchip/xc32/v1.40/bin/bin/../../lib/gcc/pic32mx/4.8.3/../../../../pic32mx/lib/speed/libmchp_peripheral_32MX795F512L.a(uart_lib.o)
 .debug_abbrev  0x0000049d       0x28 /sdd/opt/microchip/xc32/v1.40/bin/bin/../../lib/gcc/pic32mx/4.8.3/../../../../pic32mx/lib/speed/libmchp_peripheral_32MX795F512L.a(int_enable_interrupts_lib.o)
 .debug_abbrev  0x000004c5      0x138 /sdd/opt/microchip/xc32/v1.40/bin/bin/../../lib/gcc/pic32mx/4.8.3/speed/libgcc.a(_udivdi3.o)
 .debug_abbrev  0x000005fd       0x62 /sdd/opt/microchip/xc32/v1.40/bin/bin/../../lib/gcc/pic32mx/4.8.3/speed/libgcc.a(floatunsisf.o)
 .debug_abbrev  0x0000065f       0x28 /sdd/opt/microchip/xc32/v1.40/bin/bin/../../lib/gcc/pic32mx/4.8.3/../../../../pic32mx/lib/speed/libpic32.a(default-bootstrap-exception-handler.o)
 .debug_abbrev  0x00000687       0x28 /sdd/opt/microchip/xc32/v1.40/bin/bin/../../lib/gcc/pic32mx/4.8.3/../../../../pic32mx/lib/speed/libpic32.a(default-on-reset.o)
 .debug_abbrev  0x000006af       0x28 /sdd/opt/microchip/xc32/v1.40/bin/bin/../../lib/gcc/pic32mx/4.8.3/../../../../pic32mx/lib/speed/libpic32.a(default-on-bootstrap.o)
 .debug_abbrev  0x000006d7       0x28 /sdd/opt/microchip/xc32/v1.40/bin/bin/../../lib/gcc/pic32mx/4.8.3/../../../../pic32mx/lib/speed/libpic32.a(defaultinterrupt.o)
 .debug_abbrev  0x000006ff       0x35 /sdd/opt/microchip/xc32/v1.40/bin/bin/../../lib/gcc/pic32mx/4.8.3/../../../../pic32mx/lib/speed/libm.a(__strtod.o)
 .debug_abbrev  0x00000734       0x35 /sdd/opt/microchip/xc32/v1.40/bin/bin/../../lib/gcc/pic32mx/4.8.3/../../../../pic32mx/lib/speed/libm.a(__strtof.o)
 .debug_abbrev  0x00000769       0x35 /sdd/opt/microchip/xc32/v1.40/bin/bin/../../lib/gcc/pic32mx/4.8.3/../../../../pic32mx/lib/speed/libe.a(_ldexp.o)
 .debug_abbrev  0x0000079e       0x35 /sdd/opt/microchip/xc32/v1.40/bin/bin/../../lib/gcc/pic32mx/4.8.3/../../../../pic32mx/lib/speed/libe.a(_ldexpf.o)
 .debug_abbrev  0x000007d3       0xd7 /sdd/opt/microchip/xc32/v1.40/bin/bin/../../lib/gcc/pic32mx/4.8.3/speed/libgcc.a(_lshrdi3.o)
 .debug_abbrev  0x000008aa       0xc8 /sdd/opt/microchip/xc32/v1.40/bin/bin/../../lib/gcc/pic32mx/4.8.3/speed/libgcc.a(_ashldi3.o)
 .debug_abbrev  0x00000972      0x13e /sdd/opt/microchip/xc32/v1.40/bin/bin/../../lib/gcc/pic32mx/4.8.3/speed/libgcc.a(_divdi3.o)
 .debug_abbrev  0x00000ab0      0x147 /sdd/opt/microchip/xc32/v1.40/bin/bin/../../lib/gcc/pic32mx/4.8.3/speed/libgcc.a(_umoddi3.o)

.debug_line     0x00000000     0x1340
 *(.debug_line)
 .debug_line    0x00000000       0x6b /sdd/opt/microchip/xc32/v1.40/bin/bin/../../lib/gcc/pic32mx/4.8.3/../../../../pic32mx/lib/speed/libmchp_peripheral.a(read_core_timer_lib.o)
 .debug_line    0x0000006b       0x7d /sdd/opt/microchip/xc32/v1.40/bin/bin/../../lib/gcc/pic32mx/4.8.3/../../../../pic32mx/lib/speed/libmchp_peripheral_32MX795F512L.a(eth_ack_packet_lib.o)
 .debug_line    0x000000e8       0x82 /sdd/opt/microchip/xc32/v1.40/bin/bin/../../lib/gcc/pic32mx/4.8.3/../../../../pic32mx/lib/speed/libmchp_peripheral_32MX795F512L.a(eth_descriptors_add_lib.o)
 .debug_line    0x0000016a       0x74 /sdd/opt/microchip/xc32/v1.40/bin/bin/../../lib/gcc/pic32mx/4.8.3/../../../../pic32mx/lib/speed/libmchp_peripheral_32MX795F512L.a(eth_init_lib.o)
 .debug_line    0x000001de       0x66 /sdd/opt/microchip/xc32/v1.40/bin/bin/../../lib/gcc/pic32mx/4.8.3/../../../../pic32mx/lib/speed/libmchp_peripheral_32MX795F512L.a(eth_mac_open_lib.o)
 .debug_line    0x00000244       0x71 /sdd/opt/microchip/xc32/v1.40/bin/bin/../../lib/gcc/pic32mx/4.8.3/../../../../pic32mx/lib/speed/libmchp_peripheral_32MX795F512L.a(eth_mac_set_address_max_lib.o)
 .debug_line    0x000002b5       0x84 /sdd/opt/microchip/xc32/v1.40/bin/bin/../../lib/gcc/pic32mx/4.8.3/../../../../pic32mx/lib/speed/libmchp_peripheral_32MX795F512L.a(eth_rx_buffers_append_lib.o)
 .debug_line    0x00000339       0x68 /sdd/opt/microchip/xc32/v1.40/bin/bin/../../lib/gcc/pic32mx/4.8.3/../../../../pic32mx/lib/speed/libmchp_peripheral_32MX795F512L.a(eth_rx_filters_lib.o)
 .debug_line    0x000003a1       0x6b /sdd/opt/microchip/xc32/v1.40/bin/bin/../../lib/gcc/pic32mx/4.8.3/../../../../pic32mx/lib/speed/libmchp_peripheral_32MX795F512L.a(eth_rx_get_packet_lib.o)
 .debug_line    0x0000040c       0x70 /sdd/opt/microchip/xc32/v1.40/bin/bin/../../lib/gcc/pic32mx/4.8.3/../../../../pic32mx/lib/speed/libmchp_peripheral_32MX795F512L.a(eth_rx_set_buffer_size_lib.o)
 .debug_line    0x0000047c       0x7c /sdd/opt/microchip/xc32/v1.40/bin/bin/../../lib/gcc/pic32mx/4.8.3/../../../../pic32mx/lib/speed/libmchp_peripheral_32MX795F512L.a(eth_tx_packet_lib.o)
 .debug_line    0x000004f8       0x84 /sdd/opt/microchip/xc32/v1.40/bin/bin/../../lib/gcc/pic32mx/4.8.3/../../../../pic32mx/lib/speed/libmchp_peripheral_32MX795F512L.a(_eth_append_busy_list_lib.o)
 .debug_line    0x0000057c       0x65 /sdd/opt/microchip/xc32/v1.40/bin/bin/../../lib/gcc/pic32mx/4.8.3/../../../../pic32mx/lib/speed/libmchp_peripheral_32MX795F512L.a(eth_miim_access.o)
 .debug_line    0x000005e1       0xab /sdd/opt/microchip/xc32/v1.40/bin/bin/../../lib/gcc/pic32mx/4.8.3/../../../../pic32mx/lib/speed/libmchp_peripheral_32MX795F512L.a(soft_reset_lib.o)
 .debug_line    0x0000068c       0x5f /sdd/opt/microchip/xc32/v1.40/bin/bin/../../lib/gcc/pic32mx/4.8.3/../../../../pic32mx/lib/speed/libmchp_peripheral_32MX795F512L.a(pcache.o)
 .debug_line    0x000006eb       0x70 /sdd/opt/microchip/xc32/v1.40/bin/bin/../../lib/gcc/pic32mx/4.8.3/../../../../pic32mx/lib/speed/libmchp_peripheral_32MX795F512L.a(int_disable_interrupts_lib.o)
 .debug_line    0x0000075b       0x70 /sdd/opt/microchip/xc32/v1.40/bin/bin/../../lib/gcc/pic32mx/4.8.3/../../../../pic32mx/lib/speed/libmchp_peripheral_32MX795F512L.a(int_restore_interrupts_lib.o)
 .debug_line    0x000007cb       0x6b /sdd/opt/microchip/xc32/v1.40/bin/bin/../../lib/gcc/pic32mx/4.8.3/../../../../pic32mx/lib/speed/libmchp_peripheral_32MX795F512L.a(int_enable_mv_int_lib.o)
 .debug_line    0x00000836       0x61 /sdd/opt/microchip/xc32/v1.40/bin/bin/../../lib/gcc/pic32mx/4.8.3/../../../../pic32mx/lib/speed/libmchp_peripheral_32MX795F512L.a(int_tbl_lib.o)
 .debug_line    0x00000897       0x74 /sdd/opt/microchip/xc32/v1.40/bin/bin/../../lib/gcc/pic32mx/4.8.3/../../../../pic32mx/lib/speed/libmchp_peripheral_32MX795F512L.a(port_set_pins_digital_in_lib.o)
 .debug_line    0x0000090b       0x75 /sdd/opt/microchip/xc32/v1.40/bin/bin/../../lib/gcc/pic32mx/4.8.3/../../../../pic32mx/lib/speed/libmchp_peripheral_32MX795F512L.a(port_set_pins_digital_out_lib.o)
 .debug_line    0x00000980        0x0 /sdd/opt/microchip/xc32/v1.40/bin/bin/../../lib/gcc/pic32mx/4.8.3/../../../../pic32mx/lib/speed/libmchp_peripheral_32MX795F512L.a(_ports_tbl_libp.o)
 .debug_line    0x00000980       0x5f /sdd/opt/microchip/xc32/v1.40/bin/bin/../../lib/gcc/pic32mx/4.8.3/../../../../pic32mx/lib/speed/libmchp_peripheral_32MX795F512L.a(uart_lib.o)
 .debug_line    0x000009df       0x6f /sdd/opt/microchip/xc32/v1.40/bin/bin/../../lib/gcc/pic32mx/4.8.3/../../../../pic32mx/lib/speed/libmchp_peripheral_32MX795F512L.a(int_enable_interrupts_lib.o)
 .debug_line    0x00000a4e       0xed /sdd/opt/microchip/xc32/v1.40/bin/bin/../../lib/gcc/pic32mx/4.8.3/speed/libgcc.a(_udivdi3.o)
 .debug_line    0x00000b3b       0x8a /sdd/opt/microchip/xc32/v1.40/bin/bin/../../lib/gcc/pic32mx/4.8.3/speed/libgcc.a(floatunsisf.o)
 .debug_line    0x00000bc5       0x97 /sdd/opt/microchip/xc32/v1.40/bin/bin/../../lib/gcc/pic32mx/4.8.3/../../../../pic32mx/lib/speed/libpic32.a(default-bootstrap-exception-handler.o)
 .debug_line    0x00000c5c       0x84 /sdd/opt/microchip/xc32/v1.40/bin/bin/../../lib/gcc/pic32mx/4.8.3/../../../../pic32mx/lib/speed/libpic32.a(default-on-reset.o)
 .debug_line    0x00000ce0       0x88 /sdd/opt/microchip/xc32/v1.40/bin/bin/../../lib/gcc/pic32mx/4.8.3/../../../../pic32mx/lib/speed/libpic32.a(default-on-bootstrap.o)
 .debug_line    0x00000d68       0x96 /sdd/opt/microchip/xc32/v1.40/bin/bin/../../lib/gcc/pic32mx/4.8.3/../../../../pic32mx/lib/speed/libpic32.a(defaultinterrupt.o)
 .debug_line    0x00000dfe       0x79 /sdd/opt/microchip/xc32/v1.40/bin/bin/../../lib/gcc/pic32mx/4.8.3/../../../../pic32mx/lib/speed/libm.a(__strtod.o)
 .debug_line    0x00000e77       0x79 /sdd/opt/microchip/xc32/v1.40/bin/bin/../../lib/gcc/pic32mx/4.8.3/../../../../pic32mx/lib/speed/libm.a(__strtof.o)
 .debug_line    0x00000ef0       0x93 /sdd/opt/microchip/xc32/v1.40/bin/bin/../../lib/gcc/pic32mx/4.8.3/../../../../pic32mx/lib/speed/libe.a(_ldexp.o)
 .debug_line    0x00000f83       0x93 /sdd/opt/microchip/xc32/v1.40/bin/bin/../../lib/gcc/pic32mx/4.8.3/../../../../pic32mx/lib/speed/libe.a(_ldexpf.o)
 .debug_line    0x00001016       0x9b /sdd/opt/microchip/xc32/v1.40/bin/bin/../../lib/gcc/pic32mx/4.8.3/speed/libgcc.a(_lshrdi3.o)
 .debug_line    0x000010b1       0x9b /sdd/opt/microchip/xc32/v1.40/bin/bin/../../lib/gcc/pic32mx/4.8.3/speed/libgcc.a(_ashldi3.o)
 .debug_line    0x0000114c       0xf5 /sdd/opt/microchip/xc32/v1.40/bin/bin/../../lib/gcc/pic32mx/4.8.3/speed/libgcc.a(_divdi3.o)
 .debug_line    0x00001241       0xff /sdd/opt/microchip/xc32/v1.40/bin/bin/../../lib/gcc/pic32mx/4.8.3/speed/libgcc.a(_umoddi3.o)

.debug_frame    0x00000000      0x7f8
 *(.debug_frame)
 .debug_frame   0x00000000       0x20 /sdd/opt/microchip/xc32/v1.40/bin/bin/../../lib/gcc/pic32mx/4.8.3/../../../../pic32mx/lib/speed/libmchp_peripheral.a(read_core_timer_lib.o)
 .debug_frame   0x00000020       0xb0 /sdd/opt/microchip/xc32/v1.40/bin/bin/../../lib/gcc/pic32mx/4.8.3/../../../../pic32mx/lib/speed/libmchp_peripheral_32MX795F512L.a(eth_ack_packet_lib.o)
 .debug_frame   0x000000d0       0x50 /sdd/opt/microchip/xc32/v1.40/bin/bin/../../lib/gcc/pic32mx/4.8.3/../../../../pic32mx/lib/speed/libmchp_peripheral_32MX795F512L.a(eth_descriptors_add_lib.o)
 .debug_frame   0x00000120       0x28 /sdd/opt/microchip/xc32/v1.40/bin/bin/../../lib/gcc/pic32mx/4.8.3/../../../../pic32mx/lib/speed/libmchp_peripheral_32MX795F512L.a(eth_init_lib.o)
 .debug_frame   0x00000148       0x20 /sdd/opt/microchip/xc32/v1.40/bin/bin/../../lib/gcc/pic32mx/4.8.3/../../../../pic32mx/lib/speed/libmchp_peripheral_32MX795F512L.a(eth_mac_open_lib.o)
 .debug_frame   0x00000168       0x50 /sdd/opt/microchip/xc32/v1.40/bin/bin/../../lib/gcc/pic32mx/4.8.3/../../../../pic32mx/lib/speed/libmchp_peripheral_32MX795F512L.a(eth_mac_set_address_max_lib.o)
 .debug_frame   0x000001b8       0x28 /sdd/opt/microchip/xc32/v1.40/bin/bin/../../lib/gcc/pic32mx/4.8.3/../../../../pic32mx/lib/speed/libmchp_peripheral_32MX795F512L.a(eth_rx_buffers_append_lib.o)
 .debug_frame   0x000001e0       0x70 /sdd/opt/microchip/xc32/v1.40/bin/bin/../../lib/gcc/pic32mx/4.8.3/../../../../pic32mx/lib/speed/libmchp_peripheral_32MX795F512L.a(eth_rx_filters_lib.o)
 .debug_frame   0x00000250       0x38 /sdd/opt/microchip/xc32/v1.40/bin/bin/../../lib/gcc/pic32mx/4.8.3/../../../../pic32mx/lib/speed/libmchp_peripheral_32MX795F512L.a(eth_rx_get_packet_lib.o)
 .debug_frame   0x00000288       0x20 /sdd/opt/microchip/xc32/v1.40/bin/bin/../../lib/gcc/pic32mx/4.8.3/../../../../pic32mx/lib/speed/libmchp_peripheral_32MX795F512L.a(eth_rx_set_buffer_size_lib.o)
 .debug_frame   0x000002a8       0x60 /sdd/opt/microchip/xc32/v1.40/bin/bin/../../lib/gcc/pic32mx/4.8.3/../../../../pic32mx/lib/speed/libmchp_peripheral_32MX795F512L.a(eth_tx_packet_lib.o)
 .debug_frame   0x00000308       0x20 /sdd/opt/microchip/xc32/v1.40/bin/bin/../../lib/gcc/pic32mx/4.8.3/../../../../pic32mx/lib/speed/libmchp_peripheral_32MX795F512L.a(_eth_append_busy_list_lib.o)
 .debug_frame   0x00000328       0x70 /sdd/opt/microchip/xc32/v1.40/bin/bin/../../lib/gcc/pic32mx/4.8.3/../../../../pic32mx/lib/speed/libmchp_peripheral_32MX795F512L.a(eth_miim_access.o)
 .debug_frame   0x00000398       0x28 /sdd/opt/microchip/xc32/v1.40/bin/bin/../../lib/gcc/pic32mx/4.8.3/../../../../pic32mx/lib/speed/libmchp_peripheral_32MX795F512L.a(soft_reset_lib.o)
 .debug_frame   0x000003c0       0x30 /sdd/opt/microchip/xc32/v1.40/bin/bin/../../lib/gcc/pic32mx/4.8.3/../../../../pic32mx/lib/speed/libmchp_peripheral_32MX795F512L.a(pcache.o)
 .debug_frame   0x000003f0       0x20 /sdd/opt/microchip/xc32/v1.40/bin/bin/../../lib/gcc/pic32mx/4.8.3/../../../../pic32mx/lib/speed/libmchp_peripheral_32MX795F512L.a(int_disable_interrupts_lib.o)
 .debug_frame   0x00000410       0x20 /sdd/opt/microchip/xc32/v1.40/bin/bin/../../lib/gcc/pic32mx/4.8.3/../../../../pic32mx/lib/speed/libmchp_peripheral_32MX795F512L.a(int_restore_interrupts_lib.o)
 .debug_frame   0x00000430       0x28 /sdd/opt/microchip/xc32/v1.40/bin/bin/../../lib/gcc/pic32mx/4.8.3/../../../../pic32mx/lib/speed/libmchp_peripheral_32MX795F512L.a(int_enable_mv_int_lib.o)
 .debug_frame   0x00000458       0xa0 /sdd/opt/microchip/xc32/v1.40/bin/bin/../../lib/gcc/pic32mx/4.8.3/../../../../pic32mx/lib/speed/libmchp_peripheral_32MX795F512L.a(int_tbl_lib.o)
 .debug_frame   0x000004f8       0x20 /sdd/opt/microchip/xc32/v1.40/bin/bin/../../lib/gcc/pic32mx/4.8.3/../../../../pic32mx/lib/speed/libmchp_peripheral_32MX795F512L.a(port_set_pins_digital_in_lib.o)
 .debug_frame   0x00000518       0x20 /sdd/opt/microchip/xc32/v1.40/bin/bin/../../lib/gcc/pic32mx/4.8.3/../../../../pic32mx/lib/speed/libmchp_peripheral_32MX795F512L.a(port_set_pins_digital_out_lib.o)
 .debug_frame   0x00000538       0x90 /sdd/opt/microchip/xc32/v1.40/bin/bin/../../lib/gcc/pic32mx/4.8.3/../../../../pic32mx/lib/speed/libmchp_peripheral_32MX795F512L.a(uart_lib.o)
 .debug_frame   0x000005c8       0x20 /sdd/opt/microchip/xc32/v1.40/bin/bin/../../lib/gcc/pic32mx/4.8.3/../../../../pic32mx/lib/speed/libmchp_peripheral_32MX795F512L.a(int_enable_interrupts_lib.o)
 .debug_frame   0x000005e8       0x20 /sdd/opt/microchip/xc32/v1.40/bin/bin/../../lib/gcc/pic32mx/4.8.3/speed/libgcc.a(_udivdi3.o)
 .debug_frame   0x00000608       0x28 /sdd/opt/microchip/xc32/v1.40/bin/bin/../../lib/gcc/pic32mx/4.8.3/speed/libgcc.a(floatunsisf.o)
 .debug_frame   0x00000630       0x2c /sdd/opt/microchip/xc32/v1.40/bin/bin/../../lib/gcc/pic32mx/4.8.3/../../../../pic32mx/lib/speed/libpic32.a(default-bootstrap-exception-handler.o)
 .debug_frame   0x0000065c       0x20 /sdd/opt/microchip/xc32/v1.40/bin/bin/../../lib/gcc/pic32mx/4.8.3/../../../../pic32mx/lib/speed/libpic32.a(default-on-reset.o)
 .debug_frame   0x0000067c       0x20 /sdd/opt/microchip/xc32/v1.40/bin/bin/../../lib/gcc/pic32mx/4.8.3/../../../../pic32mx/lib/speed/libpic32.a(default-on-bootstrap.o)
 .debug_frame   0x0000069c       0x20 /sdd/opt/microchip/xc32/v1.40/bin/bin/../../lib/gcc/pic32mx/4.8.3/../../../../pic32mx/lib/speed/libpic32.a(defaultinterrupt.o)
 .debug_frame   0x000006bc       0x38 /sdd/opt/microchip/xc32/v1.40/bin/bin/../../lib/gcc/pic32mx/4.8.3/../../../../pic32mx/lib/speed/libm.a(__strtod.o)
 .debug_frame   0x000006f4       0x38 /sdd/opt/microchip/xc32/v1.40/bin/bin/../../lib/gcc/pic32mx/4.8.3/../../../../pic32mx/lib/speed/libm.a(__strtof.o)
 .debug_frame   0x0000072c       0x2c /sdd/opt/microchip/xc32/v1.40/bin/bin/../../lib/gcc/pic32mx/4.8.3/../../../../pic32mx/lib/speed/libe.a(_ldexp.o)
 .debug_frame   0x00000758       0x20 /sdd/opt/microchip/xc32/v1.40/bin/bin/../../lib/gcc/pic32mx/4.8.3/../../../../pic32mx/lib/speed/libe.a(_ldexpf.o)
 .debug_frame   0x00000778       0x20 /sdd/opt/microchip/xc32/v1.40/bin/bin/../../lib/gcc/pic32mx/4.8.3/speed/libgcc.a(_lshrdi3.o)
 .debug_frame   0x00000798       0x20 /sdd/opt/microchip/xc32/v1.40/bin/bin/../../lib/gcc/pic32mx/4.8.3/speed/libgcc.a(_ashldi3.o)
 .debug_frame   0x000007b8       0x20 /sdd/opt/microchip/xc32/v1.40/bin/bin/../../lib/gcc/pic32mx/4.8.3/speed/libgcc.a(_divdi3.o)
 .debug_frame   0x000007d8       0x20 /sdd/opt/microchip/xc32/v1.40/bin/bin/../../lib/gcc/pic32mx/4.8.3/speed/libgcc.a(_umoddi3.o)

.debug_str      0x00000000        0x0
 *(.debug_str)
 .debug_str     0x00000000        0x0 /sdd/opt/microchip/xc32/v1.40/bin/bin/../../lib/gcc/pic32mx/4.8.3/../../../../pic32mx/lib/speed/libmchp_peripheral.a(read_core_timer_lib.o)
 .debug_str     0x00000000        0x0 /sdd/opt/microchip/xc32/v1.40/bin/bin/../../lib/gcc/pic32mx/4.8.3/../../../../pic32mx/lib/speed/libmchp_peripheral_32MX795F512L.a(eth_ack_packet_lib.o)
 .debug_str     0x00000000        0x0 /sdd/opt/microchip/xc32/v1.40/bin/bin/../../lib/gcc/pic32mx/4.8.3/../../../../pic32mx/lib/speed/libmchp_peripheral_32MX795F512L.a(eth_descriptors_add_lib.o)
 .debug_str     0x00000000        0x0 /sdd/opt/microchip/xc32/v1.40/bin/bin/../../lib/gcc/pic32mx/4.8.3/../../../../pic32mx/lib/speed/libmchp_peripheral_32MX795F512L.a(eth_init_lib.o)
 .debug_str     0x00000000        0x0 /sdd/opt/microchip/xc32/v1.40/bin/bin/../../lib/gcc/pic32mx/4.8.3/../../../../pic32mx/lib/speed/libmchp_peripheral_32MX795F512L.a(eth_mac_open_lib.o)
 .debug_str     0x00000000        0x0 /sdd/opt/microchip/xc32/v1.40/bin/bin/../../lib/gcc/pic32mx/4.8.3/../../../../pic32mx/lib/speed/libmchp_peripheral_32MX795F512L.a(eth_mac_set_address_max_lib.o)
 .debug_str     0x00000000        0x0 /sdd/opt/microchip/xc32/v1.40/bin/bin/../../lib/gcc/pic32mx/4.8.3/../../../../pic32mx/lib/speed/libmchp_peripheral_32MX795F512L.a(eth_rx_buffers_append_lib.o)
 .debug_str     0x00000000        0x0 /sdd/opt/microchip/xc32/v1.40/bin/bin/../../lib/gcc/pic32mx/4.8.3/../../../../pic32mx/lib/speed/libmchp_peripheral_32MX795F512L.a(eth_rx_filters_lib.o)
 .debug_str     0x00000000        0x0 /sdd/opt/microchip/xc32/v1.40/bin/bin/../../lib/gcc/pic32mx/4.8.3/../../../../pic32mx/lib/speed/libmchp_peripheral_32MX795F512L.a(eth_rx_get_packet_lib.o)
 .debug_str     0x00000000        0x0 /sdd/opt/microchip/xc32/v1.40/bin/bin/../../lib/gcc/pic32mx/4.8.3/../../../../pic32mx/lib/speed/libmchp_peripheral_32MX795F512L.a(eth_rx_set_buffer_size_lib.o)
 .debug_str     0x00000000        0x0 /sdd/opt/microchip/xc32/v1.40/bin/bin/../../lib/gcc/pic32mx/4.8.3/../../../../pic32mx/lib/speed/libmchp_peripheral_32MX795F512L.a(eth_tx_packet_lib.o)
 .debug_str     0x00000000        0x0 /sdd/opt/microchip/xc32/v1.40/bin/bin/../../lib/gcc/pic32mx/4.8.3/../../../../pic32mx/lib/speed/libmchp_peripheral_32MX795F512L.a(_eth_append_busy_list_lib.o)
 .debug_str     0x00000000        0x0 /sdd/opt/microchip/xc32/v1.40/bin/bin/../../lib/gcc/pic32mx/4.8.3/../../../../pic32mx/lib/speed/libmchp_peripheral_32MX795F512L.a(eth_miim_access.o)
 .debug_str     0x00000000        0x0 /sdd/opt/microchip/xc32/v1.40/bin/bin/../../lib/gcc/pic32mx/4.8.3/../../../../pic32mx/lib/speed/libmchp_peripheral_32MX795F512L.a(soft_reset_lib.o)
 .debug_str     0x00000000        0x0 /sdd/opt/microchip/xc32/v1.40/bin/bin/../../lib/gcc/pic32mx/4.8.3/../../../../pic32mx/lib/speed/libmchp_peripheral_32MX795F512L.a(pcache.o)
 .debug_str     0x00000000        0x0 /sdd/opt/microchip/xc32/v1.40/bin/bin/../../lib/gcc/pic32mx/4.8.3/../../../../pic32mx/lib/speed/libmchp_peripheral_32MX795F512L.a(int_disable_interrupts_lib.o)
 .debug_str     0x00000000        0x0 /sdd/opt/microchip/xc32/v1.40/bin/bin/../../lib/gcc/pic32mx/4.8.3/../../../../pic32mx/lib/speed/libmchp_peripheral_32MX795F512L.a(int_restore_interrupts_lib.o)
 .debug_str     0x00000000        0x0 /sdd/opt/microchip/xc32/v1.40/bin/bin/../../lib/gcc/pic32mx/4.8.3/../../../../pic32mx/lib/speed/libmchp_peripheral_32MX795F512L.a(int_enable_mv_int_lib.o)
 .debug_str     0x00000000        0x0 /sdd/opt/microchip/xc32/v1.40/bin/bin/../../lib/gcc/pic32mx/4.8.3/../../../../pic32mx/lib/speed/libmchp_peripheral_32MX795F512L.a(int_tbl_lib.o)
 .debug_str     0x00000000        0x0 /sdd/opt/microchip/xc32/v1.40/bin/bin/../../lib/gcc/pic32mx/4.8.3/../../../../pic32mx/lib/speed/libmchp_peripheral_32MX795F512L.a(port_set_pins_digital_in_lib.o)
 .debug_str     0x00000000        0x0 /sdd/opt/microchip/xc32/v1.40/bin/bin/../../lib/gcc/pic32mx/4.8.3/../../../../pic32mx/lib/speed/libmchp_peripheral_32MX795F512L.a(port_set_pins_digital_out_lib.o)
 .debug_str     0x00000000        0x0 /sdd/opt/microchip/xc32/v1.40/bin/bin/../../lib/gcc/pic32mx/4.8.3/../../../../pic32mx/lib/speed/libmchp_peripheral_32MX795F512L.a(_ports_tbl_libp.o)
 .debug_str     0x00000000        0x0 /sdd/opt/microchip/xc32/v1.40/bin/bin/../../lib/gcc/pic32mx/4.8.3/../../../../pic32mx/lib/speed/libmchp_peripheral_32MX795F512L.a(uart_lib.o)
 .debug_str     0x00000000        0x0 /sdd/opt/microchip/xc32/v1.40/bin/bin/../../lib/gcc/pic32mx/4.8.3/../../../../pic32mx/lib/speed/libmchp_peripheral_32MX795F512L.a(int_enable_interrupts_lib.o)
 .debug_str     0x00000000        0x0 /sdd/opt/microchip/xc32/v1.40/bin/bin/../../lib/gcc/pic32mx/4.8.3/speed/libgcc.a(_udivdi3.o)
 .debug_str     0x00000000        0x0 /sdd/opt/microchip/xc32/v1.40/bin/bin/../../lib/gcc/pic32mx/4.8.3/speed/libgcc.a(floatunsisf.o)
 .debug_str     0x00000000        0x0 /sdd/opt/microchip/xc32/v1.40/bin/bin/../../lib/gcc/pic32mx/4.8.3/../../../../pic32mx/lib/speed/libpic32.a(default-bootstrap-exception-handler.o)
 .debug_str     0x00000000        0x0 /sdd/opt/microchip/xc32/v1.40/bin/bin/../../lib/gcc/pic32mx/4.8.3/../../../../pic32mx/lib/speed/libpic32.a(default-on-reset.o)
 .debug_str     0x00000000        0x0 /sdd/opt/microchip/xc32/v1.40/bin/bin/../../lib/gcc/pic32mx/4.8.3/../../../../pic32mx/lib/speed/libpic32.a(default-on-bootstrap.o)
 .debug_str     0x00000000        0x0 /sdd/opt/microchip/xc32/v1.40/bin/bin/../../lib/gcc/pic32mx/4.8.3/../../../../pic32mx/lib/speed/libpic32.a(defaultinterrupt.o)
 .debug_str     0x00000000        0x0 /sdd/opt/microchip/xc32/v1.40/bin/bin/../../lib/gcc/pic32mx/4.8.3/../../../../pic32mx/lib/speed/libm.a(__strtod.o)
 .debug_str     0x00000000        0x0 /sdd/opt/microchip/xc32/v1.40/bin/bin/../../lib/gcc/pic32mx/4.8.3/../../../../pic32mx/lib/speed/libm.a(__strtof.o)
 .debug_str     0x00000000        0x0 /sdd/opt/microchip/xc32/v1.40/bin/bin/../../lib/gcc/pic32mx/4.8.3/../../../../pic32mx/lib/speed/libe.a(_ldexp.o)
 .debug_str     0x00000000        0x0 /sdd/opt/microchip/xc32/v1.40/bin/bin/../../lib/gcc/pic32mx/4.8.3/../../../../pic32mx/lib/speed/libe.a(_ldexpf.o)
 .debug_str     0x00000000        0x0 /sdd/opt/microchip/xc32/v1.40/bin/bin/../../lib/gcc/pic32mx/4.8.3/speed/libgcc.a(_lshrdi3.o)
 .debug_str     0x00000000        0x0 /sdd/opt/microchip/xc32/v1.40/bin/bin/../../lib/gcc/pic32mx/4.8.3/speed/libgcc.a(_ashldi3.o)
 .debug_str     0x00000000        0x0 /sdd/opt/microchip/xc32/v1.40/bin/bin/../../lib/gcc/pic32mx/4.8.3/speed/libgcc.a(_divdi3.o)
 .debug_str     0x00000000        0x0 /sdd/opt/microchip/xc32/v1.40/bin/bin/../../lib/gcc/pic32mx/4.8.3/speed/libgcc.a(_umoddi3.o)

.debug_loc      0x00000000     0x2046
 *(.debug_loc)
 .debug_loc     0x00000000      0xa6a /sdd/opt/microchip/xc32/v1.40/bin/bin/../../lib/gcc/pic32mx/4.8.3/speed/libgcc.a(_udivdi3.o)
 .debug_loc     0x00000a6a       0x74 /sdd/opt/microchip/xc32/v1.40/bin/bin/../../lib/gcc/pic32mx/4.8.3/speed/libgcc.a(floatunsisf.o)
 .debug_loc     0x00000ade       0xbb /sdd/opt/microchip/xc32/v1.40/bin/bin/../../lib/gcc/pic32mx/4.8.3/speed/libgcc.a(_lshrdi3.o)
 .debug_loc     0x00000b99       0x82 /sdd/opt/microchip/xc32/v1.40/bin/bin/../../lib/gcc/pic32mx/4.8.3/speed/libgcc.a(_ashldi3.o)
 .debug_loc     0x00000c1b      0x9ee /sdd/opt/microchip/xc32/v1.40/bin/bin/../../lib/gcc/pic32mx/4.8.3/speed/libgcc.a(_divdi3.o)
 .debug_loc     0x00001609      0xa3d /sdd/opt/microchip/xc32/v1.40/bin/bin/../../lib/gcc/pic32mx/4.8.3/speed/libgcc.a(_umoddi3.o)

.debug_macinfo
 *(.debug_macinfo)

.debug_weaknames
 *(.debug_weaknames)

.debug_funcnames
 *(.debug_funcnames)

.debug_typenames
 *(.debug_typenames)

.debug_varnames
 *(.debug_varnames)

.debug_pubtypes
 *(.debug_pubtypes)

.debug_ranges   0x00000000      0x508
 *(.debug_ranges)
 .debug_ranges  0x00000000       0x10 /sdd/opt/microchip/xc32/v1.40/bin/bin/../../lib/gcc/pic32mx/4.8.3/../../../../pic32mx/lib/speed/libmchp_peripheral.a(read_core_timer_lib.o)
 .debug_ranges  0x00000010       0x38 /sdd/opt/microchip/xc32/v1.40/bin/bin/../../lib/gcc/pic32mx/4.8.3/../../../../pic32mx/lib/speed/libmchp_peripheral_32MX795F512L.a(eth_ack_packet_lib.o)
 .debug_ranges  0x00000048       0x18 /sdd/opt/microchip/xc32/v1.40/bin/bin/../../lib/gcc/pic32mx/4.8.3/../../../../pic32mx/lib/speed/libmchp_peripheral_32MX795F512L.a(eth_descriptors_add_lib.o)
 .debug_ranges  0x00000060       0x10 /sdd/opt/microchip/xc32/v1.40/bin/bin/../../lib/gcc/pic32mx/4.8.3/../../../../pic32mx/lib/speed/libmchp_peripheral_32MX795F512L.a(eth_init_lib.o)
 .debug_ranges  0x00000070       0x10 /sdd/opt/microchip/xc32/v1.40/bin/bin/../../lib/gcc/pic32mx/4.8.3/../../../../pic32mx/lib/speed/libmchp_peripheral_32MX795F512L.a(eth_mac_open_lib.o)
 .debug_ranges  0x00000080       0x20 /sdd/opt/microchip/xc32/v1.40/bin/bin/../../lib/gcc/pic32mx/4.8.3/../../../../pic32mx/lib/speed/libmchp_peripheral_32MX795F512L.a(eth_mac_set_address_max_lib.o)
 .debug_ranges  0x000000a0       0x10 /sdd/opt/microchip/xc32/v1.40/bin/bin/../../lib/gcc/pic32mx/4.8.3/../../../../pic32mx/lib/speed/libmchp_peripheral_32MX795F512L.a(eth_rx_buffers_append_lib.o)
 .debug_ranges  0x000000b0       0x38 /sdd/opt/microchip/xc32/v1.40/bin/bin/../../lib/gcc/pic32mx/4.8.3/../../../../pic32mx/lib/speed/libmchp_peripheral_32MX795F512L.a(eth_rx_filters_lib.o)
 .debug_ranges  0x000000e8       0x18 /sdd/opt/microchip/xc32/v1.40/bin/bin/../../lib/gcc/pic32mx/4.8.3/../../../../pic32mx/lib/speed/libmchp_peripheral_32MX795F512L.a(eth_rx_get_packet_lib.o)
 .debug_ranges  0x00000100       0x10 /sdd/opt/microchip/xc32/v1.40/bin/bin/../../lib/gcc/pic32mx/4.8.3/../../../../pic32mx/lib/speed/libmchp_peripheral_32MX795F512L.a(eth_rx_set_buffer_size_lib.o)
 .debug_ranges  0x00000110       0x28 /sdd/opt/microchip/xc32/v1.40/bin/bin/../../lib/gcc/pic32mx/4.8.3/../../../../pic32mx/lib/speed/libmchp_peripheral_32MX795F512L.a(eth_tx_packet_lib.o)
 .debug_ranges  0x00000138       0x10 /sdd/opt/microchip/xc32/v1.40/bin/bin/../../lib/gcc/pic32mx/4.8.3/../../../../pic32mx/lib/speed/libmchp_peripheral_32MX795F512L.a(_eth_append_busy_list_lib.o)
 .debug_ranges  0x00000148       0x38 /sdd/opt/microchip/xc32/v1.40/bin/bin/../../lib/gcc/pic32mx/4.8.3/../../../../pic32mx/lib/speed/libmchp_peripheral_32MX795F512L.a(eth_miim_access.o)
 .debug_ranges  0x00000180       0x10 /sdd/opt/microchip/xc32/v1.40/bin/bin/../../lib/gcc/pic32mx/4.8.3/../../../../pic32mx/lib/speed/libmchp_peripheral_32MX795F512L.a(soft_reset_lib.o)
 .debug_ranges  0x00000190       0x18 /sdd/opt/microchip/xc32/v1.40/bin/bin/../../lib/gcc/pic32mx/4.8.3/../../../../pic32mx/lib/speed/libmchp_peripheral_32MX795F512L.a(pcache.o)
 .debug_ranges  0x000001a8       0x10 /sdd/opt/microchip/xc32/v1.40/bin/bin/../../lib/gcc/pic32mx/4.8.3/../../../../pic32mx/lib/speed/libmchp_peripheral_32MX795F512L.a(int_disable_interrupts_lib.o)
 .debug_ranges  0x000001b8       0x10 /sdd/opt/microchip/xc32/v1.40/bin/bin/../../lib/gcc/pic32mx/4.8.3/../../../../pic32mx/lib/speed/libmchp_peripheral_32MX795F512L.a(int_restore_interrupts_lib.o)
 .debug_ranges  0x000001c8       0x10 /sdd/opt/microchip/xc32/v1.40/bin/bin/../../lib/gcc/pic32mx/4.8.3/../../../../pic32mx/lib/speed/libmchp_peripheral_32MX795F512L.a(int_enable_mv_int_lib.o)
 .debug_ranges  0x000001d8       0x50 /sdd/opt/microchip/xc32/v1.40/bin/bin/../../lib/gcc/pic32mx/4.8.3/../../../../pic32mx/lib/speed/libmchp_peripheral_32MX795F512L.a(int_tbl_lib.o)
 .debug_ranges  0x00000228       0x10 /sdd/opt/microchip/xc32/v1.40/bin/bin/../../lib/gcc/pic32mx/4.8.3/../../../../pic32mx/lib/speed/libmchp_peripheral_32MX795F512L.a(port_set_pins_digital_in_lib.o)
 .debug_ranges  0x00000238       0x10 /sdd/opt/microchip/xc32/v1.40/bin/bin/../../lib/gcc/pic32mx/4.8.3/../../../../pic32mx/lib/speed/libmchp_peripheral_32MX795F512L.a(port_set_pins_digital_out_lib.o)
 .debug_ranges  0x00000248       0x48 /sdd/opt/microchip/xc32/v1.40/bin/bin/../../lib/gcc/pic32mx/4.8.3/../../../../pic32mx/lib/speed/libmchp_peripheral_32MX795F512L.a(uart_lib.o)
 .debug_ranges  0x00000290       0x10 /sdd/opt/microchip/xc32/v1.40/bin/bin/../../lib/gcc/pic32mx/4.8.3/../../../../pic32mx/lib/speed/libmchp_peripheral_32MX795F512L.a(int_enable_interrupts_lib.o)
 .debug_ranges  0x000002a0       0x98 /sdd/opt/microchip/xc32/v1.40/bin/bin/../../lib/gcc/pic32mx/4.8.3/speed/libgcc.a(_udivdi3.o)
 .debug_ranges  0x00000338       0x10 /sdd/opt/microchip/xc32/v1.40/bin/bin/../../lib/gcc/pic32mx/4.8.3/../../../../pic32mx/lib/speed/libpic32.a(default-bootstrap-exception-handler.o)
 .debug_ranges  0x00000348       0x10 /sdd/opt/microchip/xc32/v1.40/bin/bin/../../lib/gcc/pic32mx/4.8.3/../../../../pic32mx/lib/speed/libpic32.a(default-on-reset.o)
 .debug_ranges  0x00000358       0x10 /sdd/opt/microchip/xc32/v1.40/bin/bin/../../lib/gcc/pic32mx/4.8.3/../../../../pic32mx/lib/speed/libpic32.a(default-on-bootstrap.o)
 .debug_ranges  0x00000368       0x10 /sdd/opt/microchip/xc32/v1.40/bin/bin/../../lib/gcc/pic32mx/4.8.3/../../../../pic32mx/lib/speed/libpic32.a(defaultinterrupt.o)
 .debug_ranges  0x00000378       0x10 /sdd/opt/microchip/xc32/v1.40/bin/bin/../../lib/gcc/pic32mx/4.8.3/../../../../pic32mx/lib/speed/libm.a(__strtod.o)
 .debug_ranges  0x00000388       0x10 /sdd/opt/microchip/xc32/v1.40/bin/bin/../../lib/gcc/pic32mx/4.8.3/../../../../pic32mx/lib/speed/libm.a(__strtof.o)
 .debug_ranges  0x00000398       0x10 /sdd/opt/microchip/xc32/v1.40/bin/bin/../../lib/gcc/pic32mx/4.8.3/../../../../pic32mx/lib/speed/libe.a(_ldexp.o)
 .debug_ranges  0x000003a8       0x10 /sdd/opt/microchip/xc32/v1.40/bin/bin/../../lib/gcc/pic32mx/4.8.3/../../../../pic32mx/lib/speed/libe.a(_ldexpf.o)
 .debug_ranges  0x000003b8       0x78 /sdd/opt/microchip/xc32/v1.40/bin/bin/../../lib/gcc/pic32mx/4.8.3/speed/libgcc.a(_divdi3.o)
 .debug_ranges  0x00000430       0xd8 /sdd/opt/microchip/xc32/v1.40/bin/bin/../../lib/gcc/pic32mx/4.8.3/speed/libgcc.a(_umoddi3.o)

.gnu.attributes
                0x00000000       0x10
 *(.gnu.attributes)
 .gnu.attributes
                0x00000000       0x10 build/default/production/_ext/1472/BerkeleyTCPClientDemo.o
 .gnu.attributes
                0x00000010       0x10 build/default/production/_ext/1472/BerkeleyTCPServerDemo.o
 .gnu.attributes
                0x00000020       0x10 build/default/production/_ext/1472/BerkeleyUDPClientDemo.o
 .gnu.attributes
                0x00000030       0x10 build/default/production/_ext/1472/GenericTCPClient.o
 .gnu.attributes
                0x00000040       0x10 build/default/production/_ext/1472/GenericTCPServer.o
 .gnu.attributes
                0x00000050       0x10 build/default/production/_ext/1472/LegacyHTTPApp.o
 .gnu.attributes
                0x00000060       0x10 build/default/production/_ext/1472/PingDemo.o
 .gnu.attributes
                0x00000070       0x10 build/default/production/_ext/1472/SMTPDemo.o
 .gnu.attributes
                0x00000080       0x10 build/default/production/_ext/1472/UARTConfig.o
 .gnu.attributes
                0x00000090       0x10 build/default/production/_ext/1295770447/Announce.o
 .gnu.attributes
                0x000000a0       0x10 build/default/production/_ext/1295770447/ARCFOUR.o
 .gnu.attributes
                0x000000b0       0x10 build/default/production/_ext/1295770447/ARP.o
 .gnu.attributes
                0x000000c0       0x10 build/default/production/_ext/1295770447/AutoIP.o
 .gnu.attributes
                0x000000d0       0x10 build/default/production/_ext/1295770447/BerkeleyAPI.o
 .gnu.attributes
                0x000000e0       0x10 build/default/production/_ext/1295770447/BigInt.o
 .gnu.attributes
                0x000000f0       0x10 build/default/production/_ext/1295770447/Delay.o
 .gnu.attributes
                0x00000100       0x10 build/default/production/_ext/1295770447/DHCP.o
 .gnu.attributes
                0x00000110       0x10 build/default/production/_ext/1295770447/DHCPs.o
 .gnu.attributes
                0x00000120       0x10 build/default/production/_ext/1295770447/DNS.o
 .gnu.attributes
                0x00000130       0x10 build/default/production/_ext/1295770447/DNSs.o
 .gnu.attributes
                0x00000140       0x10 build/default/production/_ext/1295770447/DynDNS.o
 .gnu.attributes
                0x00000150       0x10 build/default/production/_ext/1295770447/ENC28J60.o
 .gnu.attributes
                0x00000160       0x10 build/default/production/_ext/1295770447/ENCX24J600.o
 .gnu.attributes
                0x00000170       0x10 build/default/production/_ext/1295770447/ETHPIC32ExtPhy.o
 .gnu.attributes
                0x00000180       0x10 build/default/production/_ext/1295770447/ETHPIC32ExtPhyDP83848.o
 .gnu.attributes
                0x00000190       0x10 build/default/production/_ext/1295770447/ETHPIC32IntMac.o
 .gnu.attributes
                0x000001a0       0x10 build/default/production/_ext/1295770447/FileSystem.o
 .gnu.attributes
                0x000001b0       0x10 build/default/production/_ext/1295770447/FTP.o
 .gnu.attributes
                0x000001c0       0x10 build/default/production/_ext/1295770447/Hashes.o
 .gnu.attributes
                0x000001d0       0x10 build/default/production/_ext/1295770447/Helpers.o
 .gnu.attributes
                0x000001e0       0x10 build/default/production/_ext/1295770447/HTTP2.o
 .gnu.attributes
                0x000001f0       0x10 build/default/production/_ext/1295770447/HTTP.o
 .gnu.attributes
                0x00000200       0x10 build/default/production/_ext/1295770447/ICMP.o
 .gnu.attributes
                0x00000210       0x10 build/default/production/_ext/1295770447/IP.o
 .gnu.attributes
                0x00000220       0x10 build/default/production/_ext/1295770447/LCDBlocking.o
 .gnu.attributes
                0x00000230       0x10 build/default/production/_ext/1295770447/MPFS2.o
 .gnu.attributes
                0x00000240       0x10 build/default/production/_ext/1295770447/MPFS.o
 .gnu.attributes
                0x00000250       0x10 build/default/production/_ext/1295770447/NBNS.o
 .gnu.attributes
                0x00000260       0x10 build/default/production/_ext/1295770447/Random.o
 .gnu.attributes
                0x00000270       0x10 build/default/production/_ext/1295770447/Reboot.o
 .gnu.attributes
                0x00000280       0x10 build/default/production/_ext/1295770447/RSA.o
 .gnu.attributes
                0x00000290       0x10 build/default/production/_ext/1295770447/SMTP.o
 .gnu.attributes
                0x000002a0       0x10 build/default/production/_ext/1295770447/SNMP.o
 .gnu.attributes
                0x000002b0       0x10 build/default/production/_ext/1295770447/SNMPv3.o
 .gnu.attributes
                0x000002c0       0x10 build/default/production/_ext/1295770447/SNMPv3USM.o
 .gnu.attributes
                0x000002d0       0x10 build/default/production/_ext/1295770447/SNTP.o
 .gnu.attributes
                0x000002e0       0x10 build/default/production/_ext/1295770447/SPIEEPROM.o
 .gnu.attributes
                0x000002f0       0x10 build/default/production/_ext/1295770447/SPIFlash.o
 .gnu.attributes
                0x00000300       0x10 build/default/production/_ext/1295770447/SPIRAM.o
 .gnu.attributes
                0x00000310       0x10 build/default/production/_ext/1295770447/SSL.o
 .gnu.attributes
                0x00000320       0x10 build/default/production/_ext/1295770447/StackTsk.o
 .gnu.attributes
                0x00000330       0x10 build/default/production/_ext/1295770447/TCP.o
 .gnu.attributes
                0x00000340       0x10 build/default/production/_ext/1295770447/TCPPerformanceTest.o
 .gnu.attributes
                0x00000350       0x10 build/default/production/_ext/1295770447/Telnet.o
 .gnu.attributes
                0x00000360       0x10 build/default/production/_ext/1295770447/TFTPc.o
 .gnu.attributes
                0x00000370       0x10 build/default/production/_ext/1295770447/Tick.o
 .gnu.attributes
                0x00000380       0x10 build/default/production/_ext/1295770447/UART2TCPBridge.o
 .gnu.attributes
                0x00000390       0x10 build/default/production/_ext/1295770447/UART.o
 .gnu.attributes
                0x000003a0       0x10 build/default/production/_ext/1295770447/UDP.o
 .gnu.attributes
                0x000003b0       0x10 build/default/production/_ext/1295770447/UDPPerformanceTest.o
 .gnu.attributes
                0x000003c0       0x10 build/default/production/_ext/1295770447/ZeroconfHelper.o
 .gnu.attributes
                0x000003d0       0x10 build/default/production/_ext/1295770447/ZeroconfLinkLocal.o
 .gnu.attributes
                0x000003e0       0x10 build/default/production/_ext/1295770447/ZeroconfMulticastDNS.o
 .gnu.attributes
                0x000003f0       0x10 build/default/production/_ext/1472/MPFSImg2.o
 .gnu.attributes
                0x00000400       0x10 build/default/production/_ext/1472/MPFSImg.o
 .gnu.attributes
                0x00000410       0x10 build/default/production/_ext/1472/CustomHTTPApp.o
 .gnu.attributes
                0x00000420       0x10 build/default/production/_ext/1472/CustomSNMPApp.o
 .gnu.attributes
                0x00000430       0x10 build/default/production/_ext/1472/CustomSSLCert.o
 .gnu.attributes
                0x00000440       0x10 build/default/production/_ext/1472/MainDemo.o
 .gnu.attributes
                0x00000450       0x10 build/default/production/_ext/1472/mbmc.o
 .gnu.attributes
                0x00000460       0x10 build/default/production/_ext/1472/crc8_fast.o
 .gnu.attributes
                0x00000470       0x10 /sdd/opt/microchip/xc32/v1.40/bin/bin/../../lib/gcc/pic32mx/4.8.3/../../../../pic32mx/lib/speed/libmchp_peripheral.a(read_core_timer_lib.o)
 .gnu.attributes
                0x00000480       0x10 /sdd/opt/microchip/xc32/v1.40/bin/bin/../../lib/gcc/pic32mx/4.8.3/../../../../pic32mx/lib/speed/libmchp_peripheral_32MX795F512L.a(eth_ack_packet_lib.o)
 .gnu.attributes
                0x00000490       0x10 /sdd/opt/microchip/xc32/v1.40/bin/bin/../../lib/gcc/pic32mx/4.8.3/../../../../pic32mx/lib/speed/libmchp_peripheral_32MX795F512L.a(eth_descriptors_add_lib.o)
 .gnu.attributes
                0x000004a0       0x10 /sdd/opt/microchip/xc32/v1.40/bin/bin/../../lib/gcc/pic32mx/4.8.3/../../../../pic32mx/lib/speed/libmchp_peripheral_32MX795F512L.a(eth_init_lib.o)
 .gnu.attributes
                0x000004b0       0x10 /sdd/opt/microchip/xc32/v1.40/bin/bin/../../lib/gcc/pic32mx/4.8.3/../../../../pic32mx/lib/speed/libmchp_peripheral_32MX795F512L.a(eth_mac_open_lib.o)
 .gnu.attributes
                0x000004c0       0x10 /sdd/opt/microchip/xc32/v1.40/bin/bin/../../lib/gcc/pic32mx/4.8.3/../../../../pic32mx/lib/speed/libmchp_peripheral_32MX795F512L.a(eth_mac_set_address_max_lib.o)
 .gnu.attributes
                0x000004d0       0x10 /sdd/opt/microchip/xc32/v1.40/bin/bin/../../lib/gcc/pic32mx/4.8.3/../../../../pic32mx/lib/speed/libmchp_peripheral_32MX795F512L.a(eth_rx_buffers_append_lib.o)
 .gnu.attributes
                0x000004e0       0x10 /sdd/opt/microchip/xc32/v1.40/bin/bin/../../lib/gcc/pic32mx/4.8.3/../../../../pic32mx/lib/speed/libmchp_peripheral_32MX795F512L.a(eth_rx_filters_lib.o)
 .gnu.attributes
                0x000004f0       0x10 /sdd/opt/microchip/xc32/v1.40/bin/bin/../../lib/gcc/pic32mx/4.8.3/../../../../pic32mx/lib/speed/libmchp_peripheral_32MX795F512L.a(eth_rx_get_packet_lib.o)
 .gnu.attributes
                0x00000500       0x10 /sdd/opt/microchip/xc32/v1.40/bin/bin/../../lib/gcc/pic32mx/4.8.3/../../../../pic32mx/lib/speed/libmchp_peripheral_32MX795F512L.a(eth_rx_set_buffer_size_lib.o)
 .gnu.attributes
                0x00000510       0x10 /sdd/opt/microchip/xc32/v1.40/bin/bin/../../lib/gcc/pic32mx/4.8.3/../../../../pic32mx/lib/speed/libmchp_peripheral_32MX795F512L.a(eth_tx_packet_lib.o)
 .gnu.attributes
                0x00000520       0x10 /sdd/opt/microchip/xc32/v1.40/bin/bin/../../lib/gcc/pic32mx/4.8.3/../../../../pic32mx/lib/speed/libmchp_peripheral_32MX795F512L.a(_eth_append_busy_list_lib.o)
 .gnu.attributes
                0x00000530       0x10 /sdd/opt/microchip/xc32/v1.40/bin/bin/../../lib/gcc/pic32mx/4.8.3/../../../../pic32mx/lib/speed/libmchp_peripheral_32MX795F512L.a(eth_miim_access.o)
 .gnu.attributes
                0x00000540       0x10 /sdd/opt/microchip/xc32/v1.40/bin/bin/../../lib/gcc/pic32mx/4.8.3/../../../../pic32mx/lib/speed/libmchp_peripheral_32MX795F512L.a(soft_reset_lib.o)
 .gnu.attributes
                0x00000550       0x10 /sdd/opt/microchip/xc32/v1.40/bin/bin/../../lib/gcc/pic32mx/4.8.3/../../../../pic32mx/lib/speed/libmchp_peripheral_32MX795F512L.a(pcache.o)
 .gnu.attributes
                0x00000560       0x10 /sdd/opt/microchip/xc32/v1.40/bin/bin/../../lib/gcc/pic32mx/4.8.3/../../../../pic32mx/lib/speed/libmchp_peripheral_32MX795F512L.a(int_disable_interrupts_lib.o)
 .gnu.attributes
                0x00000570       0x10 /sdd/opt/microchip/xc32/v1.40/bin/bin/../../lib/gcc/pic32mx/4.8.3/../../../../pic32mx/lib/speed/libmchp_peripheral_32MX795F512L.a(int_restore_interrupts_lib.o)
 .gnu.attributes
                0x00000580       0x10 /sdd/opt/microchip/xc32/v1.40/bin/bin/../../lib/gcc/pic32mx/4.8.3/../../../../pic32mx/lib/speed/libmchp_peripheral_32MX795F512L.a(int_enable_mv_int_lib.o)
 .gnu.attributes
                0x00000590       0x10 /sdd/opt/microchip/xc32/v1.40/bin/bin/../../lib/gcc/pic32mx/4.8.3/../../../../pic32mx/lib/speed/libmchp_peripheral_32MX795F512L.a(int_tbl_lib.o)
 .gnu.attributes
                0x000005a0       0x10 /sdd/opt/microchip/xc32/v1.40/bin/bin/../../lib/gcc/pic32mx/4.8.3/../../../../pic32mx/lib/speed/libmchp_peripheral_32MX795F512L.a(port_set_pins_digital_in_lib.o)
 .gnu.attributes
                0x000005b0       0x10 /sdd/opt/microchip/xc32/v1.40/bin/bin/../../lib/gcc/pic32mx/4.8.3/../../../../pic32mx/lib/speed/libmchp_peripheral_32MX795F512L.a(port_set_pins_digital_out_lib.o)
 .gnu.attributes
                0x000005c0       0x10 /sdd/opt/microchip/xc32/v1.40/bin/bin/../../lib/gcc/pic32mx/4.8.3/../../../../pic32mx/lib/speed/libmchp_peripheral_32MX795F512L.a(_ports_tbl_libp.o)
 .gnu.attributes
                0x000005d0       0x10 /sdd/opt/microchip/xc32/v1.40/bin/bin/../../lib/gcc/pic32mx/4.8.3/../../../../pic32mx/lib/speed/libmchp_peripheral_32MX795F512L.a(uart_lib.o)
 .gnu.attributes
                0x000005e0       0x10 /sdd/opt/microchip/xc32/v1.40/bin/bin/../../lib/gcc/pic32mx/4.8.3/../../../../pic32mx/lib/speed/libmchp_peripheral_32MX795F512L.a(int_enable_interrupts_lib.o)
 .gnu.attributes
                0x000005f0       0x10 /sdd/opt/microchip/xc32/v1.40/bin/bin/../../lib/gcc/pic32mx/4.8.3/speed/libgcc.a(_udivdi3.o)
 .gnu.attributes
                0x00000600       0x10 /sdd/opt/microchip/xc32/v1.40/bin/bin/../../lib/gcc/pic32mx/4.8.3/speed/libgcc.a(floatunsisf.o)
 .gnu.attributes
                0x00000610       0x10 /sdd/opt/microchip/xc32/v1.40/bin/bin/../../lib/gcc/pic32mx/4.8.3/../../../../pic32mx/lib/speed/libpic32.a(default-bootstrap-exception-handler.o)
 .gnu.attributes
                0x00000620       0x10 /sdd/opt/microchip/xc32/v1.40/bin/bin/../../lib/gcc/pic32mx/4.8.3/../../../../pic32mx/lib/speed/libpic32.a(default-on-reset.o)
 .gnu.attributes
                0x00000630       0x10 /sdd/opt/microchip/xc32/v1.40/bin/bin/../../lib/gcc/pic32mx/4.8.3/../../../../pic32mx/lib/speed/libpic32.a(default-on-bootstrap.o)
 .gnu.attributes
                0x00000640       0x10 /sdd/opt/microchip/xc32/v1.40/bin/bin/../../lib/gcc/pic32mx/4.8.3/../../../../pic32mx/lib/speed/libpic32.a(defaultinterrupt.o)
 .gnu.attributes
                0x00000650       0x10 /sdd/opt/microchip/xc32/v1.40/bin/bin/../../lib/gcc/pic32mx/4.8.3/../../../../pic32mx/lib/speed/liblega-c.a(strcat.o)
 .gnu.attributes
                0x00000660       0x10 /sdd/opt/microchip/xc32/v1.40/bin/bin/../../lib/gcc/pic32mx/4.8.3/../../../../pic32mx/lib/speed/liblega-c.a(strncat.o)
 .gnu.attributes
                0x00000670       0x10 /sdd/opt/microchip/xc32/v1.40/bin/bin/../../lib/gcc/pic32mx/4.8.3/../../../../pic32mx/lib/speed/liblega-c.a(strchr.o)
 .gnu.attributes
                0x00000680       0x10 /sdd/opt/microchip/xc32/v1.40/bin/bin/../../lib/gcc/pic32mx/4.8.3/../../../../pic32mx/lib/speed/liblega-c.a(strstr.o)
 .gnu.attributes
                0x00000690       0x10 /sdd/opt/microchip/xc32/v1.40/bin/bin/../../lib/gcc/pic32mx/4.8.3/../../../../pic32mx/lib/speed/liblega-c.a(malloc_calloc.o)
 .gnu.attributes
                0x000006a0       0x10 /sdd/opt/microchip/xc32/v1.40/bin/bin/../../lib/gcc/pic32mx/4.8.3/../../../../pic32mx/lib/speed/liblega-c.a(strtol.o)
 .gnu.attributes
                0x000006b0       0x10 /sdd/opt/microchip/xc32/v1.40/bin/bin/../../lib/gcc/pic32mx/4.8.3/../../../../pic32mx/lib/speed/liblega-c.a(sprintf.o)
 .gnu.attributes
                0x000006c0       0x10 /sdd/opt/microchip/xc32/v1.40/bin/bin/../../lib/gcc/pic32mx/4.8.3/../../../../pic32mx/lib/speed/liblega-c.a(sscanf.o)
 .gnu.attributes
                0x000006d0       0x10 /sdd/opt/microchip/xc32/v1.40/bin/bin/../../lib/gcc/pic32mx/4.8.3/../../../../pic32mx/lib/speed/liblega-c.a(vsscanf.o)
 .gnu.attributes
                0x000006e0       0x10 /sdd/opt/microchip/xc32/v1.40/bin/bin/../../lib/gcc/pic32mx/4.8.3/../../../../pic32mx/lib/speed/liblega-c.a(__vsnprintf.o)
 .gnu.attributes
                0x000006f0       0x10 /sdd/opt/microchip/xc32/v1.40/bin/bin/../../lib/gcc/pic32mx/4.8.3/../../../../pic32mx/lib/speed/liblega-c.a(gmtime.o)
 .gnu.attributes
                0x00000700       0x10 /sdd/opt/microchip/xc32/v1.40/bin/bin/../../lib/gcc/pic32mx/4.8.3/../../../../pic32mx/lib/speed/liblega-c.a(offtime.o)
 .gnu.attributes
                0x00000710       0x10 /sdd/opt/microchip/xc32/v1.40/bin/bin/../../lib/gcc/pic32mx/4.8.3/../../../../pic32mx/lib/speed/liblega-c.a(asctime.o)
 .gnu.attributes
                0x00000720       0x10 /sdd/opt/microchip/xc32/v1.40/bin/bin/../../lib/gcc/pic32mx/4.8.3/../../../../pic32mx/lib/speed/liblega-c.a(stubs.o)
 .gnu.attributes
                0x00000730       0x10 /sdd/opt/microchip/xc32/v1.40/bin/bin/../../lib/gcc/pic32mx/4.8.3/../../../../pic32mx/lib/speed/liblega-c.a(ctype.o)
 .gnu.attributes
                0x00000740       0x10 /sdd/opt/microchip/xc32/v1.40/bin/bin/../../lib/gcc/pic32mx/4.8.3/../../../../pic32mx/lib/speed/liblega-c.a(malloc.o)
 .gnu.attributes
                0x00000750       0x10 /sdd/opt/microchip/xc32/v1.40/bin/bin/../../lib/gcc/pic32mx/4.8.3/../../../../pic32mx/lib/speed/liblega-c.a(errno.o)
 .gnu.attributes
                0x00000760       0x10 /sdd/opt/microchip/xc32/v1.40/bin/bin/../../lib/gcc/pic32mx/4.8.3/../../../../pic32mx/lib/speed/liblega-c.a(_doprnt.o)
 .gnu.attributes
                0x00000770       0x10 /sdd/opt/microchip/xc32/v1.40/bin/bin/../../lib/gcc/pic32mx/4.8.3/../../../../pic32mx/lib/speed/liblega-c.a(_doscan.o)
 .gnu.attributes
                0x00000780       0x10 /sdd/opt/microchip/xc32/v1.40/bin/bin/../../lib/gcc/pic32mx/4.8.3/../../../../pic32mx/lib/speed/liblega-c.a(_iobdata.o)
 .gnu.attributes
                0x00000790       0x10 /sdd/opt/microchip/xc32/v1.40/bin/bin/../../lib/gcc/pic32mx/4.8.3/../../../../pic32mx/lib/speed/liblega-c.a(_iobfuncs.o)
 .gnu.attributes
                0x000007a0       0x10 /sdd/opt/microchip/xc32/v1.40/bin/bin/../../lib/gcc/pic32mx/4.8.3/../../../../pic32mx/lib/speed/liblega-c.a(_iobstring.o)
 .gnu.attributes
                0x000007b0       0x10 /sdd/opt/microchip/xc32/v1.40/bin/bin/../../lib/gcc/pic32mx/4.8.3/../../../../pic32mx/lib/speed/liblega-c.a(fgetc.o)
 .gnu.attributes
                0x000007c0       0x10 /sdd/opt/microchip/xc32/v1.40/bin/bin/../../lib/gcc/pic32mx/4.8.3/../../../../pic32mx/lib/speed/liblega-c.a(fputc.o)
 .gnu.attributes
                0x000007d0       0x10 /sdd/opt/microchip/xc32/v1.40/bin/bin/../../lib/gcc/pic32mx/4.8.3/../../../../pic32mx/lib/speed/liblega-c.a(ungetc.o)
 .gnu.attributes
                0x000007e0       0x10 /sdd/opt/microchip/xc32/v1.40/bin/bin/../../lib/gcc/pic32mx/4.8.3/../../../../pic32mx/lib/speed/liblega-c.a(sbrk.o)
 .gnu.attributes
                0x000007f0       0x10 /sdd/opt/microchip/xc32/v1.40/bin/bin/../../lib/gcc/pic32mx/4.8.3/../../../../pic32mx/lib/speed/liblega-c.a(_mon_getc.o)
 .gnu.attributes
                0x00000800       0x10 /sdd/opt/microchip/xc32/v1.40/bin/bin/../../lib/gcc/pic32mx/4.8.3/../../../../pic32mx/lib/speed/liblega-c.a(_mon_write.o)
 .gnu.attributes
                0x00000810       0x10 /sdd/opt/microchip/xc32/v1.40/bin/bin/../../lib/gcc/pic32mx/4.8.3/../../../../pic32mx/lib/speed/liblega-c.a(malloc_realloc.o)
 .gnu.attributes
                0x00000820       0x10 /sdd/opt/microchip/xc32/v1.40/bin/bin/../../lib/gcc/pic32mx/4.8.3/../../../../pic32mx/lib/speed/liblega-c.a(strtoul.o)
 .gnu.attributes
                0x00000830       0x10 /sdd/opt/microchip/xc32/v1.40/bin/bin/../../lib/gcc/pic32mx/4.8.3/../../../../pic32mx/lib/speed/liblega-c.a(strtoll.o)
 .gnu.attributes
                0x00000840       0x10 /sdd/opt/microchip/xc32/v1.40/bin/bin/../../lib/gcc/pic32mx/4.8.3/../../../../pic32mx/lib/speed/liblega-c.a(strtoull.o)
 .gnu.attributes
                0x00000850       0x10 /sdd/opt/microchip/xc32/v1.40/bin/bin/../../lib/gcc/pic32mx/4.8.3/../../../../pic32mx/lib/speed/liblega-c.a(strtod.o)
 .gnu.attributes
                0x00000860       0x10 /sdd/opt/microchip/xc32/v1.40/bin/bin/../../lib/gcc/pic32mx/4.8.3/../../../../pic32mx/lib/speed/liblega-c.a(strtof.o)
 .gnu.attributes
                0x00000870       0x10 /sdd/opt/microchip/xc32/v1.40/bin/bin/../../lib/gcc/pic32mx/4.8.3/../../../../pic32mx/lib/speed/liblega-c.a(fullexit.o)
 .gnu.attributes
                0x00000880       0x10 /sdd/opt/microchip/xc32/v1.40/bin/bin/../../lib/gcc/pic32mx/4.8.3/../../../../pic32mx/lib/speed/liblega-c.a(_ioinit.o)
 .gnu.attributes
                0x00000890       0x10 /sdd/opt/microchip/xc32/v1.40/bin/bin/../../lib/gcc/pic32mx/4.8.3/../../../../pic32mx/lib/speed/liblega-c.a(_cleanup.o)
 .gnu.attributes
                0x000008a0       0x10 /sdd/opt/microchip/xc32/v1.40/bin/bin/../../lib/gcc/pic32mx/4.8.3/../../../../pic32mx/lib/speed/liblega-c.a(_exit.o)
 .gnu.attributes
                0x000008b0       0x10 /sdd/opt/microchip/xc32/v1.40/bin/bin/../../lib/gcc/pic32mx/4.8.3/../../../../pic32mx/lib/speed/liblega-c.a(isatty.o)
 .gnu.attributes
                0x000008c0       0x10 /sdd/opt/microchip/xc32/v1.40/bin/bin/../../lib/gcc/pic32mx/4.8.3/../../../../pic32mx/lib/speed/liblega-c.a(_mon_putc.o)
 .gnu.attributes
                0x000008d0       0x10 /sdd/opt/microchip/xc32/v1.40/bin/bin/../../lib/gcc/pic32mx/4.8.3/../../../../pic32mx/lib/speed/liblega-c.a(memmove.o)
 .gnu.attributes
                0x000008e0       0x10 /sdd/opt/microchip/xc32/v1.40/bin/bin/../../lib/gcc/pic32mx/4.8.3/../../../../pic32mx/lib/speed/liblega-c.a(_bufproc.o)
 .gnu.attributes
                0x000008f0       0x10 /sdd/opt/microchip/xc32/v1.40/bin/bin/../../lib/gcc/pic32mx/4.8.3/../../../../pic32mx/lib/speed/libm.a(__strtod.o)
 .gnu.attributes
                0x00000900       0x10 /sdd/opt/microchip/xc32/v1.40/bin/bin/../../lib/gcc/pic32mx/4.8.3/../../../../pic32mx/lib/speed/libm.a(__strtof.o)
 .gnu.attributes
                0x00000910       0x10 /sdd/opt/microchip/xc32/v1.40/bin/bin/../../lib/gcc/pic32mx/4.8.3/../../../../pic32mx/lib/speed/libe.a(_ldexp.o)
 .gnu.attributes
                0x00000920       0x10 /sdd/opt/microchip/xc32/v1.40/bin/bin/../../lib/gcc/pic32mx/4.8.3/../../../../pic32mx/lib/speed/libe.a(_ldexpf.o)
 .gnu.attributes
                0x00000930       0x10 /sdd/opt/microchip/xc32/v1.40/bin/bin/../../lib/gcc/pic32mx/4.8.3/speed/libgcc.a(_lshrdi3.o)
 .gnu.attributes
                0x00000940       0x10 /sdd/opt/microchip/xc32/v1.40/bin/bin/../../lib/gcc/pic32mx/4.8.3/speed/libgcc.a(_ashldi3.o)
 .gnu.attributes
                0x00000950       0x10 /sdd/opt/microchip/xc32/v1.40/bin/bin/../../lib/gcc/pic32mx/4.8.3/speed/libgcc.a(_divdi3.o)
 .gnu.attributes
                0x00000960       0x10 /sdd/opt/microchip/xc32/v1.40/bin/bin/../../lib/gcc/pic32mx/4.8.3/speed/libgcc.a(_umoddi3.o)
LOAD /sdd/opt/microchip/xc32/v1.40/bin/bin/../../lib/gcc/pic32mx/4.8.3/speed/libgcc.a
START GROUP
LOAD /sdd/opt/microchip/xc32/v1.40/bin/bin/../../lib/gcc/pic32mx/4.8.3/../../../../pic32mx/lib/speed/libpic32.a
LOAD /sdd/opt/microchip/xc32/v1.40/bin/bin/../../lib/gcc/pic32mx/4.8.3/../../../../pic32mx/lib/speed/libdebug.a
LOAD /sdd/opt/microchip/xc32/v1.40/bin/bin/../../lib/gcc/pic32mx/4.8.3/../../../../pic32mx/lib/speed/libpic32.a
LOAD /sdd/opt/microchip/xc32/v1.40/bin/bin/../../lib/gcc/pic32mx/4.8.3/../../../../pic32mx/lib/speed/libm.a
LOAD /sdd/opt/microchip/xc32/v1.40/bin/bin/../../lib/gcc/pic32mx/4.8.3/../../../../pic32mx/lib/speed/libe.a
LOAD /sdd/opt/microchip/xc32/v1.40/bin/bin/../../lib/gcc/pic32mx/4.8.3/../../../../pic32mx/lib/speed/libdsp.a
LOAD /sdd/opt/microchip/xc32/v1.40/bin/bin/../../lib/gcc/pic32mx/4.8.3/speed/libgcc.a
LOAD /sdd/opt/microchip/xc32/v1.40/bin/bin/../../lib/gcc/pic32mx/4.8.3/../../../../pic32mx/lib/speed/liblega-c.a
LOAD /sdd/opt/microchip/xc32/v1.40/bin/bin/../../lib/gcc/pic32mx/4.8.3/../../../../pic32mx/lib/speed/libpic32.a
END GROUP
LOAD /sdd/opt/microchip/xc32/v1.40/bin/bin/../../lib/gcc/pic32mx/4.8.3/speed/libgcc.a
OUTPUT(dist/default/production/TCPIP_Demo_App_-_C32_-_PIC32_ENET_SK_DM320004_INTERNAL_ETHERNET.X.production.elf elf32-tradlittlemips)
LOAD stack
LOAD data_init

.reginfo        0x00000000       0x18
 .reginfo       0x00000000       0x18 /sdd/opt/microchip/xc32/v1.40/bin/bin/../../lib/gcc/pic32mx/4.8.3/../../../../pic32mx/lib/./proc/32MX795F512L/crt0_mips32r2.o

.stack          0xa0010f30      0x800
 .stack         0xa0010f30      0x800 stack

.bss            0xa00041d0     0x8054
 .bss           0xa00041d0     0x4224 build/default/production/_ext/1295770447/TCP.o
 .bss           0xa00083f4     0x3e30 build/default/production/_ext/1295770447/ETHPIC32IntMac.o

.data           0xa000c224      0x410
 .data          0xa000c224      0x410 /sdd/opt/microchip/xc32/v1.40/bin/bin/../../lib/gcc/pic32mx/4.8.3/../../../../pic32mx/lib/speed/liblega-c.a(malloc.o)
                0xa000c224                malloc_av_
                0xa000c62c                malloc_trim_threshold
                0xa000c630                malloc_sbrk_base

.bss            0xa000c634      0x1c0
 .bss           0xa000c634      0x1c0 build/default/production/_ext/1472/CustomHTTPApp.o

.data           0xa000c7f4       0xe8
 .data          0xa000c7f4       0xe8 /sdd/opt/microchip/xc32/v1.40/bin/bin/../../lib/gcc/pic32mx/4.8.3/../../../../pic32mx/lib/speed/libm.a(log32.o)

.bss            0xa000c8dc       0xe0
 .bss           0xa000c8dc       0xe0 build/default/production/_ext/1472/mbmc.o
                0xa000c8dc                mbmc_status

.data           0xa000c9bc       0xd4
 .data          0xa000c9bc       0xd4 /sdd/opt/microchip/xc32/v1.40/bin/bin/../../lib/gcc/pic32mx/4.8.3/../../../../pic32mx/lib/speed/liblega-c.a(_iobdata.o)

.bss            0xa000ca90      0x18c
 .bss           0xa000ca90       0x8c build/default/production/_ext/1295770447/BerkeleyAPI.o
 .bss           0xa000cb1c       0x88 /sdd/opt/microchip/xc32/v1.40/bin/bin/../../lib/gcc/pic32mx/4.8.3/../../../../pic32mx/lib/speed/liblega-c.a(_iobdata.o)
 .bss           0xa000cba4       0x78 build/default/production/_ext/1295770447/MPFS2.o

.data           0xa000cc1c       0xb8
 .data          0xa000cc1c       0x70 build/default/production/_ext/1472/BerkeleyTCPClientDemo.o
 .data          0xa000cc8c       0x48 build/default/production/_ext/1472/SMTPDemo.o

.bss            0xa000ccd4       0x88
 .bss           0xa000ccd4       0x48 build/default/production/_ext/1295770447/Telnet.o
 .bss           0xa000cd1c       0x40 build/default/production/_ext/1472/GenericTCPServer.o

.data           0xa000cd5c       0x40
 .data          0xa000cd5c       0x40 build/default/production/_ext/1472/mbmc.o

.bss            0xa000cd9c       0x34
 .bss           0xa000cd9c       0x34 build/default/production/_ext/1295770447/AutoIP.o

.data           0xa000cdd0       0x34
 .data          0xa000cdd0       0x34 build/default/production/_ext/1295770447/DynDNS.o

.bss            0xa000ce04       0x64
 .bss           0xa000ce04       0x34 /sdd/opt/microchip/xc32/v1.40/bin/bin/../../lib/gcc/pic32mx/4.8.3/../../../../pic32mx/lib/speed/liblega-c.a(malloc.o)
                0xa000ce04                malloc_top_pad
                0xa000ce08                malloc_max_sbrked_mem
                0xa000ce0c                malloc_max_total_mem
                0xa000ce10                malloc_current_mallinfo
 .bss           0xa000ce38       0x30 build/default/production/_ext/1295770447/DHCP.o

.data           0xa000ce68       0x2c
 .data          0xa000ce68       0x2c /sdd/opt/microchip/xc32/v1.40/bin/bin/../../lib/gcc/pic32mx/4.8.3/../../../../pic32mx/lib/speed/liblega-c.a(gmtime.o)

.bss            0xa000ce94       0x2c
 .bss           0xa000ce94       0x2c /sdd/opt/microchip/xc32/v1.40/bin/bin/../../lib/gcc/pic32mx/4.8.3/../../../../pic32mx/lib/speed/liblega-c.a(gmtime.o)

.data           0xa000cec0       0x2c
 .data          0xa000cec0       0x2c /sdd/opt/microchip/xc32/v1.40/bin/bin/../../lib/gcc/pic32mx/4.8.3/../../../../pic32mx/lib/speed/liblega-c.a(offtime.o)

.bss            0xa000ceec       0x2c
 .bss           0xa000ceec       0x2c /sdd/opt/microchip/xc32/v1.40/bin/bin/../../lib/gcc/pic32mx/4.8.3/../../../../pic32mx/lib/speed/liblega-c.a(offtime.o)

.data           0xa000cf18       0x2c
 .data          0xa000cf18       0x2c /sdd/opt/microchip/xc32/v1.40/bin/bin/../../lib/gcc/pic32mx/4.8.3/../../../../pic32mx/lib/speed/liblega-c.a(asctime.o)

.bss            0xa000cf44       0x64
 .bss           0xa000cf44       0x24 /sdd/opt/microchip/xc32/v1.40/bin/bin/../../lib/gcc/pic32mx/4.8.3/../../../../pic32mx/lib/speed/liblega-c.a(sbrk.o)
                0xa000cf44                _minbrk
                0xa000cf48                _maxbrk
 .bss           0xa000cf68       0x20 /sdd/opt/microchip/xc32/v1.40/bin/bin/../../lib/gcc/pic32mx/4.8.3/../../../../pic32mx/lib/speed/libmchp_peripheral_32MX795F512L.a(eth_descriptors_add_lib.o)
                0xa000cf68                _EthTxFreeList
                0xa000cf70                _EthTxBusyList
                0xa000cf78                _EthRxFreeList
                0xa000cf80                _EthRxBusyList
 .bss           0xa000cf88       0x20 /sdd/opt/microchip/xc32/v1.40/bin/bin/../../lib/gcc/pic32mx/4.8.3/../../../../pic32mx/lib/speed/liblega-c.a(_iobfuncs.o)

.data           0xa000cfa8       0x40
 .data          0xa000cfa8       0x20 /sdd/opt/microchip/xc32/v1.40/bin/bin/../../lib/gcc/pic32mx/4.8.3/../../../../pic32mx/lib/speed/liblega-c.a(sbrk.o)
 .data          0xa000cfc8       0x20 /sdd/opt/microchip/xc32/v1.40/bin/bin/../../lib/gcc/pic32mx/4.8.3/../../../../pic32mx/lib/speed/liblega-c.a(fullexit.o)
                0xa000cfc8                __exfun_mx

.bss            0xa000cfe8       0x54
 .bss           0xa000cfe8       0x1c /sdd/opt/microchip/xc32/v1.40/bin/bin/../../lib/gcc/pic32mx/4.8.3/../../../../pic32mx/lib/speed/liblega-c.a(asctime.o)
 .bss           0xa000d004       0x18 build/default/production/_ext/1295770447/ARP.o
 .bss           0xa000d01c       0x10 build/default/production/_ext/1472/BerkeleyTCPClientDemo.o
 .bss           0xa000d02c       0x10 build/default/production/_ext/1472/BerkeleyUDPClientDemo.o

.data           0xa000d03c       0x10
 .data          0xa000d03c       0x10 build/default/production/_ext/1472/GenericTCPClient.o

.bss            0xa000d04c       0x48
 .bss           0xa000d04c       0x10 build/default/production/_ext/1295770447/DynDNS.o
 .bss           0xa000d05c        0xc build/default/production/_ext/1295770447/DNS.o
 .bss           0xa000d068        0xc build/default/production/_ext/1295770447/ICMP.o
 .bss           0xa000d074        0xc build/default/production/_ext/1295770447/SNTP.o
 .bss           0xa000d080        0xc build/default/production/_ext/1295770447/TCPPerformanceTest.o
 .bss           0xa000d08c        0x4 /sdd/opt/microchip/xc32/v1.40/bin/bin/../../lib/gcc/pic32mx/4.8.3/../../../../pic32mx/lib/speed/liblega-c.a(stubs.o)
                0xa000d08c                __isthreaded
 .bss           0xa000d090        0x4 /sdd/opt/microchip/xc32/v1.40/bin/bin/../../lib/gcc/pic32mx/4.8.3/../../../../pic32mx/lib/speed/liblega-c.a(_cleanup.o)
                0xa000d090                __cleanup

.bss            0x00000000        0x0
 .bss           0x00000000        0x0 /sdd/opt/microchip/xc32/v1.40/bin/bin/../../lib/gcc/pic32mx/4.8.3/speed/libgcc.a(_umoddi3.o)

.data           0x00000000        0x0
 .data          0x00000000        0x0 /sdd/opt/microchip/xc32/v1.40/bin/bin/../../lib/gcc/pic32mx/4.8.3/speed/libgcc.a(_umoddi3.o)

.bss            0x00000000        0x0
 .bss           0x00000000        0x0 /sdd/opt/microchip/xc32/v1.40/bin/bin/../../lib/gcc/pic32mx/4.8.3/speed/libgcc.a(_divdi3.o)

.data           0x00000000        0x0
 .data          0x00000000        0x0 /sdd/opt/microchip/xc32/v1.40/bin/bin/../../lib/gcc/pic32mx/4.8.3/speed/libgcc.a(_divdi3.o)

.bss            0x00000000        0x0
 .bss           0x00000000        0x0 /sdd/opt/microchip/xc32/v1.40/bin/bin/../../lib/gcc/pic32mx/4.8.3/speed/libgcc.a(_ashldi3.o)

.data           0x00000000        0x0
 .data          0x00000000        0x0 /sdd/opt/microchip/xc32/v1.40/bin/bin/../../lib/gcc/pic32mx/4.8.3/speed/libgcc.a(_ashldi3.o)

.bss            0x00000000        0x0
 .bss           0x00000000        0x0 /sdd/opt/microchip/xc32/v1.40/bin/bin/../../lib/gcc/pic32mx/4.8.3/speed/libgcc.a(_lshrdi3.o)

.data           0x00000000        0x0
 .data          0x00000000        0x0 /sdd/opt/microchip/xc32/v1.40/bin/bin/../../lib/gcc/pic32mx/4.8.3/speed/libgcc.a(_lshrdi3.o)

.bss            0x00000000        0x0
 .bss           0x00000000        0x0 /sdd/opt/microchip/xc32/v1.40/bin/bin/../../lib/gcc/pic32mx/4.8.3/../../../../pic32mx/lib/speed/libe.a(_ldexpf.o)

.data           0x00000000        0x0
 .data          0x00000000        0x0 /sdd/opt/microchip/xc32/v1.40/bin/bin/../../lib/gcc/pic32mx/4.8.3/../../../../pic32mx/lib/speed/libe.a(_ldexpf.o)

.bss            0x00000000        0x0
 .bss           0x00000000        0x0 /sdd/opt/microchip/xc32/v1.40/bin/bin/../../lib/gcc/pic32mx/4.8.3/../../../../pic32mx/lib/speed/libe.a(_ldexp.o)

.data           0x00000000        0x0
 .data          0x00000000        0x0 /sdd/opt/microchip/xc32/v1.40/bin/bin/../../lib/gcc/pic32mx/4.8.3/../../../../pic32mx/lib/speed/libe.a(_ldexp.o)

.bss            0x00000000        0x0
 .bss           0x00000000        0x0 /sdd/opt/microchip/xc32/v1.40/bin/bin/../../lib/gcc/pic32mx/4.8.3/../../../../pic32mx/lib/speed/libm.a(negsf2.o)

.data           0x00000000        0x0
 .data          0x00000000        0x0 /sdd/opt/microchip/xc32/v1.40/bin/bin/../../lib/gcc/pic32mx/4.8.3/../../../../pic32mx/lib/speed/libm.a(negsf2.o)

.bss            0x00000000        0x0
 .bss           0x00000000        0x0 /sdd/opt/microchip/xc32/v1.40/bin/bin/../../lib/gcc/pic32mx/4.8.3/../../../../pic32mx/lib/speed/libm.a(negdf2.o)

.data           0x00000000        0x0
 .data          0x00000000        0x0 /sdd/opt/microchip/xc32/v1.40/bin/bin/../../lib/gcc/pic32mx/4.8.3/../../../../pic32mx/lib/speed/libm.a(negdf2.o)

.bss            0x00000000        0x0
 .bss           0x00000000        0x0 /sdd/opt/microchip/xc32/v1.40/bin/bin/../../lib/gcc/pic32mx/4.8.3/../../../../pic32mx/lib/speed/libm.a(__strtof.o)

.data           0x00000000        0x0
 .data          0x00000000        0x0 /sdd/opt/microchip/xc32/v1.40/bin/bin/../../lib/gcc/pic32mx/4.8.3/../../../../pic32mx/lib/speed/libm.a(__strtof.o)

.bss            0x00000000        0x0
 .bss           0x00000000        0x0 /sdd/opt/microchip/xc32/v1.40/bin/bin/../../lib/gcc/pic32mx/4.8.3/../../../../pic32mx/lib/speed/libm.a(__strtod.o)

.data           0x00000000        0x0
 .data          0x00000000        0x0 /sdd/opt/microchip/xc32/v1.40/bin/bin/../../lib/gcc/pic32mx/4.8.3/../../../../pic32mx/lib/speed/libm.a(__strtod.o)

.bss            0x00000000        0x0
 .bss           0x00000000        0x0 /sdd/opt/microchip/xc32/v1.40/bin/bin/../../lib/gcc/pic32mx/4.8.3/../../../../pic32mx/lib/speed/libm.a(dpcmp.o)

.data           0x00000000        0x0
 .data          0x00000000        0x0 /sdd/opt/microchip/xc32/v1.40/bin/bin/../../lib/gcc/pic32mx/4.8.3/../../../../pic32mx/lib/speed/libm.a(dpcmp.o)

.bss            0x00000000        0x0
 .bss           0x00000000        0x0 /sdd/opt/microchip/xc32/v1.40/bin/bin/../../lib/gcc/pic32mx/4.8.3/../../../../pic32mx/lib/speed/libm.a(dpmodf.o)

.data           0x00000000        0x0
 .data          0x00000000        0x0 /sdd/opt/microchip/xc32/v1.40/bin/bin/../../lib/gcc/pic32mx/4.8.3/../../../../pic32mx/lib/speed/libm.a(dpmodf.o)

.bss            0x00000000        0x0
 .bss           0x00000000        0x0 /sdd/opt/microchip/xc32/v1.40/bin/bin/../../lib/gcc/pic32mx/4.8.3/../../../../pic32mx/lib/speed/liblega-c.a(_bufproc.o)

.data           0x00000000        0x0
 .data          0x00000000        0x0 /sdd/opt/microchip/xc32/v1.40/bin/bin/../../lib/gcc/pic32mx/4.8.3/../../../../pic32mx/lib/speed/liblega-c.a(_bufproc.o)

.bss            0x00000000        0x0
 .bss           0x00000000        0x0 /sdd/opt/microchip/xc32/v1.40/bin/bin/../../lib/gcc/pic32mx/4.8.3/../../../../pic32mx/lib/speed/liblega-c.a(memmove.o)

.data           0x00000000        0x0
 .data          0x00000000        0x0 /sdd/opt/microchip/xc32/v1.40/bin/bin/../../lib/gcc/pic32mx/4.8.3/../../../../pic32mx/lib/speed/liblega-c.a(memmove.o)

.bss            0x00000000        0x0
 .bss           0x00000000        0x0 /sdd/opt/microchip/xc32/v1.40/bin/bin/../../lib/gcc/pic32mx/4.8.3/../../../../pic32mx/lib/speed/liblega-c.a(_mon_putc.o)

.data           0x00000000        0x0
 .data          0x00000000        0x0 /sdd/opt/microchip/xc32/v1.40/bin/bin/../../lib/gcc/pic32mx/4.8.3/../../../../pic32mx/lib/speed/liblega-c.a(_mon_putc.o)

.bss            0x00000000        0x0
 .bss           0x00000000        0x0 /sdd/opt/microchip/xc32/v1.40/bin/bin/../../lib/gcc/pic32mx/4.8.3/../../../../pic32mx/lib/speed/liblega-c.a(isatty.o)

.data           0x00000000        0x0
 .data          0x00000000        0x0 /sdd/opt/microchip/xc32/v1.40/bin/bin/../../lib/gcc/pic32mx/4.8.3/../../../../pic32mx/lib/speed/liblega-c.a(isatty.o)

.bss            0x00000000        0x0
 .bss           0x00000000        0x0 /sdd/opt/microchip/xc32/v1.40/bin/bin/../../lib/gcc/pic32mx/4.8.3/../../../../pic32mx/lib/speed/liblega-c.a(_exit.o)

.data           0x00000000        0x0
 .data          0x00000000        0x0 /sdd/opt/microchip/xc32/v1.40/bin/bin/../../lib/gcc/pic32mx/4.8.3/../../../../pic32mx/lib/speed/liblega-c.a(_exit.o)

.data           0x00000000        0x0
 .data          0x00000000        0x0 /sdd/opt/microchip/xc32/v1.40/bin/bin/../../lib/gcc/pic32mx/4.8.3/../../../../pic32mx/lib/speed/liblega-c.a(_cleanup.o)

.bss            0x00000000        0x0
 .bss           0x00000000        0x0 /sdd/opt/microchip/xc32/v1.40/bin/bin/../../lib/gcc/pic32mx/4.8.3/../../../../pic32mx/lib/speed/liblega-c.a(_ioinit.o)

.data           0x00000000        0x0
 .data          0x00000000        0x0 /sdd/opt/microchip/xc32/v1.40/bin/bin/../../lib/gcc/pic32mx/4.8.3/../../../../pic32mx/lib/speed/liblega-c.a(_ioinit.o)

.bss            0x00000000        0x0
 .bss           0x00000000        0x0 /sdd/opt/microchip/xc32/v1.40/bin/bin/../../lib/gcc/pic32mx/4.8.3/../../../../pic32mx/lib/speed/liblega-c.a(fullexit.o)

.bss            0x00000000        0x0
 .bss           0x00000000        0x0 /sdd/opt/microchip/xc32/v1.40/bin/bin/../../lib/gcc/pic32mx/4.8.3/../../../../pic32mx/lib/speed/liblega-c.a(strtof.o)

.data           0x00000000        0x0
 .data          0x00000000        0x0 /sdd/opt/microchip/xc32/v1.40/bin/bin/../../lib/gcc/pic32mx/4.8.3/../../../../pic32mx/lib/speed/liblega-c.a(strtof.o)

.bss            0x00000000        0x0
 .bss           0x00000000        0x0 /sdd/opt/microchip/xc32/v1.40/bin/bin/../../lib/gcc/pic32mx/4.8.3/../../../../pic32mx/lib/speed/liblega-c.a(strtod.o)

.data           0x00000000        0x0
 .data          0x00000000        0x0 /sdd/opt/microchip/xc32/v1.40/bin/bin/../../lib/gcc/pic32mx/4.8.3/../../../../pic32mx/lib/speed/liblega-c.a(strtod.o)

.bss            0x00000000        0x0
 .bss           0x00000000        0x0 /sdd/opt/microchip/xc32/v1.40/bin/bin/../../lib/gcc/pic32mx/4.8.3/../../../../pic32mx/lib/speed/liblega-c.a(strtoull.o)

.data           0x00000000        0x0
 .data          0x00000000        0x0 /sdd/opt/microchip/xc32/v1.40/bin/bin/../../lib/gcc/pic32mx/4.8.3/../../../../pic32mx/lib/speed/liblega-c.a(strtoull.o)

.bss            0x00000000        0x0
 .bss           0x00000000        0x0 /sdd/opt/microchip/xc32/v1.40/bin/bin/../../lib/gcc/pic32mx/4.8.3/../../../../pic32mx/lib/speed/liblega-c.a(strtoll.o)

.data           0x00000000        0x0
 .data          0x00000000        0x0 /sdd/opt/microchip/xc32/v1.40/bin/bin/../../lib/gcc/pic32mx/4.8.3/../../../../pic32mx/lib/speed/liblega-c.a(strtoll.o)

.bss            0x00000000        0x0
 .bss           0x00000000        0x0 /sdd/opt/microchip/xc32/v1.40/bin/bin/../../lib/gcc/pic32mx/4.8.3/../../../../pic32mx/lib/speed/liblega-c.a(strtoul.o)

.data           0x00000000        0x0
 .data          0x00000000        0x0 /sdd/opt/microchip/xc32/v1.40/bin/bin/../../lib/gcc/pic32mx/4.8.3/../../../../pic32mx/lib/speed/liblega-c.a(strtoul.o)

.bss            0x00000000        0x0
 .bss           0x00000000        0x0 /sdd/opt/microchip/xc32/v1.40/bin/bin/../../lib/gcc/pic32mx/4.8.3/../../../../pic32mx/lib/speed/liblega-c.a(malloc_realloc.o)

.data           0x00000000        0x0
 .data          0x00000000        0x0 /sdd/opt/microchip/xc32/v1.40/bin/bin/../../lib/gcc/pic32mx/4.8.3/../../../../pic32mx/lib/speed/liblega-c.a(malloc_realloc.o)

.bss            0x00000000        0x0
 .bss           0x00000000        0x0 /sdd/opt/microchip/xc32/v1.40/bin/bin/../../lib/gcc/pic32mx/4.8.3/../../../../pic32mx/lib/speed/liblega-c.a(_mon_write.o)

.data           0x00000000        0x0
 .data          0x00000000        0x0 /sdd/opt/microchip/xc32/v1.40/bin/bin/../../lib/gcc/pic32mx/4.8.3/../../../../pic32mx/lib/speed/liblega-c.a(_mon_write.o)

.bss            0x00000000        0x0
 .bss           0x00000000        0x0 /sdd/opt/microchip/xc32/v1.40/bin/bin/../../lib/gcc/pic32mx/4.8.3/../../../../pic32mx/lib/speed/liblega-c.a(_mon_getc.o)

.data           0x00000000        0x0
 .data          0x00000000        0x0 /sdd/opt/microchip/xc32/v1.40/bin/bin/../../lib/gcc/pic32mx/4.8.3/../../../../pic32mx/lib/speed/liblega-c.a(_mon_getc.o)

.bss            0x00000000        0x0
 .bss           0x00000000        0x0 /sdd/opt/microchip/xc32/v1.40/bin/bin/../../lib/gcc/pic32mx/4.8.3/../../../../pic32mx/lib/speed/liblega-c.a(ungetc.o)

.data           0x00000000        0x0
 .data          0x00000000        0x0 /sdd/opt/microchip/xc32/v1.40/bin/bin/../../lib/gcc/pic32mx/4.8.3/../../../../pic32mx/lib/speed/liblega-c.a(ungetc.o)

.bss            0x00000000        0x0
 .bss           0x00000000        0x0 /sdd/opt/microchip/xc32/v1.40/bin/bin/../../lib/gcc/pic32mx/4.8.3/../../../../pic32mx/lib/speed/liblega-c.a(fputc.o)

.data           0x00000000        0x0
 .data          0x00000000        0x0 /sdd/opt/microchip/xc32/v1.40/bin/bin/../../lib/gcc/pic32mx/4.8.3/../../../../pic32mx/lib/speed/liblega-c.a(fputc.o)

.bss            0x00000000        0x0
 .bss           0x00000000        0x0 /sdd/opt/microchip/xc32/v1.40/bin/bin/../../lib/gcc/pic32mx/4.8.3/../../../../pic32mx/lib/speed/liblega-c.a(fgetc.o)

.data           0x00000000        0x0
 .data          0x00000000        0x0 /sdd/opt/microchip/xc32/v1.40/bin/bin/../../lib/gcc/pic32mx/4.8.3/../../../../pic32mx/lib/speed/liblega-c.a(fgetc.o)

.bss            0x00000000        0x0
 .bss           0x00000000        0x0 /sdd/opt/microchip/xc32/v1.40/bin/bin/../../lib/gcc/pic32mx/4.8.3/../../../../pic32mx/lib/speed/liblega-c.a(_iobstring.o)

.data           0x00000000        0x0
 .data          0x00000000        0x0 /sdd/opt/microchip/xc32/v1.40/bin/bin/../../lib/gcc/pic32mx/4.8.3/../../../../pic32mx/lib/speed/liblega-c.a(_iobstring.o)

.data           0x00000000        0x0
 .data          0x00000000        0x0 /sdd/opt/microchip/xc32/v1.40/bin/bin/../../lib/gcc/pic32mx/4.8.3/../../../../pic32mx/lib/speed/liblega-c.a(_iobfuncs.o)

.bss            0x00000000        0x0
 .bss           0x00000000        0x0 /sdd/opt/microchip/xc32/v1.40/bin/bin/../../lib/gcc/pic32mx/4.8.3/../../../../pic32mx/lib/speed/liblega-c.a(_doscan.o)

.data           0x00000000        0x0
 .data          0x00000000        0x0 /sdd/opt/microchip/xc32/v1.40/bin/bin/../../lib/gcc/pic32mx/4.8.3/../../../../pic32mx/lib/speed/liblega-c.a(_doscan.o)

.bss            0x00000000        0x0
 .bss           0x00000000        0x0 /sdd/opt/microchip/xc32/v1.40/bin/bin/../../lib/gcc/pic32mx/4.8.3/../../../../pic32mx/lib/speed/liblega-c.a(_doprnt.o)

.data           0x00000000        0x0
 .data          0x00000000        0x0 /sdd/opt/microchip/xc32/v1.40/bin/bin/../../lib/gcc/pic32mx/4.8.3/../../../../pic32mx/lib/speed/liblega-c.a(_doprnt.o)

.bss            0x00000000        0x0
 .bss           0x00000000        0x0 /sdd/opt/microchip/xc32/v1.40/bin/bin/../../lib/gcc/pic32mx/4.8.3/../../../../pic32mx/lib/speed/liblega-c.a(errno.o)

.data           0x00000000        0x0
 .data          0x00000000        0x0 /sdd/opt/microchip/xc32/v1.40/bin/bin/../../lib/gcc/pic32mx/4.8.3/../../../../pic32mx/lib/speed/liblega-c.a(errno.o)

.bss            0x00000000        0x0
 .bss           0x00000000        0x0 /sdd/opt/microchip/xc32/v1.40/bin/bin/../../lib/gcc/pic32mx/4.8.3/../../../../pic32mx/lib/speed/liblega-c.a(ctype.o)

.data           0x00000000        0x0
 .data          0x00000000        0x0 /sdd/opt/microchip/xc32/v1.40/bin/bin/../../lib/gcc/pic32mx/4.8.3/../../../../pic32mx/lib/speed/liblega-c.a(ctype.o)

.data           0x00000000        0x0
 .data          0x00000000        0x0 /sdd/opt/microchip/xc32/v1.40/bin/bin/../../lib/gcc/pic32mx/4.8.3/../../../../pic32mx/lib/speed/liblega-c.a(stubs.o)

.bss            0x00000000        0x0
 .bss           0x00000000        0x0 /sdd/opt/microchip/xc32/v1.40/bin/bin/../../lib/gcc/pic32mx/4.8.3/../../../../pic32mx/lib/speed/liblega-c.a(__vsnprintf.o)

.data           0x00000000        0x0
 .data          0x00000000        0x0 /sdd/opt/microchip/xc32/v1.40/bin/bin/../../lib/gcc/pic32mx/4.8.3/../../../../pic32mx/lib/speed/liblega-c.a(__vsnprintf.o)

.bss            0x00000000        0x0
 .bss           0x00000000        0x0 /sdd/opt/microchip/xc32/v1.40/bin/bin/../../lib/gcc/pic32mx/4.8.3/../../../../pic32mx/lib/speed/liblega-c.a(vsscanf.o)

.data           0x00000000        0x0
 .data          0x00000000        0x0 /sdd/opt/microchip/xc32/v1.40/bin/bin/../../lib/gcc/pic32mx/4.8.3/../../../../pic32mx/lib/speed/liblega-c.a(vsscanf.o)

.bss            0x00000000        0x0
 .bss           0x00000000        0x0 /sdd/opt/microchip/xc32/v1.40/bin/bin/../../lib/gcc/pic32mx/4.8.3/../../../../pic32mx/lib/speed/liblega-c.a(sscanf.o)

.data           0x00000000        0x0
 .data          0x00000000        0x0 /sdd/opt/microchip/xc32/v1.40/bin/bin/../../lib/gcc/pic32mx/4.8.3/../../../../pic32mx/lib/speed/liblega-c.a(sscanf.o)

.bss            0x00000000        0x0
 .bss           0x00000000        0x0 /sdd/opt/microchip/xc32/v1.40/bin/bin/../../lib/gcc/pic32mx/4.8.3/../../../../pic32mx/lib/speed/liblega-c.a(sprintf.o)

.data           0x00000000        0x0
 .data          0x00000000        0x0 /sdd/opt/microchip/xc32/v1.40/bin/bin/../../lib/gcc/pic32mx/4.8.3/../../../../pic32mx/lib/speed/liblega-c.a(sprintf.o)

.bss            0x00000000        0x0
 .bss           0x00000000        0x0 /sdd/opt/microchip/xc32/v1.40/bin/bin/../../lib/gcc/pic32mx/4.8.3/../../../../pic32mx/lib/speed/liblega-c.a(strtol.o)

.data           0x00000000        0x0
 .data          0x00000000        0x0 /sdd/opt/microchip/xc32/v1.40/bin/bin/../../lib/gcc/pic32mx/4.8.3/../../../../pic32mx/lib/speed/liblega-c.a(strtol.o)

.bss            0x00000000        0x0
 .bss           0x00000000        0x0 /sdd/opt/microchip/xc32/v1.40/bin/bin/../../lib/gcc/pic32mx/4.8.3/../../../../pic32mx/lib/speed/liblega-c.a(malloc_calloc.o)

.data           0x00000000        0x0
 .data          0x00000000        0x0 /sdd/opt/microchip/xc32/v1.40/bin/bin/../../lib/gcc/pic32mx/4.8.3/../../../../pic32mx/lib/speed/liblega-c.a(malloc_calloc.o)

.bss            0x00000000        0x0
 .bss           0x00000000        0x0 /sdd/opt/microchip/xc32/v1.40/bin/bin/../../lib/gcc/pic32mx/4.8.3/../../../../pic32mx/lib/speed/liblega-c.a(strstr.o)

.data           0x00000000        0x0
 .data          0x00000000        0x0 /sdd/opt/microchip/xc32/v1.40/bin/bin/../../lib/gcc/pic32mx/4.8.3/../../../../pic32mx/lib/speed/liblega-c.a(strstr.o)

.bss            0x00000000        0x0
 .bss           0x00000000        0x0 /sdd/opt/microchip/xc32/v1.40/bin/bin/../../lib/gcc/pic32mx/4.8.3/../../../../pic32mx/lib/speed/liblega-c.a(strchr.o)

.data           0x00000000        0x0
 .data          0x00000000        0x0 /sdd/opt/microchip/xc32/v1.40/bin/bin/../../lib/gcc/pic32mx/4.8.3/../../../../pic32mx/lib/speed/liblega-c.a(strchr.o)

.bss            0x00000000        0x0
 .bss           0x00000000        0x0 /sdd/opt/microchip/xc32/v1.40/bin/bin/../../lib/gcc/pic32mx/4.8.3/../../../../pic32mx/lib/speed/liblega-c.a(strncat.o)

.data           0x00000000        0x0
 .data          0x00000000        0x0 /sdd/opt/microchip/xc32/v1.40/bin/bin/../../lib/gcc/pic32mx/4.8.3/../../../../pic32mx/lib/speed/liblega-c.a(strncat.o)

.bss            0x00000000        0x0
 .bss           0x00000000        0x0 /sdd/opt/microchip/xc32/v1.40/bin/bin/../../lib/gcc/pic32mx/4.8.3/../../../../pic32mx/lib/speed/liblega-c.a(strcat.o)

.data           0x00000000        0x0
 .data          0x00000000        0x0 /sdd/opt/microchip/xc32/v1.40/bin/bin/../../lib/gcc/pic32mx/4.8.3/../../../../pic32mx/lib/speed/liblega-c.a(strcat.o)

.bss            0x00000000        0x0
 .bss           0x00000000        0x0 /sdd/opt/microchip/xc32/v1.40/bin/bin/../../lib/gcc/pic32mx/4.8.3/../../../../pic32mx/lib/speed/libm.a(sitofp.o)

.data           0x00000000        0x0
 .data          0x00000000        0x0 /sdd/opt/microchip/xc32/v1.40/bin/bin/../../lib/gcc/pic32mx/4.8.3/../../../../pic32mx/lib/speed/libm.a(sitofp.o)

.bss            0x00000000        0x0
 .bss           0x00000000        0x0 /sdd/opt/microchip/xc32/v1.40/bin/bin/../../lib/gcc/pic32mx/4.8.3/../../../../pic32mx/lib/speed/libm.a(sigmax.o)

.data           0x00000000        0x0
 .data          0x00000000        0x0 /sdd/opt/microchip/xc32/v1.40/bin/bin/../../lib/gcc/pic32mx/4.8.3/../../../../pic32mx/lib/speed/libm.a(sigmax.o)

.bss            0x00000000        0x0
 .bss           0x00000000        0x0 /sdd/opt/microchip/xc32/v1.40/bin/bin/../../lib/gcc/pic32mx/4.8.3/../../../../pic32mx/lib/speed/libm.a(litodp.o)

.data           0x00000000        0x0
 .data          0x00000000        0x0 /sdd/opt/microchip/xc32/v1.40/bin/bin/../../lib/gcc/pic32mx/4.8.3/../../../../pic32mx/lib/speed/libm.a(litodp.o)

.bss            0x00000000        0x0
 .bss           0x00000000        0x0 /sdd/opt/microchip/xc32/v1.40/bin/bin/../../lib/gcc/pic32mx/4.8.3/../../../../pic32mx/lib/speed/libm.a(fptodp.o)

.data           0x00000000        0x0
 .data          0x00000000        0x0 /sdd/opt/microchip/xc32/v1.40/bin/bin/../../lib/gcc/pic32mx/4.8.3/../../../../pic32mx/lib/speed/libm.a(fptodp.o)

.bss            0x00000000        0x0
 .bss           0x00000000        0x0 /sdd/opt/microchip/xc32/v1.40/bin/bin/../../lib/gcc/pic32mx/4.8.3/../../../../pic32mx/lib/speed/libm.a(fpcmp.o)

.data           0x00000000        0x0
 .data          0x00000000        0x0 /sdd/opt/microchip/xc32/v1.40/bin/bin/../../lib/gcc/pic32mx/4.8.3/../../../../pic32mx/lib/speed/libm.a(fpcmp.o)

.bss            0x00000000        0x0
 .bss           0x00000000        0x0 /sdd/opt/microchip/xc32/v1.40/bin/bin/../../lib/gcc/pic32mx/4.8.3/../../../../pic32mx/lib/speed/libm.a(fp32subadd.o)

.data           0x00000000        0x0
 .data          0x00000000        0x0 /sdd/opt/microchip/xc32/v1.40/bin/bin/../../lib/gcc/pic32mx/4.8.3/../../../../pic32mx/lib/speed/libm.a(fp32subadd.o)

.bss            0x00000000        0x0
 .bss           0x00000000        0x0 /sdd/opt/microchip/xc32/v1.40/bin/bin/../../lib/gcc/pic32mx/4.8.3/../../../../pic32mx/lib/speed/libm.a(fp32mul.o)

.data           0x00000000        0x0
 .data          0x00000000        0x0 /sdd/opt/microchip/xc32/v1.40/bin/bin/../../lib/gcc/pic32mx/4.8.3/../../../../pic32mx/lib/speed/libm.a(fp32mul.o)

.bss            0x00000000        0x0
 .bss           0x00000000        0x0 /sdd/opt/microchip/xc32/v1.40/bin/bin/../../lib/gcc/pic32mx/4.8.3/../../../../pic32mx/lib/speed/libm.a(fp32div.o)

.data           0x00000000        0x0
 .data          0x00000000        0x0 /sdd/opt/microchip/xc32/v1.40/bin/bin/../../lib/gcc/pic32mx/4.8.3/../../../../pic32mx/lib/speed/libm.a(fp32div.o)

.bss            0x00000000        0x0
 .bss           0x00000000        0x0 /sdd/opt/microchip/xc32/v1.40/bin/bin/../../lib/gcc/pic32mx/4.8.3/../../../../pic32mx/lib/speed/libm.a(exmul.o)

.data           0x00000000        0x0
 .data          0x00000000        0x0 /sdd/opt/microchip/xc32/v1.40/bin/bin/../../lib/gcc/pic32mx/4.8.3/../../../../pic32mx/lib/speed/libm.a(exmul.o)

.bss            0x00000000        0x0
 .bss           0x00000000        0x0 /sdd/opt/microchip/xc32/v1.40/bin/bin/../../lib/gcc/pic32mx/4.8.3/../../../../pic32mx/lib/speed/libm.a(exdiv.o)

.data           0x00000000        0x0
 .data          0x00000000        0x0 /sdd/opt/microchip/xc32/v1.40/bin/bin/../../lib/gcc/pic32mx/4.8.3/../../../../pic32mx/lib/speed/libm.a(exdiv.o)

.bss            0x00000000        0x0
 .bss           0x00000000        0x0 /sdd/opt/microchip/xc32/v1.40/bin/bin/../../lib/gcc/pic32mx/4.8.3/../../../../pic32mx/lib/speed/libm.a(exadd.o)

.data           0x00000000        0x0
 .data          0x00000000        0x0 /sdd/opt/microchip/xc32/v1.40/bin/bin/../../lib/gcc/pic32mx/4.8.3/../../../../pic32mx/lib/speed/libm.a(exadd.o)

.bss            0x00000000        0x0
 .bss           0x00000000        0x0 /sdd/opt/microchip/xc32/v1.40/bin/bin/../../lib/gcc/pic32mx/4.8.3/../../../../pic32mx/lib/speed/libm.a(dptoli.o)

.data           0x00000000        0x0
 .data          0x00000000        0x0 /sdd/opt/microchip/xc32/v1.40/bin/bin/../../lib/gcc/pic32mx/4.8.3/../../../../pic32mx/lib/speed/libm.a(dptoli.o)

.bss            0x00000000        0x0
 .bss           0x00000000        0x0 /sdd/opt/microchip/xc32/v1.40/bin/bin/../../lib/gcc/pic32mx/4.8.3/../../../../pic32mx/lib/speed/libm.a(dptofp.o)

.data           0x00000000        0x0
 .data          0x00000000        0x0 /sdd/opt/microchip/xc32/v1.40/bin/bin/../../lib/gcc/pic32mx/4.8.3/../../../../pic32mx/lib/speed/libm.a(dptofp.o)

.bss            0x00000000        0x0
 .bss           0x00000000        0x0 /sdd/opt/microchip/xc32/v1.40/bin/bin/../../lib/gcc/pic32mx/4.8.3/../../../../pic32mx/lib/speed/libm.a(dp32subadd.o)

.data           0x00000000        0x0
 .data          0x00000000        0x0 /sdd/opt/microchip/xc32/v1.40/bin/bin/../../lib/gcc/pic32mx/4.8.3/../../../../pic32mx/lib/speed/libm.a(dp32subadd.o)

.bss            0x00000000        0x0
 .bss           0x00000000        0x0 /sdd/opt/microchip/xc32/v1.40/bin/bin/../../lib/gcc/pic32mx/4.8.3/../../../../pic32mx/lib/speed/libm.a(dp32mul.o)

.data           0x00000000        0x0
 .data          0x00000000        0x0 /sdd/opt/microchip/xc32/v1.40/bin/bin/../../lib/gcc/pic32mx/4.8.3/../../../../pic32mx/lib/speed/libm.a(dp32mul.o)

.bss            0x00000000        0x0
 .bss           0x00000000        0x0 /sdd/opt/microchip/xc32/v1.40/bin/bin/../../lib/gcc/pic32mx/4.8.3/../../../../pic32mx/lib/speed/libm.a(dp32div.o)

.data           0x00000000        0x0
 .data          0x00000000        0x0 /sdd/opt/microchip/xc32/v1.40/bin/bin/../../lib/gcc/pic32mx/4.8.3/../../../../pic32mx/lib/speed/libm.a(dp32div.o)

.bss            0x00000000        0x0
 .bss           0x00000000        0x0 /sdd/opt/microchip/xc32/v1.40/bin/bin/../../lib/gcc/pic32mx/4.8.3/../../../../pic32mx/lib/speed/libm.a(log32.o)

.bss            0x00000000        0x0
 .bss           0x00000000        0x0 /sdd/opt/microchip/xc32/v1.40/bin/bin/../../lib/gcc/pic32mx/4.8.3/../../../../pic32mx/lib/speed/libpic32.a(defaultinterrupt.o)

.data           0x00000000        0x0
 .data          0x00000000        0x0 /sdd/opt/microchip/xc32/v1.40/bin/bin/../../lib/gcc/pic32mx/4.8.3/../../../../pic32mx/lib/speed/libpic32.a(defaultinterrupt.o)

.bss            0x00000000        0x0
 .bss           0x00000000        0x0 /sdd/opt/microchip/xc32/v1.40/bin/bin/../../lib/gcc/pic32mx/4.8.3/../../../../pic32mx/lib/speed/libpic32.a(vector51.o)

.data           0x00000000        0x0
 .data          0x00000000        0x0 /sdd/opt/microchip/xc32/v1.40/bin/bin/../../lib/gcc/pic32mx/4.8.3/../../../../pic32mx/lib/speed/libpic32.a(vector51.o)

.bss            0x00000000        0x0
 .bss           0x00000000        0x0 /sdd/opt/microchip/xc32/v1.40/bin/bin/../../lib/gcc/pic32mx/4.8.3/../../../../pic32mx/lib/speed/libpic32.a(vector50.o)

.data           0x00000000        0x0
 .data          0x00000000        0x0 /sdd/opt/microchip/xc32/v1.40/bin/bin/../../lib/gcc/pic32mx/4.8.3/../../../../pic32mx/lib/speed/libpic32.a(vector50.o)

.bss            0x00000000        0x0
 .bss           0x00000000        0x0 /sdd/opt/microchip/xc32/v1.40/bin/bin/../../lib/gcc/pic32mx/4.8.3/../../../../pic32mx/lib/speed/libpic32.a(vector49.o)

.data           0x00000000        0x0
 .data          0x00000000        0x0 /sdd/opt/microchip/xc32/v1.40/bin/bin/../../lib/gcc/pic32mx/4.8.3/../../../../pic32mx/lib/speed/libpic32.a(vector49.o)

.bss            0x00000000        0x0
 .bss           0x00000000        0x0 /sdd/opt/microchip/xc32/v1.40/bin/bin/../../lib/gcc/pic32mx/4.8.3/../../../../pic32mx/lib/speed/libpic32.a(vector48.o)

.data           0x00000000        0x0
 .data          0x00000000        0x0 /sdd/opt/microchip/xc32/v1.40/bin/bin/../../lib/gcc/pic32mx/4.8.3/../../../../pic32mx/lib/speed/libpic32.a(vector48.o)

.bss            0x00000000        0x0
 .bss           0x00000000        0x0 /sdd/opt/microchip/xc32/v1.40/bin/bin/../../lib/gcc/pic32mx/4.8.3/../../../../pic32mx/lib/speed/libpic32.a(vector47.o)

.data           0x00000000        0x0
 .data          0x00000000        0x0 /sdd/opt/microchip/xc32/v1.40/bin/bin/../../lib/gcc/pic32mx/4.8.3/../../../../pic32mx/lib/speed/libpic32.a(vector47.o)

.bss            0x00000000        0x0
 .bss           0x00000000        0x0 /sdd/opt/microchip/xc32/v1.40/bin/bin/../../lib/gcc/pic32mx/4.8.3/../../../../pic32mx/lib/speed/libpic32.a(vector46.o)

.data           0x00000000        0x0
 .data          0x00000000        0x0 /sdd/opt/microchip/xc32/v1.40/bin/bin/../../lib/gcc/pic32mx/4.8.3/../../../../pic32mx/lib/speed/libpic32.a(vector46.o)

.bss            0x00000000        0x0
 .bss           0x00000000        0x0 /sdd/opt/microchip/xc32/v1.40/bin/bin/../../lib/gcc/pic32mx/4.8.3/../../../../pic32mx/lib/speed/libpic32.a(vector45.o)

.data           0x00000000        0x0
 .data          0x00000000        0x0 /sdd/opt/microchip/xc32/v1.40/bin/bin/../../lib/gcc/pic32mx/4.8.3/../../../../pic32mx/lib/speed/libpic32.a(vector45.o)

.bss            0x00000000        0x0
 .bss           0x00000000        0x0 /sdd/opt/microchip/xc32/v1.40/bin/bin/../../lib/gcc/pic32mx/4.8.3/../../../../pic32mx/lib/speed/libpic32.a(vector44.o)

.data           0x00000000        0x0
 .data          0x00000000        0x0 /sdd/opt/microchip/xc32/v1.40/bin/bin/../../lib/gcc/pic32mx/4.8.3/../../../../pic32mx/lib/speed/libpic32.a(vector44.o)

.bss            0x00000000        0x0
 .bss           0x00000000        0x0 /sdd/opt/microchip/xc32/v1.40/bin/bin/../../lib/gcc/pic32mx/4.8.3/../../../../pic32mx/lib/speed/libpic32.a(vector43.o)

.data           0x00000000        0x0
 .data          0x00000000        0x0 /sdd/opt/microchip/xc32/v1.40/bin/bin/../../lib/gcc/pic32mx/4.8.3/../../../../pic32mx/lib/speed/libpic32.a(vector43.o)

.bss            0x00000000        0x0
 .bss           0x00000000        0x0 /sdd/opt/microchip/xc32/v1.40/bin/bin/../../lib/gcc/pic32mx/4.8.3/../../../../pic32mx/lib/speed/libpic32.a(vector42.o)

.data           0x00000000        0x0
 .data          0x00000000        0x0 /sdd/opt/microchip/xc32/v1.40/bin/bin/../../lib/gcc/pic32mx/4.8.3/../../../../pic32mx/lib/speed/libpic32.a(vector42.o)

.bss            0x00000000        0x0
 .bss           0x00000000        0x0 /sdd/opt/microchip/xc32/v1.40/bin/bin/../../lib/gcc/pic32mx/4.8.3/../../../../pic32mx/lib/speed/libpic32.a(vector41.o)

.data           0x00000000        0x0
 .data          0x00000000        0x0 /sdd/opt/microchip/xc32/v1.40/bin/bin/../../lib/gcc/pic32mx/4.8.3/../../../../pic32mx/lib/speed/libpic32.a(vector41.o)

.bss            0x00000000        0x0
 .bss           0x00000000        0x0 /sdd/opt/microchip/xc32/v1.40/bin/bin/../../lib/gcc/pic32mx/4.8.3/../../../../pic32mx/lib/speed/libpic32.a(vector40.o)

.data           0x00000000        0x0
 .data          0x00000000        0x0 /sdd/opt/microchip/xc32/v1.40/bin/bin/../../lib/gcc/pic32mx/4.8.3/../../../../pic32mx/lib/speed/libpic32.a(vector40.o)

.bss            0x00000000        0x0
 .bss           0x00000000        0x0 /sdd/opt/microchip/xc32/v1.40/bin/bin/../../lib/gcc/pic32mx/4.8.3/../../../../pic32mx/lib/speed/libpic32.a(vector39.o)

.data           0x00000000        0x0
 .data          0x00000000        0x0 /sdd/opt/microchip/xc32/v1.40/bin/bin/../../lib/gcc/pic32mx/4.8.3/../../../../pic32mx/lib/speed/libpic32.a(vector39.o)

.bss            0x00000000        0x0
 .bss           0x00000000        0x0 /sdd/opt/microchip/xc32/v1.40/bin/bin/../../lib/gcc/pic32mx/4.8.3/../../../../pic32mx/lib/speed/libpic32.a(vector38.o)

.data           0x00000000        0x0
 .data          0x00000000        0x0 /sdd/opt/microchip/xc32/v1.40/bin/bin/../../lib/gcc/pic32mx/4.8.3/../../../../pic32mx/lib/speed/libpic32.a(vector38.o)

.bss            0x00000000        0x0
 .bss           0x00000000        0x0 /sdd/opt/microchip/xc32/v1.40/bin/bin/../../lib/gcc/pic32mx/4.8.3/../../../../pic32mx/lib/speed/libpic32.a(vector37.o)

.data           0x00000000        0x0
 .data          0x00000000        0x0 /sdd/opt/microchip/xc32/v1.40/bin/bin/../../lib/gcc/pic32mx/4.8.3/../../../../pic32mx/lib/speed/libpic32.a(vector37.o)

.bss            0x00000000        0x0
 .bss           0x00000000        0x0 /sdd/opt/microchip/xc32/v1.40/bin/bin/../../lib/gcc/pic32mx/4.8.3/../../../../pic32mx/lib/speed/libpic32.a(vector36.o)

.data           0x00000000        0x0
 .data          0x00000000        0x0 /sdd/opt/microchip/xc32/v1.40/bin/bin/../../lib/gcc/pic32mx/4.8.3/../../../../pic32mx/lib/speed/libpic32.a(vector36.o)

.bss            0x00000000        0x0
 .bss           0x00000000        0x0 /sdd/opt/microchip/xc32/v1.40/bin/bin/../../lib/gcc/pic32mx/4.8.3/../../../../pic32mx/lib/speed/libpic32.a(vector35.o)

.data           0x00000000        0x0
 .data          0x00000000        0x0 /sdd/opt/microchip/xc32/v1.40/bin/bin/../../lib/gcc/pic32mx/4.8.3/../../../../pic32mx/lib/speed/libpic32.a(vector35.o)

.bss            0x00000000        0x0
 .bss           0x00000000        0x0 /sdd/opt/microchip/xc32/v1.40/bin/bin/../../lib/gcc/pic32mx/4.8.3/../../../../pic32mx/lib/speed/libpic32.a(vector34.o)

.data           0x00000000        0x0
 .data          0x00000000        0x0 /sdd/opt/microchip/xc32/v1.40/bin/bin/../../lib/gcc/pic32mx/4.8.3/../../../../pic32mx/lib/speed/libpic32.a(vector34.o)

.bss            0x00000000        0x0
 .bss           0x00000000        0x0 /sdd/opt/microchip/xc32/v1.40/bin/bin/../../lib/gcc/pic32mx/4.8.3/../../../../pic32mx/lib/speed/libpic32.a(vector33.o)

.data           0x00000000        0x0
 .data          0x00000000        0x0 /sdd/opt/microchip/xc32/v1.40/bin/bin/../../lib/gcc/pic32mx/4.8.3/../../../../pic32mx/lib/speed/libpic32.a(vector33.o)

.bss            0x00000000        0x0
 .bss           0x00000000        0x0 /sdd/opt/microchip/xc32/v1.40/bin/bin/../../lib/gcc/pic32mx/4.8.3/../../../../pic32mx/lib/speed/libpic32.a(vector31.o)

.data           0x00000000        0x0
 .data          0x00000000        0x0 /sdd/opt/microchip/xc32/v1.40/bin/bin/../../lib/gcc/pic32mx/4.8.3/../../../../pic32mx/lib/speed/libpic32.a(vector31.o)

.bss            0x00000000        0x0
 .bss           0x00000000        0x0 /sdd/opt/microchip/xc32/v1.40/bin/bin/../../lib/gcc/pic32mx/4.8.3/../../../../pic32mx/lib/speed/libpic32.a(vector30.o)

.data           0x00000000        0x0
 .data          0x00000000        0x0 /sdd/opt/microchip/xc32/v1.40/bin/bin/../../lib/gcc/pic32mx/4.8.3/../../../../pic32mx/lib/speed/libpic32.a(vector30.o)

.bss            0x00000000        0x0
 .bss           0x00000000        0x0 /sdd/opt/microchip/xc32/v1.40/bin/bin/../../lib/gcc/pic32mx/4.8.3/../../../../pic32mx/lib/speed/libpic32.a(vector29.o)

.data           0x00000000        0x0
 .data          0x00000000        0x0 /sdd/opt/microchip/xc32/v1.40/bin/bin/../../lib/gcc/pic32mx/4.8.3/../../../../pic32mx/lib/speed/libpic32.a(vector29.o)

.bss            0x00000000        0x0
 .bss           0x00000000        0x0 /sdd/opt/microchip/xc32/v1.40/bin/bin/../../lib/gcc/pic32mx/4.8.3/../../../../pic32mx/lib/speed/libpic32.a(vector28.o)

.data           0x00000000        0x0
 .data          0x00000000        0x0 /sdd/opt/microchip/xc32/v1.40/bin/bin/../../lib/gcc/pic32mx/4.8.3/../../../../pic32mx/lib/speed/libpic32.a(vector28.o)

.bss            0x00000000        0x0
 .bss           0x00000000        0x0 /sdd/opt/microchip/xc32/v1.40/bin/bin/../../lib/gcc/pic32mx/4.8.3/../../../../pic32mx/lib/speed/libpic32.a(vector27.o)

.data           0x00000000        0x0
 .data          0x00000000        0x0 /sdd/opt/microchip/xc32/v1.40/bin/bin/../../lib/gcc/pic32mx/4.8.3/../../../../pic32mx/lib/speed/libpic32.a(vector27.o)

.bss            0x00000000        0x0
 .bss           0x00000000        0x0 /sdd/opt/microchip/xc32/v1.40/bin/bin/../../lib/gcc/pic32mx/4.8.3/../../../../pic32mx/lib/speed/libpic32.a(vector26.o)

.data           0x00000000        0x0
 .data          0x00000000        0x0 /sdd/opt/microchip/xc32/v1.40/bin/bin/../../lib/gcc/pic32mx/4.8.3/../../../../pic32mx/lib/speed/libpic32.a(vector26.o)

.bss            0x00000000        0x0
 .bss           0x00000000        0x0 /sdd/opt/microchip/xc32/v1.40/bin/bin/../../lib/gcc/pic32mx/4.8.3/../../../../pic32mx/lib/speed/libpic32.a(vector25.o)

.data           0x00000000        0x0
 .data          0x00000000        0x0 /sdd/opt/microchip/xc32/v1.40/bin/bin/../../lib/gcc/pic32mx/4.8.3/../../../../pic32mx/lib/speed/libpic32.a(vector25.o)

.bss            0x00000000        0x0
 .bss           0x00000000        0x0 /sdd/opt/microchip/xc32/v1.40/bin/bin/../../lib/gcc/pic32mx/4.8.3/../../../../pic32mx/lib/speed/libpic32.a(vector23.o)

.data           0x00000000        0x0
 .data          0x00000000        0x0 /sdd/opt/microchip/xc32/v1.40/bin/bin/../../lib/gcc/pic32mx/4.8.3/../../../../pic32mx/lib/speed/libpic32.a(vector23.o)

.bss            0x00000000        0x0
 .bss           0x00000000        0x0 /sdd/opt/microchip/xc32/v1.40/bin/bin/../../lib/gcc/pic32mx/4.8.3/../../../../pic32mx/lib/speed/libpic32.a(vector22.o)

.data           0x00000000        0x0
 .data          0x00000000        0x0 /sdd/opt/microchip/xc32/v1.40/bin/bin/../../lib/gcc/pic32mx/4.8.3/../../../../pic32mx/lib/speed/libpic32.a(vector22.o)

.bss            0x00000000        0x0
 .bss           0x00000000        0x0 /sdd/opt/microchip/xc32/v1.40/bin/bin/../../lib/gcc/pic32mx/4.8.3/../../../../pic32mx/lib/speed/libpic32.a(vector21.o)

.data           0x00000000        0x0
 .data          0x00000000        0x0 /sdd/opt/microchip/xc32/v1.40/bin/bin/../../lib/gcc/pic32mx/4.8.3/../../../../pic32mx/lib/speed/libpic32.a(vector21.o)

.bss            0x00000000        0x0
 .bss           0x00000000        0x0 /sdd/opt/microchip/xc32/v1.40/bin/bin/../../lib/gcc/pic32mx/4.8.3/../../../../pic32mx/lib/speed/libpic32.a(vector20.o)

.data           0x00000000        0x0
 .data          0x00000000        0x0 /sdd/opt/microchip/xc32/v1.40/bin/bin/../../lib/gcc/pic32mx/4.8.3/../../../../pic32mx/lib/speed/libpic32.a(vector20.o)

.bss            0x00000000        0x0
 .bss           0x00000000        0x0 /sdd/opt/microchip/xc32/v1.40/bin/bin/../../lib/gcc/pic32mx/4.8.3/../../../../pic32mx/lib/speed/libpic32.a(vector19.o)

.data           0x00000000        0x0
 .data          0x00000000        0x0 /sdd/opt/microchip/xc32/v1.40/bin/bin/../../lib/gcc/pic32mx/4.8.3/../../../../pic32mx/lib/speed/libpic32.a(vector19.o)

.bss            0x00000000        0x0
 .bss           0x00000000        0x0 /sdd/opt/microchip/xc32/v1.40/bin/bin/../../lib/gcc/pic32mx/4.8.3/../../../../pic32mx/lib/speed/libpic32.a(vector18.o)

.data           0x00000000        0x0
 .data          0x00000000        0x0 /sdd/opt/microchip/xc32/v1.40/bin/bin/../../lib/gcc/pic32mx/4.8.3/../../../../pic32mx/lib/speed/libpic32.a(vector18.o)

.bss            0x00000000        0x0
 .bss           0x00000000        0x0 /sdd/opt/microchip/xc32/v1.40/bin/bin/../../lib/gcc/pic32mx/4.8.3/../../../../pic32mx/lib/speed/libpic32.a(vector17.o)

.data           0x00000000        0x0
 .data          0x00000000        0x0 /sdd/opt/microchip/xc32/v1.40/bin/bin/../../lib/gcc/pic32mx/4.8.3/../../../../pic32mx/lib/speed/libpic32.a(vector17.o)

.bss            0x00000000        0x0
 .bss           0x00000000        0x0 /sdd/opt/microchip/xc32/v1.40/bin/bin/../../lib/gcc/pic32mx/4.8.3/../../../../pic32mx/lib/speed/libpic32.a(vector16.o)

.data           0x00000000        0x0
 .data          0x00000000        0x0 /sdd/opt/microchip/xc32/v1.40/bin/bin/../../lib/gcc/pic32mx/4.8.3/../../../../pic32mx/lib/speed/libpic32.a(vector16.o)

.bss            0x00000000        0x0
 .bss           0x00000000        0x0 /sdd/opt/microchip/xc32/v1.40/bin/bin/../../lib/gcc/pic32mx/4.8.3/../../../../pic32mx/lib/speed/libpic32.a(vector15.o)

.data           0x00000000        0x0
 .data          0x00000000        0x0 /sdd/opt/microchip/xc32/v1.40/bin/bin/../../lib/gcc/pic32mx/4.8.3/../../../../pic32mx/lib/speed/libpic32.a(vector15.o)

.bss            0x00000000        0x0
 .bss           0x00000000        0x0 /sdd/opt/microchip/xc32/v1.40/bin/bin/../../lib/gcc/pic32mx/4.8.3/../../../../pic32mx/lib/speed/libpic32.a(vector14.o)

.data           0x00000000        0x0
 .data          0x00000000        0x0 /sdd/opt/microchip/xc32/v1.40/bin/bin/../../lib/gcc/pic32mx/4.8.3/../../../../pic32mx/lib/speed/libpic32.a(vector14.o)

.bss            0x00000000        0x0
 .bss           0x00000000        0x0 /sdd/opt/microchip/xc32/v1.40/bin/bin/../../lib/gcc/pic32mx/4.8.3/../../../../pic32mx/lib/speed/libpic32.a(vector13.o)

.data           0x00000000        0x0
 .data          0x00000000        0x0 /sdd/opt/microchip/xc32/v1.40/bin/bin/../../lib/gcc/pic32mx/4.8.3/../../../../pic32mx/lib/speed/libpic32.a(vector13.o)

.bss            0x00000000        0x0
 .bss           0x00000000        0x0 /sdd/opt/microchip/xc32/v1.40/bin/bin/../../lib/gcc/pic32mx/4.8.3/../../../../pic32mx/lib/speed/libpic32.a(vector12.o)

.data           0x00000000        0x0
 .data          0x00000000        0x0 /sdd/opt/microchip/xc32/v1.40/bin/bin/../../lib/gcc/pic32mx/4.8.3/../../../../pic32mx/lib/speed/libpic32.a(vector12.o)

.bss            0x00000000        0x0
 .bss           0x00000000        0x0 /sdd/opt/microchip/xc32/v1.40/bin/bin/../../lib/gcc/pic32mx/4.8.3/../../../../pic32mx/lib/speed/libpic32.a(vector11.o)

.data           0x00000000        0x0
 .data          0x00000000        0x0 /sdd/opt/microchip/xc32/v1.40/bin/bin/../../lib/gcc/pic32mx/4.8.3/../../../../pic32mx/lib/speed/libpic32.a(vector11.o)

.bss            0x00000000        0x0
 .bss           0x00000000        0x0 /sdd/opt/microchip/xc32/v1.40/bin/bin/../../lib/gcc/pic32mx/4.8.3/../../../../pic32mx/lib/speed/libpic32.a(vector10.o)

.data           0x00000000        0x0
 .data          0x00000000        0x0 /sdd/opt/microchip/xc32/v1.40/bin/bin/../../lib/gcc/pic32mx/4.8.3/../../../../pic32mx/lib/speed/libpic32.a(vector10.o)

.bss            0x00000000        0x0
 .bss           0x00000000        0x0 /sdd/opt/microchip/xc32/v1.40/bin/bin/../../lib/gcc/pic32mx/4.8.3/../../../../pic32mx/lib/speed/libpic32.a(vector9.o)

.data           0x00000000        0x0
 .data          0x00000000        0x0 /sdd/opt/microchip/xc32/v1.40/bin/bin/../../lib/gcc/pic32mx/4.8.3/../../../../pic32mx/lib/speed/libpic32.a(vector9.o)

.bss            0x00000000        0x0
 .bss           0x00000000        0x0 /sdd/opt/microchip/xc32/v1.40/bin/bin/../../lib/gcc/pic32mx/4.8.3/../../../../pic32mx/lib/speed/libpic32.a(vector8.o)

.data           0x00000000        0x0
 .data          0x00000000        0x0 /sdd/opt/microchip/xc32/v1.40/bin/bin/../../lib/gcc/pic32mx/4.8.3/../../../../pic32mx/lib/speed/libpic32.a(vector8.o)

.bss            0x00000000        0x0
 .bss           0x00000000        0x0 /sdd/opt/microchip/xc32/v1.40/bin/bin/../../lib/gcc/pic32mx/4.8.3/../../../../pic32mx/lib/speed/libpic32.a(vector7.o)

.data           0x00000000        0x0
 .data          0x00000000        0x0 /sdd/opt/microchip/xc32/v1.40/bin/bin/../../lib/gcc/pic32mx/4.8.3/../../../../pic32mx/lib/speed/libpic32.a(vector7.o)

.bss            0x00000000        0x0
 .bss           0x00000000        0x0 /sdd/opt/microchip/xc32/v1.40/bin/bin/../../lib/gcc/pic32mx/4.8.3/../../../../pic32mx/lib/speed/libpic32.a(vector6.o)

.data           0x00000000        0x0
 .data          0x00000000        0x0 /sdd/opt/microchip/xc32/v1.40/bin/bin/../../lib/gcc/pic32mx/4.8.3/../../../../pic32mx/lib/speed/libpic32.a(vector6.o)

.bss            0x00000000        0x0
 .bss           0x00000000        0x0 /sdd/opt/microchip/xc32/v1.40/bin/bin/../../lib/gcc/pic32mx/4.8.3/../../../../pic32mx/lib/speed/libpic32.a(vector5.o)

.data           0x00000000        0x0
 .data          0x00000000        0x0 /sdd/opt/microchip/xc32/v1.40/bin/bin/../../lib/gcc/pic32mx/4.8.3/../../../../pic32mx/lib/speed/libpic32.a(vector5.o)

.bss            0x00000000        0x0
 .bss           0x00000000        0x0 /sdd/opt/microchip/xc32/v1.40/bin/bin/../../lib/gcc/pic32mx/4.8.3/../../../../pic32mx/lib/speed/libpic32.a(vector3.o)

.data           0x00000000        0x0
 .data          0x00000000        0x0 /sdd/opt/microchip/xc32/v1.40/bin/bin/../../lib/gcc/pic32mx/4.8.3/../../../../pic32mx/lib/speed/libpic32.a(vector3.o)

.bss            0x00000000        0x0
 .bss           0x00000000        0x0 /sdd/opt/microchip/xc32/v1.40/bin/bin/../../lib/gcc/pic32mx/4.8.3/../../../../pic32mx/lib/speed/libpic32.a(vector2.o)

.data           0x00000000        0x0
 .data          0x00000000        0x0 /sdd/opt/microchip/xc32/v1.40/bin/bin/../../lib/gcc/pic32mx/4.8.3/../../../../pic32mx/lib/speed/libpic32.a(vector2.o)

.bss            0x00000000        0x0
 .bss           0x00000000        0x0 /sdd/opt/microchip/xc32/v1.40/bin/bin/../../lib/gcc/pic32mx/4.8.3/../../../../pic32mx/lib/speed/libpic32.a(vector1.o)

.data           0x00000000        0x0
 .data          0x00000000        0x0 /sdd/opt/microchip/xc32/v1.40/bin/bin/../../lib/gcc/pic32mx/4.8.3/../../../../pic32mx/lib/speed/libpic32.a(vector1.o)

.bss            0x00000000        0x0
 .bss           0x00000000        0x0 /sdd/opt/microchip/xc32/v1.40/bin/bin/../../lib/gcc/pic32mx/4.8.3/../../../../pic32mx/lib/speed/libpic32.a(vector0.o)

.data           0x00000000        0x0
 .data          0x00000000        0x0 /sdd/opt/microchip/xc32/v1.40/bin/bin/../../lib/gcc/pic32mx/4.8.3/../../../../pic32mx/lib/speed/libpic32.a(vector0.o)

.bss            0x00000000        0x0
 .bss           0x00000000        0x0 /sdd/opt/microchip/xc32/v1.40/bin/bin/../../lib/gcc/pic32mx/4.8.3/../../../../pic32mx/lib/speed/libpic32.a(general-exception.o)

.data           0x00000000        0x0
 .data          0x00000000        0x0 /sdd/opt/microchip/xc32/v1.40/bin/bin/../../lib/gcc/pic32mx/4.8.3/../../../../pic32mx/lib/speed/libpic32.a(general-exception.o)

.bss            0x00000000        0x0
 .bss           0x00000000        0x0 /sdd/opt/microchip/xc32/v1.40/bin/bin/../../lib/gcc/pic32mx/4.8.3/../../../../pic32mx/lib/speed/libpic32.a(default-nmi-handler.o)

.data           0x00000000        0x0
 .data          0x00000000        0x0 /sdd/opt/microchip/xc32/v1.40/bin/bin/../../lib/gcc/pic32mx/4.8.3/../../../../pic32mx/lib/speed/libpic32.a(default-nmi-handler.o)

.bss            0x00000000        0x0
 .bss           0x00000000        0x0 /sdd/opt/microchip/xc32/v1.40/bin/bin/../../lib/gcc/pic32mx/4.8.3/../../../../pic32mx/lib/speed/libpic32.a(default-on-bootstrap.o)

.data           0x00000000        0x0
 .data          0x00000000        0x0 /sdd/opt/microchip/xc32/v1.40/bin/bin/../../lib/gcc/pic32mx/4.8.3/../../../../pic32mx/lib/speed/libpic32.a(default-on-bootstrap.o)

.bss            0x00000000        0x0
 .bss           0x00000000        0x0 /sdd/opt/microchip/xc32/v1.40/bin/bin/../../lib/gcc/pic32mx/4.8.3/../../../../pic32mx/lib/speed/libpic32.a(default-on-reset.o)

.data           0x00000000        0x0
 .data          0x00000000        0x0 /sdd/opt/microchip/xc32/v1.40/bin/bin/../../lib/gcc/pic32mx/4.8.3/../../../../pic32mx/lib/speed/libpic32.a(default-on-reset.o)

.bss            0x00000000        0x0
 .bss           0x00000000        0x0 /sdd/opt/microchip/xc32/v1.40/bin/bin/../../lib/gcc/pic32mx/4.8.3/../../../../pic32mx/lib/speed/libpic32.a(default-bootstrap-exception-handler.o)

.data           0x00000000        0x0
 .data          0x00000000        0x0 /sdd/opt/microchip/xc32/v1.40/bin/bin/../../lib/gcc/pic32mx/4.8.3/../../../../pic32mx/lib/speed/libpic32.a(default-bootstrap-exception-handler.o)

.bss            0x00000000        0x0
 .bss           0x00000000        0x0 /sdd/opt/microchip/xc32/v1.40/bin/bin/../../lib/gcc/pic32mx/4.8.3/../../../../pic32mx/lib/speed/libpic32.a(strlen.o)

.data           0x00000000        0x0
 .data          0x00000000        0x0 /sdd/opt/microchip/xc32/v1.40/bin/bin/../../lib/gcc/pic32mx/4.8.3/../../../../pic32mx/lib/speed/libpic32.a(strlen.o)

.bss            0x00000000        0x0
 .bss           0x00000000        0x0 /sdd/opt/microchip/xc32/v1.40/bin/bin/../../lib/gcc/pic32mx/4.8.3/../../../../pic32mx/lib/speed/libpic32.a(strcpy.o)

.data           0x00000000        0x0
 .data          0x00000000        0x0 /sdd/opt/microchip/xc32/v1.40/bin/bin/../../lib/gcc/pic32mx/4.8.3/../../../../pic32mx/lib/speed/libpic32.a(strcpy.o)

.bss            0x00000000        0x0
 .bss           0x00000000        0x0 /sdd/opt/microchip/xc32/v1.40/bin/bin/../../lib/gcc/pic32mx/4.8.3/../../../../pic32mx/lib/speed/libpic32.a(strcmp.o)

.data           0x00000000        0x0
 .data          0x00000000        0x0 /sdd/opt/microchip/xc32/v1.40/bin/bin/../../lib/gcc/pic32mx/4.8.3/../../../../pic32mx/lib/speed/libpic32.a(strcmp.o)

.bss            0x00000000        0x0
 .bss           0x00000000        0x0 /sdd/opt/microchip/xc32/v1.40/bin/bin/../../lib/gcc/pic32mx/4.8.3/../../../../pic32mx/lib/speed/libpic32.a(memset.o)

.data           0x00000000        0x0
 .data          0x00000000        0x0 /sdd/opt/microchip/xc32/v1.40/bin/bin/../../lib/gcc/pic32mx/4.8.3/../../../../pic32mx/lib/speed/libpic32.a(memset.o)

.bss            0x00000000        0x0
 .bss           0x00000000        0x0 /sdd/opt/microchip/xc32/v1.40/bin/bin/../../lib/gcc/pic32mx/4.8.3/../../../../pic32mx/lib/speed/libpic32.a(memcpy.o)

.data           0x00000000        0x0
 .data          0x00000000        0x0 /sdd/opt/microchip/xc32/v1.40/bin/bin/../../lib/gcc/pic32mx/4.8.3/../../../../pic32mx/lib/speed/libpic32.a(memcpy.o)

.bss            0x00000000        0x0
 .bss           0x00000000        0x0 /sdd/opt/microchip/xc32/v1.40/bin/bin/../../lib/gcc/pic32mx/4.8.3/../../../../pic32mx/lib/speed/libpic32.a(memcmp.o)

.data           0x00000000        0x0
 .data          0x00000000        0x0 /sdd/opt/microchip/xc32/v1.40/bin/bin/../../lib/gcc/pic32mx/4.8.3/../../../../pic32mx/lib/speed/libpic32.a(memcmp.o)

.bss            0x00000000        0x0
 .bss           0x00000000        0x0 /sdd/opt/microchip/xc32/v1.40/bin/bin/../../lib/gcc/pic32mx/4.8.3/speed/libgcc.a(floatunsisf.o)

.data           0x00000000        0x0
 .data          0x00000000        0x0 /sdd/opt/microchip/xc32/v1.40/bin/bin/../../lib/gcc/pic32mx/4.8.3/speed/libgcc.a(floatunsisf.o)

.bss            0x00000000        0x0
 .bss           0x00000000        0x0 /sdd/opt/microchip/xc32/v1.40/bin/bin/../../lib/gcc/pic32mx/4.8.3/speed/libgcc.a(_udivdi3.o)

.data           0x00000000        0x0
 .data          0x00000000        0x0 /sdd/opt/microchip/xc32/v1.40/bin/bin/../../lib/gcc/pic32mx/4.8.3/speed/libgcc.a(_udivdi3.o)

.bss            0x00000000        0x0
 .bss           0x00000000        0x0 /sdd/opt/microchip/xc32/v1.40/bin/bin/../../lib/gcc/pic32mx/4.8.3/../../../../pic32mx/lib/speed/libmchp_peripheral_32MX795F512L.a(int_enable_interrupts_lib.o)

.data           0x00000000        0x0
 .data          0x00000000        0x0 /sdd/opt/microchip/xc32/v1.40/bin/bin/../../lib/gcc/pic32mx/4.8.3/../../../../pic32mx/lib/speed/libmchp_peripheral_32MX795F512L.a(int_enable_interrupts_lib.o)

.bss            0x00000000        0x0
 .bss           0x00000000        0x0 /sdd/opt/microchip/xc32/v1.40/bin/bin/../../lib/gcc/pic32mx/4.8.3/../../../../pic32mx/lib/speed/libmchp_peripheral_32MX795F512L.a(uart_lib.o)

.data           0x00000000        0x0
 .data          0x00000000        0x0 /sdd/opt/microchip/xc32/v1.40/bin/bin/../../lib/gcc/pic32mx/4.8.3/../../../../pic32mx/lib/speed/libmchp_peripheral_32MX795F512L.a(uart_lib.o)

.bss            0x00000000        0x0
 .bss           0x00000000        0x0 /sdd/opt/microchip/xc32/v1.40/bin/bin/../../lib/gcc/pic32mx/4.8.3/../../../../pic32mx/lib/speed/libmchp_peripheral_32MX795F512L.a(_ports_tbl_libp.o)

.data           0x00000000        0x0
 .data          0x00000000        0x0 /sdd/opt/microchip/xc32/v1.40/bin/bin/../../lib/gcc/pic32mx/4.8.3/../../../../pic32mx/lib/speed/libmchp_peripheral_32MX795F512L.a(_ports_tbl_libp.o)

.bss            0x00000000        0x0
 .bss           0x00000000        0x0 /sdd/opt/microchip/xc32/v1.40/bin/bin/../../lib/gcc/pic32mx/4.8.3/../../../../pic32mx/lib/speed/libmchp_peripheral_32MX795F512L.a(port_set_pins_digital_out_lib.o)

.data           0x00000000        0x0
 .data          0x00000000        0x0 /sdd/opt/microchip/xc32/v1.40/bin/bin/../../lib/gcc/pic32mx/4.8.3/../../../../pic32mx/lib/speed/libmchp_peripheral_32MX795F512L.a(port_set_pins_digital_out_lib.o)

.bss            0x00000000        0x0
 .bss           0x00000000        0x0 /sdd/opt/microchip/xc32/v1.40/bin/bin/../../lib/gcc/pic32mx/4.8.3/../../../../pic32mx/lib/speed/libmchp_peripheral_32MX795F512L.a(port_set_pins_digital_in_lib.o)

.data           0x00000000        0x0
 .data          0x00000000        0x0 /sdd/opt/microchip/xc32/v1.40/bin/bin/../../lib/gcc/pic32mx/4.8.3/../../../../pic32mx/lib/speed/libmchp_peripheral_32MX795F512L.a(port_set_pins_digital_in_lib.o)

.bss            0x00000000        0x0
 .bss           0x00000000        0x0 /sdd/opt/microchip/xc32/v1.40/bin/bin/../../lib/gcc/pic32mx/4.8.3/../../../../pic32mx/lib/speed/libmchp_peripheral_32MX795F512L.a(int_tbl_lib.o)

.data           0x00000000        0x0
 .data          0x00000000        0x0 /sdd/opt/microchip/xc32/v1.40/bin/bin/../../lib/gcc/pic32mx/4.8.3/../../../../pic32mx/lib/speed/libmchp_peripheral_32MX795F512L.a(int_tbl_lib.o)

.bss            0x00000000        0x0
 .bss           0x00000000        0x0 /sdd/opt/microchip/xc32/v1.40/bin/bin/../../lib/gcc/pic32mx/4.8.3/../../../../pic32mx/lib/speed/libmchp_peripheral_32MX795F512L.a(int_enable_mv_int_lib.o)

.data           0x00000000        0x0
 .data          0x00000000        0x0 /sdd/opt/microchip/xc32/v1.40/bin/bin/../../lib/gcc/pic32mx/4.8.3/../../../../pic32mx/lib/speed/libmchp_peripheral_32MX795F512L.a(int_enable_mv_int_lib.o)

.bss            0x00000000        0x0
 .bss           0x00000000        0x0 /sdd/opt/microchip/xc32/v1.40/bin/bin/../../lib/gcc/pic32mx/4.8.3/../../../../pic32mx/lib/speed/libmchp_peripheral_32MX795F512L.a(int_restore_interrupts_lib.o)

.data           0x00000000        0x0
 .data          0x00000000        0x0 /sdd/opt/microchip/xc32/v1.40/bin/bin/../../lib/gcc/pic32mx/4.8.3/../../../../pic32mx/lib/speed/libmchp_peripheral_32MX795F512L.a(int_restore_interrupts_lib.o)

.bss            0x00000000        0x0
 .bss           0x00000000        0x0 /sdd/opt/microchip/xc32/v1.40/bin/bin/../../lib/gcc/pic32mx/4.8.3/../../../../pic32mx/lib/speed/libmchp_peripheral_32MX795F512L.a(int_disable_interrupts_lib.o)

.data           0x00000000        0x0
 .data          0x00000000        0x0 /sdd/opt/microchip/xc32/v1.40/bin/bin/../../lib/gcc/pic32mx/4.8.3/../../../../pic32mx/lib/speed/libmchp_peripheral_32MX795F512L.a(int_disable_interrupts_lib.o)

.bss            0x00000000        0x0
 .bss           0x00000000        0x0 /sdd/opt/microchip/xc32/v1.40/bin/bin/../../lib/gcc/pic32mx/4.8.3/../../../../pic32mx/lib/speed/libmchp_peripheral_32MX795F512L.a(pcache.o)

.data           0x00000000        0x0
 .data          0x00000000        0x0 /sdd/opt/microchip/xc32/v1.40/bin/bin/../../lib/gcc/pic32mx/4.8.3/../../../../pic32mx/lib/speed/libmchp_peripheral_32MX795F512L.a(pcache.o)

.bss            0x00000000        0x0
 .bss           0x00000000        0x0 /sdd/opt/microchip/xc32/v1.40/bin/bin/../../lib/gcc/pic32mx/4.8.3/../../../../pic32mx/lib/speed/libmchp_peripheral_32MX795F512L.a(soft_reset_lib.o)

.data           0x00000000        0x0
 .data          0x00000000        0x0 /sdd/opt/microchip/xc32/v1.40/bin/bin/../../lib/gcc/pic32mx/4.8.3/../../../../pic32mx/lib/speed/libmchp_peripheral_32MX795F512L.a(soft_reset_lib.o)

.bss            0x00000000        0x0
 .bss           0x00000000        0x0 /sdd/opt/microchip/xc32/v1.40/bin/bin/../../lib/gcc/pic32mx/4.8.3/../../../../pic32mx/lib/speed/libmchp_peripheral_32MX795F512L.a(eth_miim_access.o)

.data           0x00000000        0x0
 .data          0x00000000        0x0 /sdd/opt/microchip/xc32/v1.40/bin/bin/../../lib/gcc/pic32mx/4.8.3/../../../../pic32mx/lib/speed/libmchp_peripheral_32MX795F512L.a(eth_miim_access.o)

.bss            0x00000000        0x0
 .bss           0x00000000        0x0 /sdd/opt/microchip/xc32/v1.40/bin/bin/../../lib/gcc/pic32mx/4.8.3/../../../../pic32mx/lib/speed/libmchp_peripheral_32MX795F512L.a(_eth_append_busy_list_lib.o)

.data           0x00000000        0x0
 .data          0x00000000        0x0 /sdd/opt/microchip/xc32/v1.40/bin/bin/../../lib/gcc/pic32mx/4.8.3/../../../../pic32mx/lib/speed/libmchp_peripheral_32MX795F512L.a(_eth_append_busy_list_lib.o)

.bss            0x00000000        0x0
 .bss           0x00000000        0x0 /sdd/opt/microchip/xc32/v1.40/bin/bin/../../lib/gcc/pic32mx/4.8.3/../../../../pic32mx/lib/speed/libmchp_peripheral_32MX795F512L.a(eth_tx_packet_lib.o)

.data           0x00000000        0x0
 .data          0x00000000        0x0 /sdd/opt/microchip/xc32/v1.40/bin/bin/../../lib/gcc/pic32mx/4.8.3/../../../../pic32mx/lib/speed/libmchp_peripheral_32MX795F512L.a(eth_tx_packet_lib.o)

.bss            0x00000000        0x0
 .bss           0x00000000        0x0 /sdd/opt/microchip/xc32/v1.40/bin/bin/../../lib/gcc/pic32mx/4.8.3/../../../../pic32mx/lib/speed/libmchp_peripheral_32MX795F512L.a(eth_rx_set_buffer_size_lib.o)

.data           0x00000000        0x0
 .data          0x00000000        0x0 /sdd/opt/microchip/xc32/v1.40/bin/bin/../../lib/gcc/pic32mx/4.8.3/../../../../pic32mx/lib/speed/libmchp_peripheral_32MX795F512L.a(eth_rx_set_buffer_size_lib.o)

.bss            0x00000000        0x0
 .bss           0x00000000        0x0 /sdd/opt/microchip/xc32/v1.40/bin/bin/../../lib/gcc/pic32mx/4.8.3/../../../../pic32mx/lib/speed/libmchp_peripheral_32MX795F512L.a(eth_rx_get_packet_lib.o)

.data           0x00000000        0x0
 .data          0x00000000        0x0 /sdd/opt/microchip/xc32/v1.40/bin/bin/../../lib/gcc/pic32mx/4.8.3/../../../../pic32mx/lib/speed/libmchp_peripheral_32MX795F512L.a(eth_rx_get_packet_lib.o)

.bss            0x00000000        0x0
 .bss           0x00000000        0x0 /sdd/opt/microchip/xc32/v1.40/bin/bin/../../lib/gcc/pic32mx/4.8.3/../../../../pic32mx/lib/speed/libmchp_peripheral_32MX795F512L.a(eth_rx_filters_lib.o)

.data           0x00000000        0x0
 .data          0x00000000        0x0 /sdd/opt/microchip/xc32/v1.40/bin/bin/../../lib/gcc/pic32mx/4.8.3/../../../../pic32mx/lib/speed/libmchp_peripheral_32MX795F512L.a(eth_rx_filters_lib.o)

.bss            0x00000000        0x0
 .bss           0x00000000        0x0 /sdd/opt/microchip/xc32/v1.40/bin/bin/../../lib/gcc/pic32mx/4.8.3/../../../../pic32mx/lib/speed/libmchp_peripheral_32MX795F512L.a(eth_rx_buffers_append_lib.o)

.data           0x00000000        0x0
 .data          0x00000000        0x0 /sdd/opt/microchip/xc32/v1.40/bin/bin/../../lib/gcc/pic32mx/4.8.3/../../../../pic32mx/lib/speed/libmchp_peripheral_32MX795F512L.a(eth_rx_buffers_append_lib.o)

.bss            0x00000000        0x0
 .bss           0x00000000        0x0 /sdd/opt/microchip/xc32/v1.40/bin/bin/../../lib/gcc/pic32mx/4.8.3/../../../../pic32mx/lib/speed/libmchp_peripheral_32MX795F512L.a(eth_mac_set_address_max_lib.o)

.data           0x00000000        0x0
 .data          0x00000000        0x0 /sdd/opt/microchip/xc32/v1.40/bin/bin/../../lib/gcc/pic32mx/4.8.3/../../../../pic32mx/lib/speed/libmchp_peripheral_32MX795F512L.a(eth_mac_set_address_max_lib.o)

.bss            0x00000000        0x0
 .bss           0x00000000        0x0 /sdd/opt/microchip/xc32/v1.40/bin/bin/../../lib/gcc/pic32mx/4.8.3/../../../../pic32mx/lib/speed/libmchp_peripheral_32MX795F512L.a(eth_mac_open_lib.o)

.data           0x00000000        0x0
 .data          0x00000000        0x0 /sdd/opt/microchip/xc32/v1.40/bin/bin/../../lib/gcc/pic32mx/4.8.3/../../../../pic32mx/lib/speed/libmchp_peripheral_32MX795F512L.a(eth_mac_open_lib.o)

.bss            0x00000000        0x0
 .bss           0x00000000        0x0 /sdd/opt/microchip/xc32/v1.40/bin/bin/../../lib/gcc/pic32mx/4.8.3/../../../../pic32mx/lib/speed/libmchp_peripheral_32MX795F512L.a(eth_init_lib.o)

.data           0x00000000        0x0
 .data          0x00000000        0x0 /sdd/opt/microchip/xc32/v1.40/bin/bin/../../lib/gcc/pic32mx/4.8.3/../../../../pic32mx/lib/speed/libmchp_peripheral_32MX795F512L.a(eth_init_lib.o)

.data           0x00000000        0x0
 .data          0x00000000        0x0 /sdd/opt/microchip/xc32/v1.40/bin/bin/../../lib/gcc/pic32mx/4.8.3/../../../../pic32mx/lib/speed/libmchp_peripheral_32MX795F512L.a(eth_descriptors_add_lib.o)

.bss            0x00000000        0x0
 .bss           0x00000000        0x0 /sdd/opt/microchip/xc32/v1.40/bin/bin/../../lib/gcc/pic32mx/4.8.3/../../../../pic32mx/lib/speed/libmchp_peripheral_32MX795F512L.a(eth_ack_packet_lib.o)

.data           0x00000000        0x0
 .data          0x00000000        0x0 /sdd/opt/microchip/xc32/v1.40/bin/bin/../../lib/gcc/pic32mx/4.8.3/../../../../pic32mx/lib/speed/libmchp_peripheral_32MX795F512L.a(eth_ack_packet_lib.o)

.bss            0x00000000        0x0
 .bss           0x00000000        0x0 /sdd/opt/microchip/xc32/v1.40/bin/bin/../../lib/gcc/pic32mx/4.8.3/../../../../pic32mx/lib/speed/libmchp_peripheral.a(read_core_timer_lib.o)

.data           0x00000000        0x0
 .data          0x00000000        0x0 /sdd/opt/microchip/xc32/v1.40/bin/bin/../../lib/gcc/pic32mx/4.8.3/../../../../pic32mx/lib/speed/libmchp_peripheral.a(read_core_timer_lib.o)

.bss            0x00000000        0x0
 .bss           0x00000000        0x0 /sdd/opt/microchip/xc32/v1.40/bin/bin/../../lib/gcc/pic32mx/4.8.3/../../../../pic32mx/lib/./proc/32MX795F512L/processor.o

.data           0x00000000        0x0
 .data          0x00000000        0x0 /sdd/opt/microchip/xc32/v1.40/bin/bin/../../lib/gcc/pic32mx/4.8.3/../../../../pic32mx/lib/./proc/32MX795F512L/processor.o

.bss            0x00000000        0x0
 .bss           0x00000000        0x0 /sdd/opt/microchip/xc32/v1.40/bin/bin/../../lib/gcc/pic32mx/4.8.3/../../../../pic32mx/lib/speed/pic32_software_reset.o

.data           0x00000000        0x0
 .data          0x00000000        0x0 /sdd/opt/microchip/xc32/v1.40/bin/bin/../../lib/gcc/pic32mx/4.8.3/../../../../pic32mx/lib/speed/pic32_software_reset.o

.bss            0x00000000        0x0
 .bss           0x00000000        0x0 /sdd/opt/microchip/xc32/v1.40/bin/bin/../../lib/gcc/pic32mx/4.8.3/../../../../pic32mx/lib/./proc/32MX795F512L/default_isr_vectors.o

.data           0x00000000        0x0
 .data          0x00000000        0x0 /sdd/opt/microchip/xc32/v1.40/bin/bin/../../lib/gcc/pic32mx/4.8.3/../../../../pic32mx/lib/./proc/32MX795F512L/default_isr_vectors.o

.bss            0x00000000        0x0
 .bss           0x00000000        0x0 build/default/production/_ext/1472/crc8_fast.o

.data           0x00000000        0x0
 .data          0x00000000        0x0 build/default/production/_ext/1472/crc8_fast.o

.bss            0x00000000        0x0
 .bss           0x00000000        0x0 build/default/production/_ext/1472/MainDemo.o

.data           0x00000000        0x0
 .data          0x00000000        0x0 build/default/production/_ext/1472/MainDemo.o

.bss            0x00000000        0x0
 .bss           0x00000000        0x0 build/default/production/_ext/1472/CustomSSLCert.o

.data           0x00000000        0x0
 .data          0x00000000        0x0 build/default/production/_ext/1472/CustomSSLCert.o

.bss            0x00000000        0x0
 .bss           0x00000000        0x0 build/default/production/_ext/1472/CustomSNMPApp.o

.data           0x00000000        0x0
 .data          0x00000000        0x0 build/default/production/_ext/1472/CustomSNMPApp.o

.data           0x00000000        0x0
 .data          0x00000000        0x0 build/default/production/_ext/1472/CustomHTTPApp.o

.bss            0x00000000        0x0
 .bss           0x00000000        0x0 build/default/production/_ext/1295770447/BigInt_helper_C32.o

.data           0x00000000        0x0
 .data          0x00000000        0x0 build/default/production/_ext/1295770447/BigInt_helper_C32.o

.bss            0x00000000        0x0
 .bss           0x00000000        0x0 build/default/production/_ext/1472/MPFSImg.o

.data           0x00000000        0x0
 .data          0x00000000        0x0 build/default/production/_ext/1472/MPFSImg.o

.bss            0x00000000        0x0
 .bss           0x00000000        0x0 build/default/production/_ext/1472/MPFSImg2.o

.data           0x00000000        0x0
 .data          0x00000000        0x0 build/default/production/_ext/1472/MPFSImg2.o

.bss            0x00000000        0x0
 .bss           0x00000000        0x0 build/default/production/_ext/1295770447/ZeroconfMulticastDNS.o

.data           0x00000000        0x0
 .data          0x00000000        0x0 build/default/production/_ext/1295770447/ZeroconfMulticastDNS.o

.bss            0x00000000        0x0
 .bss           0x00000000        0x0 build/default/production/_ext/1295770447/ZeroconfLinkLocal.o

.data           0x00000000        0x0
 .data          0x00000000        0x0 build/default/production/_ext/1295770447/ZeroconfLinkLocal.o

.bss            0x00000000        0x0
 .bss           0x00000000        0x0 build/default/production/_ext/1295770447/ZeroconfHelper.o

.data           0x00000000        0x0
 .data          0x00000000        0x0 build/default/production/_ext/1295770447/ZeroconfHelper.o

.bss            0x00000000        0x0
 .bss           0x00000000        0x0 build/default/production/_ext/1295770447/UDPPerformanceTest.o

.data           0x00000000        0x0
 .data          0x00000000        0x0 build/default/production/_ext/1295770447/UDPPerformanceTest.o

.bss            0x00000000        0x0
 .bss           0x00000000        0x0 build/default/production/_ext/1295770447/UDP.o

.data           0x00000000        0x0
 .data          0x00000000        0x0 build/default/production/_ext/1295770447/UDP.o

.bss            0x00000000        0x0
 .bss           0x00000000        0x0 build/default/production/_ext/1295770447/UART.o

.data           0x00000000        0x0
 .data          0x00000000        0x0 build/default/production/_ext/1295770447/UART.o

.bss            0x00000000        0x0
 .bss           0x00000000        0x0 build/default/production/_ext/1295770447/UART2TCPBridge.o

.data           0x00000000        0x0
 .data          0x00000000        0x0 build/default/production/_ext/1295770447/UART2TCPBridge.o

.bss            0x00000000        0x0
 .bss           0x00000000        0x0 build/default/production/_ext/1295770447/Tick.o

.data           0x00000000        0x0
 .data          0x00000000        0x0 build/default/production/_ext/1295770447/Tick.o

.bss            0x00000000        0x0
 .bss           0x00000000        0x0 build/default/production/_ext/1295770447/TFTPc.o

.data           0x00000000        0x0
 .data          0x00000000        0x0 build/default/production/_ext/1295770447/TFTPc.o

.data           0x00000000        0x0
 .data          0x00000000        0x0 build/default/production/_ext/1295770447/Telnet.o

.data           0x00000000        0x0
 .data          0x00000000        0x0 build/default/production/_ext/1295770447/TCPPerformanceTest.o

.data           0x00000000        0x0
 .data          0x00000000        0x0 build/default/production/_ext/1295770447/TCP.o

.bss            0x00000000        0x0
 .bss           0x00000000        0x0 build/default/production/_ext/1295770447/StackTsk.o

.data           0x00000000        0x0
 .data          0x00000000        0x0 build/default/production/_ext/1295770447/StackTsk.o

.bss            0x00000000        0x0
 .bss           0x00000000        0x0 build/default/production/_ext/1295770447/SSL.o

.data           0x00000000        0x0
 .data          0x00000000        0x0 build/default/production/_ext/1295770447/SSL.o

.bss            0x00000000        0x0
 .bss           0x00000000        0x0 build/default/production/_ext/1295770447/SPIRAM.o

.data           0x00000000        0x0
 .data          0x00000000        0x0 build/default/production/_ext/1295770447/SPIRAM.o

.bss            0x00000000        0x0
 .bss           0x00000000        0x0 build/default/production/_ext/1295770447/SPIFlash.o

.data           0x00000000        0x0
 .data          0x00000000        0x0 build/default/production/_ext/1295770447/SPIFlash.o

.bss            0x00000000        0x0
 .bss           0x00000000        0x0 build/default/production/_ext/1295770447/SPIEEPROM.o

.data           0x00000000        0x0
 .data          0x00000000        0x0 build/default/production/_ext/1295770447/SPIEEPROM.o

.data           0x00000000        0x0
 .data          0x00000000        0x0 build/default/production/_ext/1295770447/SNTP.o

.bss            0x00000000        0x0
 .bss           0x00000000        0x0 build/default/production/_ext/1295770447/SNMPv3USM.o

.data           0x00000000        0x0
 .data          0x00000000        0x0 build/default/production/_ext/1295770447/SNMPv3USM.o

.bss            0x00000000        0x0
 .bss           0x00000000        0x0 build/default/production/_ext/1295770447/SNMPv3.o

.data           0x00000000        0x0
 .data          0x00000000        0x0 build/default/production/_ext/1295770447/SNMPv3.o

.bss            0x00000000        0x0
 .bss           0x00000000        0x0 build/default/production/_ext/1295770447/SNMP.o

.data           0x00000000        0x0
 .data          0x00000000        0x0 build/default/production/_ext/1295770447/SNMP.o

.bss            0x00000000        0x0
 .bss           0x00000000        0x0 build/default/production/_ext/1295770447/SMTP.o

.data           0x00000000        0x0
 .data          0x00000000        0x0 build/default/production/_ext/1295770447/SMTP.o

.bss            0x00000000        0x0
 .bss           0x00000000        0x0 build/default/production/_ext/1295770447/RSA.o

.data           0x00000000        0x0
 .data          0x00000000        0x0 build/default/production/_ext/1295770447/RSA.o

.bss            0x00000000        0x0
 .bss           0x00000000        0x0 build/default/production/_ext/1295770447/Reboot.o

.data           0x00000000        0x0
 .data          0x00000000        0x0 build/default/production/_ext/1295770447/Reboot.o

.bss            0x00000000        0x0
 .bss           0x00000000        0x0 build/default/production/_ext/1295770447/Random.o

.data           0x00000000        0x0
 .data          0x00000000        0x0 build/default/production/_ext/1295770447/Random.o

.bss            0x00000000        0x0
 .bss           0x00000000        0x0 build/default/production/_ext/1295770447/NBNS.o

.data           0x00000000        0x0
 .data          0x00000000        0x0 build/default/production/_ext/1295770447/NBNS.o

.bss            0x00000000        0x0
 .bss           0x00000000        0x0 build/default/production/_ext/1295770447/MPFS.o

.data           0x00000000        0x0
 .data          0x00000000        0x0 build/default/production/_ext/1295770447/MPFS.o

.data           0x00000000        0x0
 .data          0x00000000        0x0 build/default/production/_ext/1295770447/MPFS2.o

.bss            0x00000000        0x0
 .bss           0x00000000        0x0 build/default/production/_ext/1295770447/LCDBlocking.o

.data           0x00000000        0x0
 .data          0x00000000        0x0 build/default/production/_ext/1295770447/LCDBlocking.o

.bss            0x00000000        0x0
 .bss           0x00000000        0x0 build/default/production/_ext/1295770447/IP.o

.data           0x00000000        0x0
 .data          0x00000000        0x0 build/default/production/_ext/1295770447/IP.o

.data           0x00000000        0x0
 .data          0x00000000        0x0 build/default/production/_ext/1295770447/ICMP.o

.bss            0x00000000        0x0
 .bss           0x00000000        0x0 build/default/production/_ext/1295770447/HTTP.o

.data           0x00000000        0x0
 .data          0x00000000        0x0 build/default/production/_ext/1295770447/HTTP.o

.bss            0x00000000        0x0
 .bss           0x00000000        0x0 build/default/production/_ext/1295770447/HTTP2.o

.data           0x00000000        0x0
 .data          0x00000000        0x0 build/default/production/_ext/1295770447/HTTP2.o

.bss            0x00000000        0x0
 .bss           0x00000000        0x0 build/default/production/_ext/1295770447/Helpers.o

.data           0x00000000        0x0
 .data          0x00000000        0x0 build/default/production/_ext/1295770447/Helpers.o

.bss            0x00000000        0x0
 .bss           0x00000000        0x0 build/default/production/_ext/1295770447/Hashes.o

.data           0x00000000        0x0
 .data          0x00000000        0x0 build/default/production/_ext/1295770447/Hashes.o

.bss            0x00000000        0x0
 .bss           0x00000000        0x0 build/default/production/_ext/1295770447/FTP.o

.data           0x00000000        0x0
 .data          0x00000000        0x0 build/default/production/_ext/1295770447/FTP.o

.bss            0x00000000        0x0
 .bss           0x00000000        0x0 build/default/production/_ext/1295770447/FileSystem.o

.data           0x00000000        0x0
 .data          0x00000000        0x0 build/default/production/_ext/1295770447/FileSystem.o

.data           0x00000000        0x0
 .data          0x00000000        0x0 build/default/production/_ext/1295770447/ETHPIC32IntMac.o

.bss            0x00000000        0x0
 .bss           0x00000000        0x0 build/default/production/_ext/1295770447/ETHPIC32ExtPhyDP83848.o

.data           0x00000000        0x0
 .data          0x00000000        0x0 build/default/production/_ext/1295770447/ETHPIC32ExtPhyDP83848.o

.bss            0x00000000        0x0
 .bss           0x00000000        0x0 build/default/production/_ext/1295770447/ETHPIC32ExtPhy.o

.data           0x00000000        0x0
 .data          0x00000000        0x0 build/default/production/_ext/1295770447/ETHPIC32ExtPhy.o

.bss            0x00000000        0x0
 .bss           0x00000000        0x0 build/default/production/_ext/1295770447/ENCX24J600.o

.data           0x00000000        0x0
 .data          0x00000000        0x0 build/default/production/_ext/1295770447/ENCX24J600.o

.bss            0x00000000        0x0
 .bss           0x00000000        0x0 build/default/production/_ext/1295770447/ENC28J60.o

.data           0x00000000        0x0
 .data          0x00000000        0x0 build/default/production/_ext/1295770447/ENC28J60.o

.bss            0x00000000        0x0
 .bss           0x00000000        0x0 build/default/production/_ext/1295770447/DNSs.o

.data           0x00000000        0x0
 .data          0x00000000        0x0 build/default/production/_ext/1295770447/DNSs.o

.data           0x00000000        0x0
 .data          0x00000000        0x0 build/default/production/_ext/1295770447/DNS.o

.bss            0x00000000        0x0
 .bss           0x00000000        0x0 build/default/production/_ext/1295770447/DHCPs.o

.data           0x00000000        0x0
 .data          0x00000000        0x0 build/default/production/_ext/1295770447/DHCPs.o

.data           0x00000000        0x0
 .data          0x00000000        0x0 build/default/production/_ext/1295770447/DHCP.o

.bss            0x00000000        0x0
 .bss           0x00000000        0x0 build/default/production/_ext/1295770447/Delay.o

.data           0x00000000        0x0
 .data          0x00000000        0x0 build/default/production/_ext/1295770447/Delay.o

.bss            0x00000000        0x0
 .bss           0x00000000        0x0 build/default/production/_ext/1295770447/BigInt.o

.data           0x00000000        0x0
 .data          0x00000000        0x0 build/default/production/_ext/1295770447/BigInt.o

.data           0x00000000        0x0
 .data          0x00000000        0x0 build/default/production/_ext/1295770447/BerkeleyAPI.o

.data           0x00000000        0x0
 .data          0x00000000        0x0 build/default/production/_ext/1295770447/AutoIP.o

.data           0x00000000        0x0
 .data          0x00000000        0x0 build/default/production/_ext/1295770447/ARP.o

.bss            0x00000000        0x0
 .bss           0x00000000        0x0 build/default/production/_ext/1295770447/ARCFOUR.o

.data           0x00000000        0x0
 .data          0x00000000        0x0 build/default/production/_ext/1295770447/ARCFOUR.o

.bss            0x00000000        0x0
 .bss           0x00000000        0x0 build/default/production/_ext/1295770447/Announce.o

.data           0x00000000        0x0
 .data          0x00000000        0x0 build/default/production/_ext/1295770447/Announce.o

.bss            0x00000000        0x0
 .bss           0x00000000        0x0 build/default/production/_ext/1472/UARTConfig.o

.data           0x00000000        0x0
 .data          0x00000000        0x0 build/default/production/_ext/1472/UARTConfig.o

.bss            0x00000000        0x0
 .bss           0x00000000        0x0 build/default/production/_ext/1472/SMTPDemo.o

.bss            0x00000000        0x0
 .bss           0x00000000        0x0 build/default/production/_ext/1472/PingDemo.o

.data           0x00000000        0x0
 .data          0x00000000        0x0 build/default/production/_ext/1472/PingDemo.o

.bss            0x00000000        0x0
 .bss           0x00000000        0x0 build/default/production/_ext/1472/LegacyHTTPApp.o

.data           0x00000000        0x0
 .data          0x00000000        0x0 build/default/production/_ext/1472/LegacyHTTPApp.o

.data           0x00000000        0x0
 .data          0x00000000        0x0 build/default/production/_ext/1472/GenericTCPServer.o

.bss            0x00000000        0x0
 .bss           0x00000000        0x0 build/default/production/_ext/1472/GenericTCPClient.o

.data           0x00000000        0x0
 .data          0x00000000        0x0 build/default/production/_ext/1472/BerkeleyUDPClientDemo.o

.bss            0x00000000        0x0
 .bss           0x00000000        0x0 build/default/production/_ext/1472/BerkeleyTCPServerDemo.o

.data           0x00000000        0x0
 .data          0x00000000        0x0 build/default/production/_ext/1472/BerkeleyTCPServerDemo.o

.bss            0x00000000        0x0
 .bss           0x00000000        0x0 /sdd/opt/microchip/xc32/v1.40/bin/bin/../../lib/gcc/pic32mx/4.8.3/../../../../pic32mx/lib/speed/debug-exception-return.o

.data           0x00000000        0x0
 .data          0x00000000        0x0 /sdd/opt/microchip/xc32/v1.40/bin/bin/../../lib/gcc/pic32mx/4.8.3/../../../../pic32mx/lib/speed/debug-exception-return.o

.bss            0x00000000        0x0
 .bss           0x00000000        0x0 /sdd/opt/microchip/xc32/v1.40/bin/bin/../../lib/gcc/pic32mx/4.8.3/../../../../pic32mx/lib/./proc/32MX795F512L/crt0_mips32r2.o

.data           0x00000000        0x0
 .data          0x00000000        0x0 /sdd/opt/microchip/xc32/v1.40/bin/bin/../../lib/gcc/pic32mx/4.8.3/../../../../pic32mx/lib/./proc/32MX795F512L/crt0_mips32r2.o

._debug_exception
                0xbfc00480       0x2c
 ._debug_exception
                0xbfc00480       0x2c /sdd/opt/microchip/xc32/v1.40/bin/bin/../../lib/gcc/pic32mx/4.8.3/../../../../pic32mx/lib/speed/debug-exception-return.o
                0xbfc00480                __DbgExecReturn

.rodata         0x9d000000    0x45fdc
 .rodata        0x9d000000    0x45fdc build/default/production/_ext/1472/MPFSImg2.o
                0x9d000000                MPFS_Start

.text           0x9d045fdc    0x18810
 .text          0x9d045fdc     0x6928 build/default/production/_ext/1472/CustomHTTPApp.o
                0x9d045fdc                HTTPNeedsAuth
                0x9d046050                HTTPCheckAuth
                0x9d0460a0                HTTPExecuteGet
                0x9d046380                HTTPExecutePost
                0x9d0475f8                HTTPPrint_builddate
                0x9d04766c                HTTPPrint_version
                0x9d0476a4                HTTPPrint_btn
                0x9d047764                HTTPPrint_led
                0x9d047870                HTTPPrint_ledSelected
                0x9d047990                HTTPPrint_pot
                0x9d047a08                HTTPPrint_lcdtext
                0x9d047a5c                HTTPPrint_hellomsg
                0x9d047ad8                HTTPPrint_cookiename
                0x9d047b50                HTTPPrint_uploadedmd5
                0x9d047cc8                HTTPPrintIP
                0x9d047da0                HTTPPrint_config_hostname
                0x9d047dd8                HTTPPrint_config_dhcpchecked
                0x9d047e28                HTTPPrint_config_ip
                0x9d047e50                HTTPPrint_config_gw
                0x9d047e78                HTTPPrint_config_subnet
                0x9d047ea0                HTTPPrint_config_dns1
                0x9d047ec8                HTTPPrint_config_dns2
                0x9d047ef0                HTTPPrint_config_mac
                0x9d047ff8                HTTPPrint_read_comm
                0x9d048000                HTTPPrint_write_comm
                0x9d048008                HTTPPrint_reboot
                0x9d048018                HTTPPrint_rebootaddr
                0x9d048050                HTTPPrint_ddns_user
                0x9d0480e0                HTTPPrint_ddns_pass
                0x9d048170                HTTPPrint_ddns_host
                0x9d048200                HTTPPrint_ddns_service
                0x9d048274                HTTPPrint_ddns_status
                0x9d048320                HTTPPrint_ddns_status_msg
                0x9d0484e4                HTTPPrint_smtps_en
                0x9d04851c                HTTPPrint_snmp_en
                0x9d048554                HTTPPrint_status_ok
                0x9d0485c0                HTTPPrint_status_fail
                0x9d04862c                mbmc_put
                0x9d048aa4                make_mbmc_var
                0x9d048b24                make_mbmc_vari
                0x9d048b84                mbmc_var_solar
                0x9d048d0c                mbmc_var_inputvoltage
                0x9d048ea4                mbmc_var_B1
                0x9d049054                mbmc_var_B2
                0x9d0491ec                mbmc_var_currentin
                0x9d049384                mbmc_var_current
                0x9d049534                mbmc_var_currentload
                0x9d0496cc                mbmc_var_pvpower
                0x9d049874                mbmc_var_loadpower
                0x9d049af4                mbmc_var_pveff
                0x9d049c64                mbmc_var_toteff
                0x9d049dbc                mbmc_var_cceff
                0x9d049f2c                mbmc_var_bsoc1
                0x9d04a09c                mbmc_var_bsoc2
                0x9d04a1f4                mbmc_var_pvenergy
                0x9d04a390                mbmc_var_pvenergy_total
                0x9d04a540                mbmc_var_pvenergy_prev
                0x9d04a6dc                mbmc_var_pvload
                0x9d04a878                mbmc_var_pvload_total
                0x9d04aa28                mbmc_var_pvload_prev
                0x9d04abc4                mbmc_var_diversion
                0x9d04ad60                mbmc_stack_app
                0x9d04ad84                HTTPPrint_mbmchist1
                0x9d04b11c                HTTPPrint_mbmchist2
                0x9d04b368                HTTPPrint_mbmchist3
                0x9d04b5b4                HTTPPrint_mbmchist4
                0x9d04b770                HTTPPrint_mbmchist5
                0x9d04b974                HTTPPrint_mbmcdata
 .text          0x9d04c904     0x4758 build/default/production/_ext/1295770447/TCP.o
                0x9d04c9ac                TCPInit
                0x9d04cb1c                TCPOpen
                0x9d04ce28                TCPWasReset
                0x9d04ce88                TCPIsConnected
                0x9d04ceb8                TCPDisconnect
                0x9d04d0b4                TCPClose
                0x9d04d0fc                TCPGetRemoteInfo
                0x9d04d148                TCPFlush
                0x9d04d19c                TCPIsPutReady
                0x9d04d248                TCPPut
                0x9d04d428                TCPPutArray
                0x9d04d698                TCPPutString
                0x9d04d6e0                TCPGetTxFIFOFull
                0x9d04d740                TCPDiscard
                0x9d04d7f4                TCPIsGetReady
                0x9d04d868                TCPGet
                0x9d04da18                TCPGetArray
                0x9d04dc80                TCPGetRxFIFOFree
                0x9d04dcec                TCPPeekArray
                0x9d04deb8                TCPPeek
                0x9d04dee4                TCPFindArrayEx
                0x9d04e2fc                TCPFindEx
                0x9d04e33c                TCPTick
                0x9d04ed34                TCPProcess
                0x9d050c08                TCPAdjustFIFOSize
 .text          0x9d05105c     0x2be4 build/default/production/_ext/1295770447/HTTP2.o
                0x9d05105c                HTTPPrint
                0x9d051ccc                HTTPPrint_
                0x9d051d00                HTTPInit
                0x9d051dd4                HTTPServer
                0x9d05350c                HTTPURLDecode
                0x9d053650                HTTPGetArg
                0x9d0536e4                HTTPReadPostName
                0x9d05373c                HTTPReadPostValue
                0x9d053a34                HTTPIncFile
 .text          0x9d053c40     0x1fe8 /sdd/opt/microchip/xc32/v1.40/bin/bin/../../lib/gcc/pic32mx/4.8.3/../../../../pic32mx/lib/speed/liblega-c.a(_doprnt.o)
                0x9d053c40                vfprintf
                0x9d055be8                _io_exit
 .text          0x9d055c28     0x1900 build/default/production/_ext/1295770447/SMTP.o
                0x9d055c28                SMTPBeginUsage
                0x9d055ca0                SMTPEndUsage
                0x9d055d24                SMTPTask
                0x9d057150                SMTPSendMail
                0x9d057164                SMTPIsBusy
                0x9d057170                SMTPIsPutReady
                0x9d05719c                SMTPPut
                0x9d05727c                SMTPPutArray
                0x9d0572f4                SMTPPutString
                0x9d057350                SMTPFlush
                0x9d05736c                SMTPPutDone
 .text          0x9d057528     0x1698 /sdd/opt/microchip/xc32/v1.40/bin/bin/../../lib/gcc/pic32mx/4.8.3/../../../../pic32mx/lib/speed/liblega-c.a(_doscan.o)
                0x9d057528                vfscanf
 .text          0x9d058bc0     0x1478 build/default/production/_ext/1472/mbmc.o
                0x9d058bc0                MBMCApp
                0x9d0592a0                mbmc_updatechart
                0x9d059634                lp_filter_diff
                0x9d0597e0                mbmc_getdata
                0x9d059a40                IntUart2Handler
                0x9d059cd8                IntUart1Handler
                0x9d059e30                init_mbmc_serial_buf
                0x9d059e40                put_mbmc_serial_buf
                0x9d059eb0                get_mbmc_serial_buf
                0x9d059f0c                dvdt_roc
                0x9d05a010                water_alarm_warn
 .text          0x9d05a038      0xfd0 build/default/production/_ext/1295770447/DynDNS.o
                0x9d05a038                DDNSInit
                0x9d05a0b4                DDNSTask
                0x9d05af74                DDNSForceUpdate
                0x9d05afa4                DDNSSetService
                0x9d05aff0                DDNSGetLastIP
                0x9d05b000                DDNSGetLastStatus
 .text          0x9d05b008      0xf1c build/default/production/_ext/1295770447/DHCP.o
                0x9d05b008                DHCPInit
                0x9d05b080                DHCPDisable
                0x9d05b0cc                DHCPEnable
                0x9d05b0fc                DHCPIsEnabled
                0x9d05b10c                DHCPIsBound
                0x9d05b11c                DHCPStateChanged
                0x9d05b150                DHCPIsServerDetected
                0x9d05b160                DHCPTask
 .text          0x9d05bf24      0xeac build/default/production/_ext/1295770447/BerkeleyAPI.o
                0x9d05bf24                BerkeleySocketInit
                0x9d05bf44                socket
                0x9d05bff0                bind
                0x9d05c0e4                listen
                0x9d05c280                accept
                0x9d05c40c                connect
                0x9d05c5dc                send
                0x9d05c600                sendto
                0x9d05c860                recv
                0x9d05c94c                recvfrom
                0x9d05cae0                gethostname
                0x9d05cb8c                closesocket
 .text          0x9d05cdd0      0xd80 build/default/production/_ext/1295770447/MPFS2.o
                0x9d05cdd0                MPFSInit
                0x9d05ce78                MPFSOpen
                0x9d05d0bc                MPFSOpenID
                0x9d05d1a4                MPFSClose
                0x9d05d1e0                MPFSGet
                0x9d05d210                MPFSGetArray
                0x9d05d244                MPFSGetLong
                0x9d05d284                MPFSSeek
                0x9d05d4e8                MPFSGetTimestamp
                0x9d05d560                MPFSGetMicrotime
                0x9d05d5d8                MPFSGetFlags
                0x9d05d650                MPFSGetSize
                0x9d05d680                MPFSGetBytesRem
                0x9d05d6e0                MPFSGetStartAddr
                0x9d05d710                MPFSGetEndAddr
                0x9d05d794                MPFSGetFilename
                0x9d05d850                MPFSGetPosition
                0x9d05d8a4                MPFSGetID
 .text          0x9d05db50      0xc9c build/default/production/_ext/1295770447/Helpers.o
                0x9d05db50                LFSRSeedRand
                0x9d05dbac                LFSRRand
                0x9d05dbe8                GenerateRandomDWORD
                0x9d05dea4                StringToIPAddress
                0x9d05e07c                Base64Decode
                0x9d05e1dc                Base64Encode
                0x9d05e36c                uitoa
                0x9d05e3fc                ultoa
                0x9d05e484                hexatob
                0x9d05e4f4                btohexa_high
                0x9d05e510                btohexa_low
                0x9d05e52c                stricmppgm2ram
                0x9d05e5c8                swaps
                0x9d05e5e4                swapl
                0x9d05e624                CalcIPChecksum
                0x9d05e6ac                strupr
                0x9d05e6f0                FormatNetBIOSName
                0x9d05e7a8                strnchr

.dinit          0x9d05e7ec      0xc80
 .dinit         0x9d05e7ec      0xc80 data_init

.text           0x9d05f46c      0xbc8
 .text          0x9d05f46c      0xbc8 /sdd/opt/microchip/xc32/v1.40/bin/bin/../../lib/gcc/pic32mx/4.8.3/../../../../pic32mx/lib/speed/liblega-c.a(malloc.o)
                0x9d05f46c                malloc
                0x9d05fca8                free
                0x9d05ff2c                malloc_trim

.rodata         0x9d060038      0xb80
 .rodata        0x9d060038      0xb80 build/default/production/_ext/1472/CustomHTTPApp.o
                0x9d060368                HTML_UP_ARROW
                0x9d06036c                HTML_DOWN_ARROW

.text           0x9d060bb8     0x2e48
 .text          0x9d060bb8      0xacc build/default/production/_ext/1295770447/ETHPIC32ExtPhy.o
                0x9d060bb8                EthPhyRestartNegotiation
                0x9d060c00                EthPhyGetHwConfigFlags
                0x9d060c2c                EthPhyInit
                0x9d06118c                EthPhyNegotiationComplete
                0x9d061320                EthPhyGetNegotiationResult
                0x9d061500                EthPhyGetLinkStatus
                0x9d061574                EthPhyReset
                0x9d061620                EthPhyScanLinkStart
                0x9d061640                EthPhyScanLinkRead
                0x9d061674                EthPhyScanLinkStop
 .text          0x9d061684      0xa04 build/default/production/_ext/1295770447/DNS.o
                0x9d061684                DNSBeginUsage
                0x9d0616b0                DNSEndUsage
                0x9d061700                DNSResolve
                0x9d061770                DNSIsResolved
 .text          0x9d062088      0x8c4 build/default/production/_ext/1295770447/ETHPIC32IntMac.o
                0x9d062088                MACInit
                0x9d0622bc                MACIsLinked
                0x9d0622c8                MACGetTxBaseAddr
                0x9d0622dc                MACGetHttpBaseAddr
                0x9d0622e8                MACGetSslBaseAddr
                0x9d0622f4                MACSetWritePtr
                0x9d062300                MACIsTxReady
                0x9d062488                MACPut
                0x9d06249c                MACPutArray
                0x9d0624e0                MACPutHeader
                0x9d06255c                MACFlush
                0x9d06259c                MACDiscardRx
                0x9d0625d8                MACGetHeader
                0x9d06277c                MACSetReadPtrInRx
                0x9d062794                MACSetReadPtr
                0x9d0627a0                MACGet
                0x9d0627b4                MACGetArray
                0x9d0627f4                MACGetFreeRxSize
                0x9d06281c                MACMemCopyAsync
                0x9d06285c                MACIsMemCopyDone
                0x9d062864                CalcIPBufferChecksum
                0x9d062884                MACCalcRxChecksum
 .text          0x9d06294c      0x8bc build/default/production/_ext/1295770447/AutoIP.o
                0x9d06294c                AutoIPInit
                0x9d06297c                AutoIPIsConfigured
                0x9d062990                AutoIPConfigIsInProgress
                0x9d0629a0                AutoIPTasks
                0x9d063014                AutoIPConflict
                0x9d063134                AutoIPDisable
                0x9d063194                AutoIPEnable
                0x9d0631b4                AutoIPIsDisabled
                0x9d0631c4                AutoIPRandSeed
                0x9d0631d0                AutoIPRand
 .text          0x9d063208      0x7f8 build/default/production/_ext/1295770447/UDP.o
                0x9d063208                UDPInit
                0x9d063268                UDPTask
                0x9d063274                UDPOpen
                0x9d063360                UDPClose
                0x9d063398                UDPSetTxBuffer
                0x9d0633cc                UDPSetRxBuffer
                0x9d0633fc                UDPIsPutReady
                0x9d063458                UDPPut
                0x9d0634ac                UDPPutArray
                0x9d063514                UDPPutString
                0x9d063548                UDPFlush
                0x9d0636a0                UDPIsGetReady
                0x9d063700                UDPGet
                0x9d06375c                UDPGetArray
                0x9d0637c4                UDPDiscard
                0x9d063810                UDPProcess

.rodata         0x9d063a00      0x7d4
 .rodata        0x9d063a00      0x7d4 /sdd/opt/microchip/xc32/v1.40/bin/bin/../../lib/gcc/pic32mx/4.8.3/../../../../pic32mx/lib/speed/libmchp_peripheral_32MX795F512L.a(int_tbl_lib.o)
                0x9d063a00                __IntSrcTbl
                0x9d063f1c                __IntVectorTbl

.text           0x9d0641d4     0x18e4
 .text          0x9d0641d4      0x7a8 build/default/production/_ext/1295770447/DHCPs.o
                0x9d0641d4                DHCPServerTask
 .text          0x9d06497c      0x5d8 /sdd/opt/microchip/xc32/v1.40/bin/bin/../../lib/gcc/pic32mx/4.8.3/../../../../pic32mx/lib/speed/libm.a(log32.o)
                0x9d06497c                exlog
                0x9d064c64                dplog
                0x9d064c64                log
                0x9d064c64                __mchp_log
                0x9d064dc0                log10
                0x9d064dc0                dplog10
                0x9d064dc0                __mchp_log10
 .text          0x9d064f54      0x5cc build/default/production/_ext/1472/MainDemo.o
                0x9d064f54                _general_exception_handler
                0x9d064f64                main
                0x9d0654cc                DisplayIPValue
 .text          0x9d065520      0x598 /sdd/opt/microchip/xc32/v1.40/bin/bin/../../lib/gcc/pic32mx/4.8.3/../../../../pic32mx/lib/speed/liblega-c.a(malloc_realloc.o)
                0x9d065520                realloc

.rodata         0x9d065ab8      0x548
 .rodata        0x9d065ab8      0x548 build/default/production/_ext/1295770447/HTTP2.o

.text           0x9d066000      0x4dc
 .text          0x9d066000      0x4dc build/default/production/_ext/1295770447/Hashes.o
                0x9d066000                HashAddData
                0x9d06602c                MD5Initialize
                0x9d066068                MD5AddData
                0x9d0662d0                MD5Calculate

.text.dp32mul   0x9d0664dc      0x4b8
 .text.dp32mul  0x9d0664dc      0x4b8 /sdd/opt/microchip/xc32/v1.40/bin/bin/../../lib/gcc/pic32mx/4.8.3/../../../../pic32mx/lib/speed/libm.a(dp32div.o)
                0x9d0664dc                __divdf3
                0x9d0664dc                dpdiv

.text           0x9d066994     0x1a4c
 .text          0x9d066994      0x4b4 /sdd/opt/microchip/xc32/v1.40/bin/bin/../../lib/gcc/pic32mx/4.8.3/speed/libgcc.a(_divdi3.o)
                0x9d066994                __divdi3
 .text          0x9d066e48      0x464 /sdd/opt/microchip/xc32/v1.40/bin/bin/../../lib/gcc/pic32mx/4.8.3/speed/libgcc.a(_umoddi3.o)
                0x9d066e48                __umoddi3
 .text          0x9d0672ac      0x460 build/default/production/_ext/1295770447/ICMP.o
                0x9d0672ac                ICMPProcess
                0x9d067418                ICMPSendPing
                0x9d06745c                ICMPSendPingToHost
                0x9d0674ac                ICMPGetReply
                0x9d0676d0                ICMPBeginUsage
                0x9d0676fc                ICMPEndUsage
 .text          0x9d06770c      0x458 /sdd/opt/microchip/xc32/v1.40/bin/bin/../../lib/gcc/pic32mx/4.8.3/speed/libgcc.a(_udivdi3.o)
                0x9d06770c                __udivdi3
 .text          0x9d067b64      0x440 /sdd/opt/microchip/xc32/v1.40/bin/bin/../../lib/gcc/pic32mx/4.8.3/../../../../pic32mx/lib/speed/liblega-c.a(sbrk.o)
                0x9d067b64                getpagesize
                0x9d067b6c                _stub_sbd_memlayout
                0x9d067b6c                _sbd_memlayout
                0x9d067b98                _sbrk_init
                0x9d067d24                _sbrk
                0x9d067e48                sbrk
 .text          0x9d067fa4      0x43c build/default/production/_ext/1295770447/Telnet.o
                0x9d067fa4                TelnetTask

.text.EthRxBuffersAppend
                0x9d0683e0      0x434
 .text.EthRxBuffersAppend
                0x9d0683e0      0x434 /sdd/opt/microchip/xc32/v1.40/bin/bin/../../lib/gcc/pic32mx/4.8.3/../../../../pic32mx/lib/speed/libmchp_peripheral_32MX795F512L.a(eth_rx_buffers_append_lib.o)
                0x9d0683e0                EthRxBuffersAppend

.text.dp32subadd
                0x9d068814      0x430
 .text.dp32subadd
                0x9d068814      0x430 /sdd/opt/microchip/xc32/v1.40/bin/bin/../../lib/gcc/pic32mx/4.8.3/../../../../pic32mx/lib/speed/libm.a(dp32subadd.o)
                0x9d068814                dpsub
                0x9d068814                __subdf3
                0x9d06881c                dpadd
                0x9d06881c                __adddf3

.text           0x9d068c44      0xbf0
 .text          0x9d068c44      0x404 build/default/production/_ext/1295770447/SNTP.o
                0x9d068c44                SNTPClient
                0x9d068fd4                SNTPGetUTCSeconds
 .text          0x9d069048      0x3f8 build/default/production/_ext/1295770447/ARP.o
                0x9d069110                ARPInit
                0x9d06913c                ARPProcess
                0x9d0692f4                ARPResolve
                0x9d06937c                ARPIsResolved
                0x9d0693fc                SwapARPPacket
 .text          0x9d069440      0x3f4 build/default/production/_ext/1295770447/NBNS.o
                0x9d069440                NBNSTask

.text.__strtod  0x9d069834      0x3d0
 .text.__strtod
                0x9d069834      0x3d0 /sdd/opt/microchip/xc32/v1.40/bin/bin/../../lib/gcc/pic32mx/4.8.3/../../../../pic32mx/lib/speed/libm.a(__strtod.o)
                0x9d069834                __strtod

.text           0x9d069c04      0xe24
 .text          0x9d069c04      0x3a4 build/default/production/_ext/1295770447/TCPPerformanceTest.o
                0x9d069c04                TCPPerformanceTask
                0x9d069c28                TCPTXPerformanceTask
                0x9d069e4c                TCPRXPerformanceTask
 .text          0x9d069fa8      0x398 /sdd/opt/microchip/xc32/v1.40/bin/bin/../../lib/gcc/pic32mx/4.8.3/../../../../pic32mx/lib/speed/liblega-c.a(_iobfuncs.o)
                0x9d069fa8                _filbuf_simple
                0x9d069fdc                _flsbuf_simple
                0x9d06a184                _fflush_simple
                0x9d06a204                _fwrite_simple
                0x9d06a2d0                _fsync_simple
 .text          0x9d06a340      0x37c /sdd/opt/microchip/xc32/v1.40/bin/bin/../../lib/gcc/pic32mx/4.8.3/../../../../pic32mx/lib/speed/liblega-c.a(strtoll.o)
                0x9d06a340                strtoll
 .text          0x9d06a6bc      0x36c build/default/production/_ext/1472/BerkeleyUDPClientDemo.o
                0x9d06a6bc                BerkeleyUDPClientDemo
                0x9d06a9b4                BerkeleySNTPGetUTCSeconds

.text.__strtof  0x9d06aa28      0x358
 .text.__strtof
                0x9d06aa28      0x358 /sdd/opt/microchip/xc32/v1.40/bin/bin/../../lib/gcc/pic32mx/4.8.3/../../../../pic32mx/lib/speed/libm.a(__strtof.o)
                0x9d06aa28                __strtof

.text           0x9d06ad80      0x340
 .text          0x9d06ad80      0x340 /sdd/opt/microchip/xc32/v1.40/bin/bin/../../lib/gcc/pic32mx/4.8.3/../../../../pic32mx/lib/speed/liblega-c.a(offtime.o)
                0x9d06ad80                offtime_r
                0x9d06b05c                offtime

.text.dp32mul   0x9d06b0c0      0x32c
 .text.dp32mul  0x9d06b0c0      0x32c /sdd/opt/microchip/xc32/v1.40/bin/bin/../../lib/gcc/pic32mx/4.8.3/../../../../pic32mx/lib/speed/libm.a(dp32mul.o)
                0x9d06b0c0                dpmul
                0x9d06b0c0                __muldf3

.text           0x9d06b3ec      0x308
 .text          0x9d06b3ec      0x308 build/default/production/_ext/1472/GenericTCPServer.o
                0x9d06b3ec                GenericTCPServer

.rodata         0x9d06b6f4      0x300
 .rodata        0x9d06b6f4      0x300 build/default/production/_ext/1472/crc8_fast.o
                0x9d06b6f4                crc8_table
                0x9d06b7f4                crc16tab

.text           0x9d06b9f4      0xdb0
 .text          0x9d06b9f4      0x2f4 /sdd/opt/microchip/xc32/v1.40/bin/bin/../../lib/gcc/pic32mx/4.8.3/../../../../pic32mx/lib/speed/liblega-c.a(strtoull.o)
                0x9d06b9f4                strtoull
 .text          0x9d06bce8      0x2f0 build/default/production/_ext/1295770447/StackTsk.o
                0x9d06bce8                StackInit
                0x9d06bd88                StackTask
                0x9d06bf74                StackApplications
 .text          0x9d06bfd8      0x2c8 build/default/production/_ext/1295770447/Announce.o
                0x9d06bfd8                AnnounceIP
                0x9d06c0e0                DiscoveryTask
 .text          0x9d06c2a0      0x284 /sdd/opt/microchip/xc32/v1.40/bin/bin/../../lib/gcc/pic32mx/4.8.3/../../../../pic32mx/lib/speed/liblega-c.a(strtoul.o)
                0x9d06c2a0                strtoul
 .text          0x9d06c524      0x280 /sdd/opt/microchip/xc32/v1.40/bin/bin/../../lib/gcc/pic32mx/4.8.3/../../../../pic32mx/lib/speed/liblega-c.a(strtol.o)
                0x9d06c524                strtol

.text.EthTxSendPacket
                0x9d06c7a4      0x278
 .text.EthTxSendPacket
                0x9d06c7a4      0x278 /sdd/opt/microchip/xc32/v1.40/bin/bin/../../lib/gcc/pic32mx/4.8.3/../../../../pic32mx/lib/speed/libmchp_peripheral_32MX795F512L.a(eth_tx_packet_lib.o)
                0x9d06c7a4                EthTxSendPacket

.text.fpsubadd  0x9d06ca1c      0x278
 .text.fpsubadd
                0x9d06ca1c      0x278 /sdd/opt/microchip/xc32/v1.40/bin/bin/../../lib/gcc/pic32mx/4.8.3/../../../../pic32mx/lib/speed/libm.a(fp32subadd.o)
                0x9d06ca1c                fpsub
                0x9d06ca1c                __subsf3
                0x9d06ca24                fpadd
                0x9d06ca24                __addsf3

.text.libm      0x9d06cc94      0x268
 .text.libm     0x9d06cc94      0x268 /sdd/opt/microchip/xc32/v1.40/bin/bin/../../lib/gcc/pic32mx/4.8.3/../../../../pic32mx/lib/speed/libm.a(exdiv.o)
                0x9d06cc94                exdiv

.text._EthAckPacket
                0x9d06cefc      0x250
 .text._EthAckPacket
                0x9d06cefc      0x250 /sdd/opt/microchip/xc32/v1.40/bin/bin/../../lib/gcc/pic32mx/4.8.3/../../../../pic32mx/lib/speed/libmchp_peripheral_32MX795F512L.a(eth_ack_packet_lib.o)
                0x9d06cefc                _EthAckPacket

.text           0x9d06d14c      0x234
 .text          0x9d06d14c      0x234 build/default/production/_ext/1472/GenericTCPClient.o
                0x9d06d14c                GenericTCPClient

.text.fp32div   0x9d06d380      0x230
 .text.fp32div  0x9d06d380      0x230 /sdd/opt/microchip/xc32/v1.40/bin/bin/../../lib/gcc/pic32mx/4.8.3/../../../../pic32mx/lib/speed/libm.a(fp32div.o)
                0x9d06d380                __divsf3
                0x9d06d380                fpdiv

.text           0x9d06d5b0      0x638
 .text          0x9d06d5b0      0x21c build/default/production/_ext/1295770447/Tick.o
                0x9d06d5b0                TickInit
                0x9d06d68c                TickGet
                0x9d06d6ac                TickGetDiv256
                0x9d06d6ec                TickGetDiv64K
                0x9d06d72c                TickConvertToMilliseconds
                0x9d06d75c                _T1Interrupt
 .text          0x9d06d7cc      0x210 build/default/production/_ext/1295770447/IP.o
                0x9d06d7cc                IPGetHeader
                0x9d06d8ac                IPPutHeader
                0x9d06d974                IPSetRxBuffer
 .text          0x9d06d9dc      0x20c /sdd/opt/microchip/xc32/v1.40/bin/bin/../../lib/gcc/pic32mx/4.8.3/../../../../pic32mx/lib/speed/liblega-c.a(fputc.o)
                0x9d06d9dc                fputc
                0x9d06da88                putc
                0x9d06db34                putchar

.rodata         0x9d06dbe8      0x1d8
 .rodata        0x9d06dbe8      0x1d8 build/default/production/_ext/1295770447/DynDNS.o
                0x9d06dca0                ddnsServiceHosts

.text.fp32mul   0x9d06ddc0      0x1bc
 .text.fp32mul  0x9d06ddc0      0x1bc /sdd/opt/microchip/xc32/v1.40/bin/bin/../../lib/gcc/pic32mx/4.8.3/../../../../pic32mx/lib/speed/libm.a(fp32mul.o)
                0x9d06ddc0                fpmul
                0x9d06ddc0                __mulsf3

.text           0x9d06df7c      0x518
 .text          0x9d06df7c      0x1bc /sdd/opt/microchip/xc32/v1.40/bin/bin/../../lib/gcc/pic32mx/4.8.3/../../../../pic32mx/lib/speed/liblega-c.a(asctime.o)
                0x9d06df7c                asctime_r
                0x9d06e040                asctime
 .text          0x9d06e138      0x1b0 build/default/production/_ext/1472/BerkeleyTCPClientDemo.o
                0x9d06e138                BerkeleyTCPClientDemo
 .text          0x9d06e2e8      0x1ac build/default/production/_ext/1472/BerkeleyTCPServerDemo.o
                0x9d06e2e8                BerkeleyTCPServerDemo

.text.__ldexp   0x9d06e494      0x1a8
 .text.__ldexp  0x9d06e494      0x1a8 /sdd/opt/microchip/xc32/v1.40/bin/bin/../../lib/gcc/pic32mx/4.8.3/../../../../pic32mx/lib/speed/libe.a(_ldexp.o)
                0x9d06e494                __ldexp

.text._EthAppendBusyList
                0x9d06e63c      0x1a4
 .text._EthAppendBusyList
                0x9d06e63c      0x1a4 /sdd/opt/microchip/xc32/v1.40/bin/bin/../../lib/gcc/pic32mx/4.8.3/../../../../pic32mx/lib/speed/libmchp_peripheral_32MX795F512L.a(_eth_append_busy_list_lib.o)
                0x9d06e63c                _EthAppendBusyList

.text           0x9d06e7e0      0x33c
 .text          0x9d06e7e0      0x1a0 /sdd/opt/microchip/xc32/v1.40/bin/bin/../../lib/gcc/pic32mx/4.8.3/../../../../pic32mx/lib/speed/libpic32.a(strcpy.o)
                0x9d06e7e0                strcpy
 .text          0x9d06e980      0x19c build/default/production/_ext/1472/SMTPDemo.o
                0x9d06e980                SMTPDemo

.rodata         0x9d06eb1c      0x178
 .rodata        0x9d06eb1c      0x178 build/default/production/_ext/1295770447/Telnet.o

.text._EthRxAckBuffer
                0x9d06ec94      0x174
 .text._EthRxAckBuffer
                0x9d06ec94      0x174 /sdd/opt/microchip/xc32/v1.40/bin/bin/../../lib/gcc/pic32mx/4.8.3/../../../../pic32mx/lib/speed/libmchp_peripheral_32MX795F512L.a(eth_ack_packet_lib.o)

.text           0x9d06ee08      0x174
 .text          0x9d06ee08      0x174 /sdd/opt/microchip/xc32/v1.40/bin/bin/../../lib/gcc/pic32mx/4.8.3/../../../../pic32mx/lib/speed/liblega-c.a(fgetc.o)
                0x9d06ee08                fgetc
                0x9d06ee80                getc
                0x9d06eef8                getchar

.text.EthDescriptorsPoolAdd
                0x9d06ef7c      0x170
 .text.EthDescriptorsPoolAdd
                0x9d06ef7c      0x170 /sdd/opt/microchip/xc32/v1.40/bin/bin/../../lib/gcc/pic32mx/4.8.3/../../../../pic32mx/lib/speed/libmchp_peripheral_32MX795F512L.a(eth_descriptors_add_lib.o)
                0x9d06ef7c                EthDescriptorsPoolAdd

.text.EthRxGetPacket
                0x9d06f0ec      0x170
 .text.EthRxGetPacket
                0x9d06f0ec      0x170 /sdd/opt/microchip/xc32/v1.40/bin/bin/../../lib/gcc/pic32mx/4.8.3/../../../../pic32mx/lib/speed/libmchp_peripheral_32MX795F512L.a(eth_rx_get_packet_lib.o)
                0x9d06f0ec                EthRxGetPacket

.text           0x9d06f25c      0x2d0
 .text          0x9d06f25c      0x168 /sdd/opt/microchip/xc32/v1.40/bin/bin/../../lib/gcc/pic32mx/4.8.3/../../../../pic32mx/lib/speed/libpic32.a(memcpy.o)
                0x9d06f25c                memcpy
 .text          0x9d06f3c4      0x168 /sdd/opt/microchip/xc32/v1.40/bin/bin/../../lib/gcc/pic32mx/4.8.3/../../../../pic32mx/lib/speed/libpic32.a(strlen.o)
                0x9d06f3c4                strlen

.text.EthDescriptorsAdd
                0x9d06f52c      0x160
 .text.EthDescriptorsAdd
                0x9d06f52c      0x160 /sdd/opt/microchip/xc32/v1.40/bin/bin/../../lib/gcc/pic32mx/4.8.3/../../../../pic32mx/lib/speed/libmchp_peripheral_32MX795F512L.a(eth_descriptors_add_lib.o)
                0x9d06f52c                EthDescriptorsAdd

.rodata         0x9d06f68c      0x140
 .rodata        0x9d06f68c      0x140 build/default/production/_ext/1295770447/Hashes.o

.text.EthMIIMConfig
                0x9d06f7cc      0x140
 .text.EthMIIMConfig
                0x9d06f7cc      0x140 /sdd/opt/microchip/xc32/v1.40/bin/bin/../../lib/gcc/pic32mx/4.8.3/../../../../pic32mx/lib/speed/libmchp_peripheral_32MX795F512L.a(eth_miim_access.o)
                0x9d06f7cc                EthMIIMConfig

.text           0x9d06f90c      0x270
 .text          0x9d06f90c      0x13c /sdd/opt/microchip/xc32/v1.40/bin/bin/../../lib/gcc/pic32mx/4.8.3/../../../../pic32mx/lib/speed/liblega-c.a(_ioinit.o)
                0x9d06f90c                _i_init
                0x9d06f9a4                _o_init
 .text          0x9d06fa48      0x134 /sdd/opt/microchip/xc32/v1.40/bin/bin/../../lib/gcc/pic32mx/4.8.3/../../../../pic32mx/lib/speed/liblega-c.a(ungetc.o)
                0x9d06fa48                ungetc

.text.dpcmp     0x9d06fb7c      0x12c
 .text.dpcmp    0x9d06fb7c      0x12c /sdd/opt/microchip/xc32/v1.40/bin/bin/../../lib/gcc/pic32mx/4.8.3/../../../../pic32mx/lib/speed/libm.a(dpcmp.o)
                0x9d06fb7c                __gtdf2
                0x9d06fb7c                __ltdf2
                0x9d06fb7c                __gedf2
                0x9d06fb7c                dpcmp
                0x9d06fb7c                __ledf2
                0x9d06fb7c                __nedf2
                0x9d06fb7c                __eqdf2

.text           0x9d06fca8      0x120
 .text          0x9d06fca8      0x120 /sdd/opt/microchip/xc32/v1.40/bin/bin/../../lib/gcc/pic32mx/4.8.3/../../../../pic32mx/lib/speed/libpic32.a(strcmp.o)
                0x9d06fca8                strcmp

.text.libm      0x9d06fdc8      0x120
 .text.libm     0x9d06fdc8      0x120 /sdd/opt/microchip/xc32/v1.40/bin/bin/../../lib/gcc/pic32mx/4.8.3/../../../../pic32mx/lib/speed/libm.a(dpmodf.o)
                0x9d06fdc8                modf
                0x9d06fdc8                modfl
                0x9d06fdc8                dpmodf

.text.EthTxSendBuffer
                0x9d06fee8      0x11c
 .text.EthTxSendBuffer
                0x9d06fee8      0x11c /sdd/opt/microchip/xc32/v1.40/bin/bin/../../lib/gcc/pic32mx/4.8.3/../../../../pic32mx/lib/speed/libmchp_peripheral_32MX795F512L.a(eth_tx_packet_lib.o)
                0x9d06fee8                EthTxSendBuffer

.text.libm      0x9d070004      0x10c
 .text.libm     0x9d070004      0x10c /sdd/opt/microchip/xc32/v1.40/bin/bin/../../lib/gcc/pic32mx/4.8.3/../../../../pic32mx/lib/speed/libm.a(sigmax.o)
                0x9d070004                sigmax

.text           0x9d070110      0x104
 .text          0x9d070110      0x104 /sdd/opt/microchip/xc32/v1.40/bin/bin/../../lib/gcc/pic32mx/4.8.3/../../../../pic32mx/lib/speed/liblega-c.a(malloc_calloc.o)
                0x9d070110                calloc

.rodata         0x9d070214      0x104
 .rodata        0x9d070214      0x104 /sdd/opt/microchip/xc32/v1.40/bin/bin/../../lib/gcc/pic32mx/4.8.3/../../../../pic32mx/lib/speed/liblega-c.a(ctype.o)
                0x9d070214                _ctype

.text.__ldexpf  0x9d070318      0x104
 .text.__ldexpf
                0x9d070318      0x104 /sdd/opt/microchip/xc32/v1.40/bin/bin/../../lib/gcc/pic32mx/4.8.3/../../../../pic32mx/lib/speed/libe.a(_ldexpf.o)
                0x9d070318                __ldexpf

.text.dptofp    0x9d07041c      0x100
 .text.dptofp   0x9d07041c      0x100 /sdd/opt/microchip/xc32/v1.40/bin/bin/../../lib/gcc/pic32mx/4.8.3/../../../../pic32mx/lib/speed/libm.a(dptofp.o)
                0x9d07041c                dptofp
                0x9d07041c                __truncdfsf2

.text           0x9d07051c      0x1e4
 .text          0x9d07051c       0xf4 /sdd/opt/microchip/xc32/v1.40/bin/bin/../../lib/gcc/pic32mx/4.8.3/../../../../pic32mx/lib/speed/liblega-c.a(strchr.o)
                0x9d07051c                strchr
 .text          0x9d070610       0xf0 build/default/production/_ext/1472/crc8_fast.o
                0x9d070610                crc8_calculate
                0x9d070650                crc16
                0x9d0706b0                crc16_ccitt

.text.libm      0x9d070700       0xf0
 .text.libm     0x9d070700       0xf0 /sdd/opt/microchip/xc32/v1.40/bin/bin/../../lib/gcc/pic32mx/4.8.3/../../../../pic32mx/lib/speed/libm.a(exadd.o)
                0x9d070700                exadd

.text           0x9d0707f0       0xe4
 .text          0x9d0707f0       0xe4 build/default/production/_ext/1295770447/Reboot.o
                0x9d0707f0                RebootTask

.text.EthMACOpen
                0x9d0708d4       0xe4
 .text.EthMACOpen
                0x9d0708d4       0xe4 /sdd/opt/microchip/xc32/v1.40/bin/bin/../../lib/gcc/pic32mx/4.8.3/../../../../pic32mx/lib/speed/libmchp_peripheral_32MX795F512L.a(eth_mac_open_lib.o)
                0x9d0708d4                EthMACOpen

.text           0x9d0709b8       0xe0
 .text          0x9d0709b8       0xe0 /sdd/opt/microchip/xc32/v1.40/bin/bin/../../lib/gcc/pic32mx/4.8.3/../../../../pic32mx/lib/speed/liblega-c.a(stubs.o)
                0x9d0709b8                _weak_pthread_mutex_init
                0x9d0709b8                pthread_mutex_init
                0x9d0709c0                pthread_mutex_destroy
                0x9d0709c0                _weak_pthread_mutex_destroy
                0x9d0709c8                _weak_pthread_mutex_lock
                0x9d0709c8                pthread_mutex_lock
                0x9d0709d0                _weak_pthread_mutex_trylock
                0x9d0709d0                pthread_mutex_trylock
                0x9d0709d8                _weak_pthread_mutex_unlock
                0x9d0709d8                pthread_mutex_unlock
                0x9d0709e0                pthread_mutex_setname_np
                0x9d0709e0                _weak_pthread_mutex_setname_np
                0x9d0709e8                _weak_pthread_mutexattr_init
                0x9d0709e8                pthread_mutexattr_init
                0x9d0709f0                pthread_mutexattr_destroy
                0x9d0709f0                _weak_pthread_mutexattr_destroy
                0x9d0709f8                _weak_pthread_mutexattr_setname_np
                0x9d0709f8                pthread_mutexattr_setname_np
                0x9d070a00                pthread_mutexattr_settype_np
                0x9d070a00                _weak_pthread_mutexattr_settype_np
                0x9d070a08                pthread_sysconf_np
                0x9d070a08                _weak_pthread_sysconf_np
                0x9d070a10                _weak_pthread_sigdisable_np
                0x9d070a10                pthread_sigdisable_np
                0x9d070a18                pthread_sigrestore_np
                0x9d070a18                _weak_pthread_sigrestore_np
                0x9d070a20                _pthread_cleanup_push
                0x9d070a20                _weak__pthread_cleanup_push
                0x9d070a28                _weak__pthread_cleanup_pop
                0x9d070a28                _pthread_cleanup_pop
                0x9d070a30                _weak__pthread_cleanup_push_defer
                0x9d070a30                _pthread_cleanup_push_defer
                0x9d070a38                _pthread_cleanup_pop_restore
                0x9d070a38                _weak__pthread_cleanup_pop_restore
                0x9d070a40                _weak_pthread_once
                0x9d070a40                _pthread_once
                0x9d070a40                pthread_once
                0x9d070a78                _weak_pthread_key_create
                0x9d070a78                pthread_key_create
                0x9d070a80                pthread_setspecific
                0x9d070a80                _weak_pthread_setspecific
                0x9d070a88                _weak_pthread_getspecific
                0x9d070a88                pthread_getspecific
                0x9d070a90                _libc_private_storage
                0x9d070a90                _weak__libc_private_storage

.text.general_exception
                0x9d070a98       0xdc
 .text.general_exception
                0x9d070a98       0xdc /sdd/opt/microchip/xc32/v1.40/bin/bin/../../lib/gcc/pic32mx/4.8.3/../../../../pic32mx/lib/speed/libpic32.a(general-exception.o)
                0x9d070a98                _general_exception_context

.text           0x9d070b74       0xd4
 .text          0x9d070b74       0xd4 build/default/production/_ext/1295770447/ETHPIC32ExtPhyDP83848.o
                0x9d070b74                EthPhyConfigureMII
                0x9d070bc8                EthPhyConfigureMdix
                0x9d070c34                EthPhyMIIMAddress
                0x9d070c3c                EthPhyMIIMClock

.text.libm      0x9d070c48       0xd0
 .text.libm     0x9d070c48       0xd0 /sdd/opt/microchip/xc32/v1.40/bin/bin/../../lib/gcc/pic32mx/4.8.3/../../../../pic32mx/lib/speed/libm.a(exmul.o)
                0x9d070c48                exmul

.text           0x9d070d18      0x23c
 .text          0x9d070d18       0xcc /sdd/opt/microchip/xc32/v1.40/bin/bin/../../lib/gcc/pic32mx/4.8.3/../../../../pic32mx/lib/speed/liblega-c.a(_bufproc.o)
                0x9d070d18                _bufalloc
                0x9d070d80                _buffree
 .text          0x9d070de4       0xb8 build/default/production/_ext/1472/PingDemo.o
                0x9d070de4                PingDemo
 .text          0x9d070e9c       0xb8 build/default/production/_ext/1295770447/Delay.o
                0x9d070e9c                DelayMs
                0x9d070f0c                Delay10us

.text.EthInit   0x9d070f54       0xb4
 .text.EthInit  0x9d070f54       0xb4 /sdd/opt/microchip/xc32/v1.40/bin/bin/../../lib/gcc/pic32mx/4.8.3/../../../../pic32mx/lib/speed/libmchp_peripheral_32MX795F512L.a(eth_init_lib.o)
                0x9d070f54                EthInit

.text.fptodp    0x9d071008       0xac
 .text.fptodp   0x9d071008       0xac /sdd/opt/microchip/xc32/v1.40/bin/bin/../../lib/gcc/pic32mx/4.8.3/../../../../pic32mx/lib/speed/libm.a(fptodp.o)
                0x9d071008                __extendsfdf2
                0x9d071008                fptodp

.text           0x9d0710b4      0x298
 .text          0x9d0710b4       0xa8 /sdd/opt/microchip/xc32/v1.40/bin/bin/../../lib/gcc/pic32mx/4.8.3/../../../../pic32mx/lib/speed/libpic32.a(memset.o)
                0x9d0710b4                memset
 .text          0x9d07115c       0xa8 /sdd/opt/microchip/xc32/v1.40/bin/bin/../../lib/gcc/pic32mx/4.8.3/../../../../pic32mx/lib/speed/liblega-c.a(gmtime.o)
                0x9d07115c                gmtime_r
                0x9d071198                gmtime
 .text          0x9d071204       0xa4 /sdd/opt/microchip/xc32/v1.40/bin/bin/../../lib/gcc/pic32mx/4.8.3/../../../../pic32mx/lib/speed/liblega-c.a(strncat.o)
                0x9d071204                strncat
 .text          0x9d0712a8       0xa4 /sdd/opt/microchip/xc32/v1.40/bin/bin/../../lib/gcc/pic32mx/4.8.3/../../../../pic32mx/lib/speed/liblega-c.a(fullexit.o)
                0x9d0712a8                _fullexit

.text.fpcmp     0x9d07134c       0x9c
 .text.fpcmp    0x9d07134c       0x9c /sdd/opt/microchip/xc32/v1.40/bin/bin/../../lib/gcc/pic32mx/4.8.3/../../../../pic32mx/lib/speed/libm.a(fpcmp.o)
                0x9d07134c                __ltsf2
                0x9d07134c                __eqsf2
                0x9d07134c                __lesf2
                0x9d07134c                __gtsf2
                0x9d07134c                __nesf2
                0x9d07134c                fpcmp
                0x9d07134c                __gesf2

.text           0x9d0713e8       0x9c
 .text          0x9d0713e8       0x9c /sdd/opt/microchip/xc32/v1.40/bin/bin/../../lib/gcc/pic32mx/4.8.3/../../../../pic32mx/lib/speed/liblega-c.a(strcat.o)
                0x9d0713e8                strcat

.rodata         0x9d071484       0x98
 .rodata        0x9d071484       0x98 build/default/production/_ext/1295770447/SMTP.o

.text           0x9d07151c       0x98
 .text          0x9d07151c       0x98 /sdd/opt/microchip/xc32/v1.40/bin/bin/../../lib/gcc/pic32mx/4.8.3/../../../../pic32mx/lib/speed/libpic32.a(memcmp.o)
                0x9d07151c                memcmp

.text.dptoli    0x9d0715b4       0x90
 .text.dptoli   0x9d0715b4       0x90 /sdd/opt/microchip/xc32/v1.40/bin/bin/../../lib/gcc/pic32mx/4.8.3/../../../../pic32mx/lib/speed/libm.a(dptoli.o)
                0x9d0715b4                dptoli
                0x9d0715b4                __fixdfsi

.text.UARTEnable
                0x9d071644       0x80
 .text.UARTEnable
                0x9d071644       0x80 /sdd/opt/microchip/xc32/v1.40/bin/bin/../../lib/gcc/pic32mx/4.8.3/../../../../pic32mx/lib/speed/libmchp_peripheral_32MX795F512L.a(uart_lib.o)
                0x9d071644                UARTEnable

.rodata         0x9d0716c8       0x80
 .rodata        0x9d0716c8       0x80 /sdd/opt/microchip/xc32/v1.40/bin/bin/../../lib/gcc/pic32mx/4.8.3/../../../../pic32mx/lib/speed/liblega-c.a(_doprnt.o)

.text.EthTxGetBufferStatus
                0x9d071748       0x7c
 .text.EthTxGetBufferStatus
                0x9d071748       0x7c /sdd/opt/microchip/xc32/v1.40/bin/bin/../../lib/gcc/pic32mx/4.8.3/../../../../pic32mx/lib/speed/libmchp_peripheral_32MX795F512L.a(eth_tx_packet_lib.o)
                0x9d071748                EthTxGetBufferStatus

.text.SoftReset
                0x9d0717c4       0x7c
 .text.SoftReset
                0x9d0717c4       0x7c /sdd/opt/microchip/xc32/v1.40/bin/bin/../../lib/gcc/pic32mx/4.8.3/../../../../pic32mx/lib/speed/libmchp_peripheral_32MX795F512L.a(soft_reset_lib.o)
                0x9d0717c4                SoftReset

.text.litodp    0x9d071840       0x78
 .text.litodp   0x9d071840       0x78 /sdd/opt/microchip/xc32/v1.40/bin/bin/../../lib/gcc/pic32mx/4.8.3/../../../../pic32mx/lib/speed/libm.a(litodp.o)
                0x9d071840                litodp
                0x9d071840                __floatsidf

.text           0x9d0718b8       0x74
 .text          0x9d0718b8       0x74 /sdd/opt/microchip/xc32/v1.40/bin/bin/../../lib/gcc/pic32mx/4.8.3/../../../../pic32mx/lib/speed/liblega-c.a(strstr.o)
                0x9d0718b8                strstr

.text.EthRxFiltersPMSet
                0x9d07192c       0x6c
 .text.EthRxFiltersPMSet
                0x9d07192c       0x6c /sdd/opt/microchip/xc32/v1.40/bin/bin/../../lib/gcc/pic32mx/4.8.3/../../../../pic32mx/lib/speed/libmchp_peripheral_32MX795F512L.a(eth_rx_filters_lib.o)
                0x9d07192c                EthRxFiltersPMSet

.rodata         0x9d071998       0xd4
 .rodata        0x9d071998       0x6c /sdd/opt/microchip/xc32/v1.40/bin/bin/../../lib/gcc/pic32mx/4.8.3/../../../../pic32mx/lib/speed/liblega-c.a(offtime.o)
 .rodata        0x9d071a04       0x68 build/default/production/_ext/1472/GenericTCPClient.o

.text           0x9d071a6c       0xd0
 .text          0x9d071a6c       0x68 /sdd/opt/microchip/xc32/v1.40/bin/bin/../../lib/gcc/pic32mx/4.8.3/../../../../pic32mx/lib/speed/liblega-c.a(vsscanf.o)
                0x9d071a6c                vsscanf
 .text          0x9d071ad4       0x68 /sdd/opt/microchip/xc32/v1.40/bin/bin/../../lib/gcc/pic32mx/4.8.3/../../../../pic32mx/lib/speed/liblega-c.a(memmove.o)
                0x9d071ad4                memmove

.text.sitofp    0x9d071b3c       0x60
 .text.sitofp   0x9d071b3c       0x60 /sdd/opt/microchip/xc32/v1.40/bin/bin/../../lib/gcc/pic32mx/4.8.3/../../../../pic32mx/lib/speed/libm.a(sitofp.o)
                0x9d071b3c                __floatsisf
                0x9d071b3c                sitofp
                0x9d071b3c                litofp

.text           0x9d071b9c       0x60
 .text          0x9d071b9c       0x60 /sdd/opt/microchip/xc32/v1.40/bin/bin/../../lib/gcc/pic32mx/4.8.3/../../../../pic32mx/lib/speed/liblega-c.a(__vsnprintf.o)
                0x9d071b9c                __vsnprintf

.rodata         0x9d071bfc       0xbc
 .rodata        0x9d071bfc       0x60 /sdd/opt/microchip/xc32/v1.40/bin/bin/../../lib/gcc/pic32mx/4.8.3/../../../../pic32mx/lib/speed/liblega-c.a(asctime.o)
 .rodata        0x9d071c5c       0x5c build/default/production/_ext/1295770447/TCPPerformanceTest.o

.text.UARTSetDataRate
                0x9d071cb8       0x5c
 .text.UARTSetDataRate
                0x9d071cb8       0x5c /sdd/opt/microchip/xc32/v1.40/bin/bin/../../lib/gcc/pic32mx/4.8.3/../../../../pic32mx/lib/speed/libmchp_peripheral_32MX795F512L.a(uart_lib.o)
                0x9d071cb8                UARTSetDataRate

.text.main_entry
                0x9d071d14       0x54
 .text.main_entry
                0x9d071d14       0x54 /sdd/opt/microchip/xc32/v1.40/bin/bin/../../lib/gcc/pic32mx/4.8.3/../../../../pic32mx/lib/./proc/32MX795F512L/crt0_mips32r2.o
                0x9d071d48                __crt0_exit

.rodata         0x9d071d68       0xa4
 .rodata        0x9d071d68       0x54 /sdd/opt/microchip/xc32/v1.40/bin/bin/../../lib/gcc/pic32mx/4.8.3/../../../../pic32mx/lib/speed/libmchp_peripheral_32MX795F512L.a(_ports_tbl_libp.o)
                0x9d071d68                PortRegTbl
 .rodata        0x9d071dbc       0x50 build/default/production/_ext/1472/SMTPDemo.o

.text           0x9d071e0c       0x98
 .text          0x9d071e0c       0x4c /sdd/opt/microchip/xc32/v1.40/bin/bin/../../lib/gcc/pic32mx/4.8.3/speed/libgcc.a(floatunsisf.o)
                0x9d071e0c                __floatunsisf
 .text          0x9d071e58       0x4c /sdd/opt/microchip/xc32/v1.40/bin/bin/../../lib/gcc/pic32mx/4.8.3/../../../../pic32mx/lib/speed/liblega-c.a(_mon_write.o)
                0x9d071e58                _mon_write

.text.EthMACSetAddress
                0x9d071ea4       0x48
 .text.EthMACSetAddress
                0x9d071ea4       0x48 /sdd/opt/microchip/xc32/v1.40/bin/bin/../../lib/gcc/pic32mx/4.8.3/../../../../pic32mx/lib/speed/libmchp_peripheral_32MX795F512L.a(eth_mac_set_address_max_lib.o)
                0x9d071ea4                EthMACSetAddress

.text._bootstrap_exception_handler
                0x9d071eec       0x48
 .text._bootstrap_exception_handler
                0x9d071eec       0x48 /sdd/opt/microchip/xc32/v1.40/bin/bin/../../lib/gcc/pic32mx/4.8.3/../../../../pic32mx/lib/speed/libpic32.a(default-bootstrap-exception-handler.o)
                0x9d071eec                _bootstrap_exception_handler

.vector_default
                0x9d071f34       0x48
 .vector_default
                0x9d071f34       0x48 /sdd/opt/microchip/xc32/v1.40/bin/bin/../../lib/gcc/pic32mx/4.8.3/../../../../pic32mx/lib/speed/libpic32.a(defaultinterrupt.o)
                0x9d071f34                _DefaultInterrupt

.rodata         0x9d071f7c       0x48
 .rodata        0x9d071f7c       0x48 /sdd/opt/microchip/xc32/v1.40/bin/bin/../../lib/gcc/pic32mx/4.8.3/../../../../pic32mx/lib/speed/libm.a(__strtod.o)

.text           0x9d071fc4       0x44
 .text          0x9d071fc4       0x44 /sdd/opt/microchip/xc32/v1.40/bin/bin/../../lib/gcc/pic32mx/4.8.3/../../../../pic32mx/lib/speed/pic32_software_reset.o
                0x9d071fc4                __pic32_software_reset

.text.EthMACGetAddress
                0x9d072008       0x44
 .text.EthMACGetAddress
                0x9d072008       0x44 /sdd/opt/microchip/xc32/v1.40/bin/bin/../../lib/gcc/pic32mx/4.8.3/../../../../pic32mx/lib/speed/libmchp_peripheral_32MX795F512L.a(eth_mac_set_address_max_lib.o)
                0x9d072008                EthMACGetAddress

.text.EthMIIMReadStart
                0x9d07204c       0x40
 .text.EthMIIMReadStart
                0x9d07204c       0x40 /sdd/opt/microchip/xc32/v1.40/bin/bin/../../lib/gcc/pic32mx/4.8.3/../../../../pic32mx/lib/speed/libmchp_peripheral_32MX795F512L.a(eth_miim_access.o)
                0x9d07204c                EthMIIMReadStart

.text.INTSetVectorPriority
                0x9d07208c       0x40
 .text.INTSetVectorPriority
                0x9d07208c       0x40 /sdd/opt/microchip/xc32/v1.40/bin/bin/../../lib/gcc/pic32mx/4.8.3/../../../../pic32mx/lib/speed/libmchp_peripheral_32MX795F512L.a(int_tbl_lib.o)
                0x9d07208c                INTSetVectorPriority

.text.INTSetVectorSubPriority
                0x9d0720cc       0x40
 .text.INTSetVectorSubPriority
                0x9d0720cc       0x40 /sdd/opt/microchip/xc32/v1.40/bin/bin/../../lib/gcc/pic32mx/4.8.3/../../../../pic32mx/lib/speed/libmchp_peripheral_32MX795F512L.a(int_tbl_lib.o)
                0x9d0720cc                INTSetVectorSubPriority

.text.PORTSetPinsDigitalIn
                0x9d07210c       0x40
 .text.PORTSetPinsDigitalIn
                0x9d07210c       0x40 /sdd/opt/microchip/xc32/v1.40/bin/bin/../../lib/gcc/pic32mx/4.8.3/../../../../pic32mx/lib/speed/libmchp_peripheral_32MX795F512L.a(port_set_pins_digital_in_lib.o)
                0x9d07210c                PORTSetPinsDigitalIn

.text.PORTSetPinsDigitalOut
                0x9d07214c       0x40
 .text.PORTSetPinsDigitalOut
                0x9d07214c       0x40 /sdd/opt/microchip/xc32/v1.40/bin/bin/../../lib/gcc/pic32mx/4.8.3/../../../../pic32mx/lib/speed/libmchp_peripheral_32MX795F512L.a(port_set_pins_digital_out_lib.o)
                0x9d07214c                PORTSetPinsDigitalOut

.text.UARTGetDataRate
                0x9d07218c       0x40
 .text.UARTGetDataRate
                0x9d07218c       0x40 /sdd/opt/microchip/xc32/v1.40/bin/bin/../../lib/gcc/pic32mx/4.8.3/../../../../pic32mx/lib/speed/libmchp_peripheral_32MX795F512L.a(uart_lib.o)
                0x9d07218c                UARTGetDataRate

.text           0x9d0721cc       0x80
 .text          0x9d0721cc       0x40 /sdd/opt/microchip/xc32/v1.40/bin/bin/../../lib/gcc/pic32mx/4.8.3/speed/libgcc.a(_lshrdi3.o)
                0x9d0721cc                __lshrdi3
 .text          0x9d07220c       0x40 /sdd/opt/microchip/xc32/v1.40/bin/bin/../../lib/gcc/pic32mx/4.8.3/speed/libgcc.a(_ashldi3.o)
                0x9d07220c                __ashldi3

.text.EthRxGetBuffer
                0x9d07224c       0x3c
 .text.EthRxGetBuffer
                0x9d07224c       0x3c /sdd/opt/microchip/xc32/v1.40/bin/bin/../../lib/gcc/pic32mx/4.8.3/../../../../pic32mx/lib/speed/libmchp_peripheral_32MX795F512L.a(eth_rx_get_packet_lib.o)
                0x9d07224c                EthRxGetBuffer

.text.INTEnable
                0x9d072288       0x3c
 .text.INTEnable
                0x9d072288       0x3c /sdd/opt/microchip/xc32/v1.40/bin/bin/../../lib/gcc/pic32mx/4.8.3/../../../../pic32mx/lib/speed/libmchp_peripheral_32MX795F512L.a(int_tbl_lib.o)
                0x9d072288                INTEnable

.text.UARTConfigure
                0x9d0722c4       0x3c
 .text.UARTConfigure
                0x9d0722c4       0x3c /sdd/opt/microchip/xc32/v1.40/bin/bin/../../lib/gcc/pic32mx/4.8.3/../../../../pic32mx/lib/speed/libmchp_peripheral_32MX795F512L.a(uart_lib.o)
                0x9d0722c4                UARTConfigure

.text.UARTSetAddress
                0x9d072300       0x3c
 .text.UARTSetAddress
                0x9d072300       0x3c /sdd/opt/microchip/xc32/v1.40/bin/bin/../../lib/gcc/pic32mx/4.8.3/../../../../pic32mx/lib/speed/libmchp_peripheral_32MX795F512L.a(uart_lib.o)
                0x9d072300                UARTSetAddress

.text           0x9d07233c       0x3c
 .text          0x9d07233c       0x3c /sdd/opt/microchip/xc32/v1.40/bin/bin/../../lib/gcc/pic32mx/4.8.3/../../../../pic32mx/lib/speed/liblega-c.a(sprintf.o)
                0x9d07233c                sprintf

.rodata         0x9d072378       0x38
 .rodata        0x9d072378       0x38 build/default/production/_ext/1295770447/TCP.o
                0x9d072378                TCPSocketInitializer

.text._EthFindPacket
                0x9d0723b0       0x38
 .text._EthFindPacket
                0x9d0723b0       0x38 /sdd/opt/microchip/xc32/v1.40/bin/bin/../../lib/gcc/pic32mx/4.8.3/../../../../pic32mx/lib/speed/libmchp_peripheral_32MX795F512L.a(eth_tx_packet_lib.o)
                0x9d0723b0                _EthFindPacket

.text.EthMIIMWriteStart
                0x9d0723e8       0x38
 .text.EthMIIMWriteStart
                0x9d0723e8       0x38 /sdd/opt/microchip/xc32/v1.40/bin/bin/../../lib/gcc/pic32mx/4.8.3/../../../../pic32mx/lib/speed/libmchp_peripheral_32MX795F512L.a(eth_miim_access.o)
                0x9d0723e8                EthMIIMWriteStart

.text.EthRxSetBufferSize
                0x9d072420       0x34
 .text.EthRxSetBufferSize
                0x9d072420       0x34 /sdd/opt/microchip/xc32/v1.40/bin/bin/../../lib/gcc/pic32mx/4.8.3/../../../../pic32mx/lib/speed/libmchp_peripheral_32MX795F512L.a(eth_rx_set_buffer_size_lib.o)
                0x9d072420                EthRxSetBufferSize

.text.EthMIIMScanStart
                0x9d072454       0x34
 .text.EthMIIMScanStart
                0x9d072454       0x34 /sdd/opt/microchip/xc32/v1.40/bin/bin/../../lib/gcc/pic32mx/4.8.3/../../../../pic32mx/lib/speed/libmchp_peripheral_32MX795F512L.a(eth_miim_access.o)
                0x9d072454                EthMIIMScanStart

.text.INTEnableSystemMultiVectoredInt
                0x9d072488       0x34
 .text.INTEnableSystemMultiVectoredInt
                0x9d072488       0x34 /sdd/opt/microchip/xc32/v1.40/bin/bin/../../lib/gcc/pic32mx/4.8.3/../../../../pic32mx/lib/speed/libmchp_peripheral_32MX795F512L.a(int_enable_mv_int_lib.o)
                0x9d072488                INTEnableSystemMultiVectoredInt

.text.UARTWatchForAddress
                0x9d0724bc       0x34
 .text.UARTWatchForAddress
                0x9d0724bc       0x34 /sdd/opt/microchip/xc32/v1.40/bin/bin/../../lib/gcc/pic32mx/4.8.3/../../../../pic32mx/lib/speed/libmchp_peripheral_32MX795F512L.a(uart_lib.o)
                0x9d0724bc                UARTWatchForAddress

.text.EthTxAcknowledgeBuffer
                0x9d0724f0       0x30
 .text.EthTxAcknowledgeBuffer
                0x9d0724f0       0x30 /sdd/opt/microchip/xc32/v1.40/bin/bin/../../lib/gcc/pic32mx/4.8.3/../../../../pic32mx/lib/speed/libmchp_peripheral_32MX795F512L.a(eth_ack_packet_lib.o)
                0x9d0724f0                EthTxAcknowledgeBuffer

.text.EthTxAckBuffer
                0x9d072520       0x30
 .text.EthTxAckBuffer
                0x9d072520       0x30 /sdd/opt/microchip/xc32/v1.40/bin/bin/../../lib/gcc/pic32mx/4.8.3/../../../../pic32mx/lib/speed/libmchp_peripheral_32MX795F512L.a(eth_ack_packet_lib.o)
                0x9d072520                EthTxAckBuffer

.text.INTGetVectorPriority
                0x9d072550       0x30
 .text.INTGetVectorPriority
                0x9d072550       0x30 /sdd/opt/microchip/xc32/v1.40/bin/bin/../../lib/gcc/pic32mx/4.8.3/../../../../pic32mx/lib/speed/libmchp_peripheral_32MX795F512L.a(int_tbl_lib.o)
                0x9d072550                INTGetVectorPriority

.text.INTGetVectorSubPriority
                0x9d072580       0x30
 .text.INTGetVectorSubPriority
                0x9d072580       0x30 /sdd/opt/microchip/xc32/v1.40/bin/bin/../../lib/gcc/pic32mx/4.8.3/../../../../pic32mx/lib/speed/libmchp_peripheral_32MX795F512L.a(int_tbl_lib.o)
                0x9d072580                INTGetVectorSubPriority

.rodata         0x9d0725b0       0x30
 .rodata        0x9d0725b0       0x30 /sdd/opt/microchip/xc32/v1.40/bin/bin/../../lib/gcc/pic32mx/4.8.3/../../../../pic32mx/lib/speed/liblega-c.a(_doscan.o)

.text           0x9d0725e0       0x30
 .text          0x9d0725e0       0x30 /sdd/opt/microchip/xc32/v1.40/bin/bin/../../lib/gcc/pic32mx/4.8.3/../../../../pic32mx/lib/speed/liblega-c.a(_cleanup.o)
                0x9d0725e0                _cleanup

.text.INTClearFlag
                0x9d072610       0x2c
 .text.INTClearFlag
                0x9d072610       0x2c /sdd/opt/microchip/xc32/v1.40/bin/bin/../../lib/gcc/pic32mx/4.8.3/../../../../pic32mx/lib/speed/libmchp_peripheral_32MX795F512L.a(int_tbl_lib.o)
                0x9d072610                INTClearFlag

.text.INTSetFlag
                0x9d07263c       0x2c
 .text.INTSetFlag
                0x9d07263c       0x2c /sdd/opt/microchip/xc32/v1.40/bin/bin/../../lib/gcc/pic32mx/4.8.3/../../../../pic32mx/lib/speed/libmchp_peripheral_32MX795F512L.a(int_tbl_lib.o)
                0x9d07263c                INTSetFlag

.text.INTGetFlag
                0x9d072668       0x2c
 .text.INTGetFlag
                0x9d072668       0x2c /sdd/opt/microchip/xc32/v1.40/bin/bin/../../lib/gcc/pic32mx/4.8.3/../../../../pic32mx/lib/speed/libmchp_peripheral_32MX795F512L.a(int_tbl_lib.o)
                0x9d072668                INTGetFlag

.text.INTGetEnable
                0x9d072694       0x2c
 .text.INTGetEnable
                0x9d072694       0x2c /sdd/opt/microchip/xc32/v1.40/bin/bin/../../lib/gcc/pic32mx/4.8.3/../../../../pic32mx/lib/speed/libmchp_peripheral_32MX795F512L.a(int_tbl_lib.o)
                0x9d072694                INTGetEnable

.text           0x9d0726c0       0x2c
 .text          0x9d0726c0       0x2c /sdd/opt/microchip/xc32/v1.40/bin/bin/../../lib/gcc/pic32mx/4.8.3/../../../../pic32mx/lib/speed/liblega-c.a(sscanf.o)
                0x9d0726c0                sscanf

.text.EthMIIMReadResult
                0x9d0726ec       0x28
 .text.EthMIIMReadResult
                0x9d0726ec       0x28 /sdd/opt/microchip/xc32/v1.40/bin/bin/../../lib/gcc/pic32mx/4.8.3/../../../../pic32mx/lib/speed/libmchp_peripheral_32MX795F512L.a(eth_miim_access.o)
                0x9d0726ec                EthMIIMReadResult

.text.UARTSetFifoMode
                0x9d072714       0x28
 .text.UARTSetFifoMode
                0x9d072714       0x28 /sdd/opt/microchip/xc32/v1.40/bin/bin/../../lib/gcc/pic32mx/4.8.3/../../../../pic32mx/lib/speed/libmchp_peripheral_32MX795F512L.a(uart_lib.o)
                0x9d072714                UARTSetFifoMode

.text.UARTSetLineControl
                0x9d07273c       0x28
 .text.UARTSetLineControl
                0x9d07273c       0x28 /sdd/opt/microchip/xc32/v1.40/bin/bin/../../lib/gcc/pic32mx/4.8.3/../../../../pic32mx/lib/speed/libmchp_peripheral_32MX795F512L.a(uart_lib.o)
                0x9d07273c                UARTSetLineControl

.text           0x9d072764       0x4c
 .text          0x9d072764       0x28 /sdd/opt/microchip/xc32/v1.40/bin/bin/../../lib/gcc/pic32mx/4.8.3/../../../../pic32mx/lib/speed/liblega-c.a(_iobstring.o)
 .text          0x9d07278c       0x24 /sdd/opt/microchip/xc32/v1.40/bin/bin/../../lib/gcc/pic32mx/4.8.3/../../../../pic32mx/lib/speed/liblega-c.a(_mon_putc.o)
                0x9d07278c                _mon_putc

.rodata         0x9d0727b0       0x20
 .rodata        0x9d0727b0       0x20 build/default/production/_ext/1472/GenericTCPServer.o

.text.EthMIIMScanResult
                0x9d0727d0       0x20
 .text.EthMIIMScanResult
                0x9d0727d0       0x20 /sdd/opt/microchip/xc32/v1.40/bin/bin/../../lib/gcc/pic32mx/4.8.3/../../../../pic32mx/lib/speed/libmchp_peripheral_32MX795F512L.a(eth_miim_access.o)
                0x9d0727d0                EthMIIMScanResult

.rodata         0x9d0727f0       0x1c
 .rodata        0x9d0727f0       0x1c build/default/production/_ext/1295770447/Announce.o

.text.EthRxAcknowledgeBuffer
                0x9d07280c       0x1c
 .text.EthRxAcknowledgeBuffer
                0x9d07280c       0x1c /sdd/opt/microchip/xc32/v1.40/bin/bin/../../lib/gcc/pic32mx/4.8.3/../../../../pic32mx/lib/speed/libmchp_peripheral_32MX795F512L.a(eth_ack_packet_lib.o)
                0x9d07280c                EthRxAcknowledgeBuffer

.text.EthRxAckBuffer
                0x9d072828       0x1c
 .text.EthRxAckBuffer
                0x9d072828       0x1c /sdd/opt/microchip/xc32/v1.40/bin/bin/../../lib/gcc/pic32mx/4.8.3/../../../../pic32mx/lib/speed/libmchp_peripheral_32MX795F512L.a(eth_ack_packet_lib.o)
                0x9d072828                EthRxAckBuffer

.text.INTRestoreInterrupts
                0x9d072844       0x1c
 .text.INTRestoreInterrupts
                0x9d072844       0x1c /sdd/opt/microchip/xc32/v1.40/bin/bin/../../lib/gcc/pic32mx/4.8.3/../../../../pic32mx/lib/speed/libmchp_peripheral_32MX795F512L.a(int_restore_interrupts_lib.o)
                0x9d072844                INTRestoreInterrupts

.text           0x9d072860       0x38
 .text          0x9d072860       0x1c /sdd/opt/microchip/xc32/v1.40/bin/bin/../../lib/gcc/pic32mx/4.8.3/../../../../pic32mx/lib/speed/liblega-c.a(strtod.o)
                0x9d072860                strtod
 .text          0x9d07287c       0x1c /sdd/opt/microchip/xc32/v1.40/bin/bin/../../lib/gcc/pic32mx/4.8.3/../../../../pic32mx/lib/speed/liblega-c.a(strtof.o)
                0x9d07287c                strtof

.text.negdf2    0x9d072898       0x1c
 .text.negdf2   0x9d072898       0x1c /sdd/opt/microchip/xc32/v1.40/bin/bin/../../lib/gcc/pic32mx/4.8.3/../../../../pic32mx/lib/speed/libm.a(negdf2.o)
                0x9d072898                __negdf2

.text.EthRxFiltersHTSet
                0x9d0728b4       0x18
 .text.EthRxFiltersHTSet
                0x9d0728b4       0x18 /sdd/opt/microchip/xc32/v1.40/bin/bin/../../lib/gcc/pic32mx/4.8.3/../../../../pic32mx/lib/speed/libmchp_peripheral_32MX795F512L.a(eth_rx_filters_lib.o)
                0x9d0728b4                EthRxFiltersHTSet

.text.CheKseg0CacheOff
                0x9d0728cc       0x18
 .text.CheKseg0CacheOff
                0x9d0728cc       0x18 /sdd/opt/microchip/xc32/v1.40/bin/bin/../../lib/gcc/pic32mx/4.8.3/../../../../pic32mx/lib/speed/libmchp_peripheral_32MX795F512L.a(pcache.o)
                0x9d0728cc                CheKseg0CacheOff

.text.CheKseg0CacheOn
                0x9d0728e4       0x18
 .text.CheKseg0CacheOn
                0x9d0728e4       0x18 /sdd/opt/microchip/xc32/v1.40/bin/bin/../../lib/gcc/pic32mx/4.8.3/../../../../pic32mx/lib/speed/libmchp_peripheral_32MX795F512L.a(pcache.o)
                0x9d0728e4                CheKseg0CacheOn

.rodata         0x9d0728fc       0x18
 .rodata        0x9d0728fc       0x18 /sdd/opt/microchip/xc32/v1.40/bin/bin/../../lib/gcc/pic32mx/4.8.3/../../../../pic32mx/lib/speed/libmchp_peripheral_32MX795F512L.a(uart_lib.o)
                0x9d0728fc                uartReg

.text           0x9d072914       0x18
 .text          0x9d072914       0x18 /sdd/opt/microchip/xc32/v1.40/bin/bin/../../lib/gcc/pic32mx/4.8.3/../../../../pic32mx/lib/speed/libpic32.a(default-nmi-handler.o)
                0x9d072914                _nmi_handler

.rodata         0x9d07292c       0x40
 .rodata        0x9d07292c       0x18 /sdd/opt/microchip/xc32/v1.40/bin/bin/../../lib/gcc/pic32mx/4.8.3/../../../../pic32mx/lib/speed/libm.a(__strtof.o)
 .rodata        0x9d072944       0x14 build/default/production/_ext/1472/PingDemo.o
 .rodata        0x9d072958       0x14 build/default/production/_ext/1472/MainDemo.o

.text.EthMACSetMaxFrame
                0x9d07296c       0x14
 .text.EthMACSetMaxFrame
                0x9d07296c       0x14 /sdd/opt/microchip/xc32/v1.40/bin/bin/../../lib/gcc/pic32mx/4.8.3/../../../../pic32mx/lib/speed/libmchp_peripheral_32MX795F512L.a(eth_mac_set_address_max_lib.o)
                0x9d07296c                EthMACSetMaxFrame

.text.EthRxFiltersPMClr
                0x9d072980       0x14
 .text.EthRxFiltersPMClr
                0x9d072980       0x14 /sdd/opt/microchip/xc32/v1.40/bin/bin/../../lib/gcc/pic32mx/4.8.3/../../../../pic32mx/lib/speed/libmchp_peripheral_32MX795F512L.a(eth_rx_filters_lib.o)
                0x9d072980                EthRxFiltersPMClr

.rodata         0x9d072994       0x28
 .rodata        0x9d072994       0x14 /sdd/opt/microchip/xc32/v1.40/bin/bin/../../lib/gcc/pic32mx/4.8.3/../../../../pic32mx/lib/speed/liblega-c.a(_iobdata.o)
                0x9d072994                _io_funcs
 .rodata        0x9d0729a8       0x14 /sdd/opt/microchip/xc32/v1.40/bin/bin/../../lib/gcc/pic32mx/4.8.3/../../../../pic32mx/lib/speed/liblega-c.a(_iobstring.o)
                0x9d0729a8                _io_strfuncs

.text.negsf2    0x9d0729bc       0x14
 .text.negsf2   0x9d0729bc       0x14 /sdd/opt/microchip/xc32/v1.40/bin/bin/../../lib/gcc/pic32mx/4.8.3/../../../../pic32mx/lib/speed/libm.a(negsf2.o)
                0x9d0729bc                __negsf2

.rodata         0x9d0729d0       0x30
 .rodata        0x9d0729d0       0x10 build/default/production/_ext/1472/BerkeleyTCPClientDemo.o
 .rodata        0x9d0729e0       0x10 build/default/production/_ext/1472/BerkeleyUDPClientDemo.o
 .rodata        0x9d0729f0       0x10 build/default/production/_ext/1472/mbmc.o

.text.EthRxFiltersSet
                0x9d072a00       0x10
 .text.EthRxFiltersSet
                0x9d072a00       0x10 /sdd/opt/microchip/xc32/v1.40/bin/bin/../../lib/gcc/pic32mx/4.8.3/../../../../pic32mx/lib/speed/libmchp_peripheral_32MX795F512L.a(eth_rx_filters_lib.o)
                0x9d072a00                EthRxFiltersSet

.text.EthRxFiltersClr
                0x9d072a10       0x10
 .text.EthRxFiltersClr
                0x9d072a10       0x10 /sdd/opt/microchip/xc32/v1.40/bin/bin/../../lib/gcc/pic32mx/4.8.3/../../../../pic32mx/lib/speed/libmchp_peripheral_32MX795F512L.a(eth_rx_filters_lib.o)
                0x9d072a10                EthRxFiltersClr

.text.EthRxFiltersWrite
                0x9d072a20       0x10
 .text.EthRxFiltersWrite
                0x9d072a20       0x10 /sdd/opt/microchip/xc32/v1.40/bin/bin/../../lib/gcc/pic32mx/4.8.3/../../../../pic32mx/lib/speed/libmchp_peripheral_32MX795F512L.a(eth_rx_filters_lib.o)
                0x9d072a20                EthRxFiltersWrite

.rodata         0x9d072a30       0x2c
 .rodata        0x9d072a30       0x10 /sdd/opt/microchip/xc32/v1.40/bin/bin/../../lib/gcc/pic32mx/4.8.3/../../../../pic32mx/lib/speed/libmchp_peripheral_32MX795F512L.a(eth_miim_access.o)
 .rodata        0x9d072a40        0xc build/default/production/_ext/1295770447/SNTP.o
 .rodata        0x9d072a4c        0x8 build/default/production/_ext/1295770447/ETHPIC32IntMac.o
 .rodata        0x9d072a54        0x8 build/default/production/_ext/1295770447/MPFS2.o

.text.ReadCoreTimer
                0x9d072a5c        0x8
 .text.ReadCoreTimer
                0x9d072a5c        0x8 /sdd/opt/microchip/xc32/v1.40/bin/bin/../../lib/gcc/pic32mx/4.8.3/../../../../pic32mx/lib/speed/libmchp_peripheral.a(read_core_timer_lib.o)
                0x9d072a5c                ReadCoreTimer

.text.INTDisableInterrupts
                0x9d072a64        0x8
 .text.INTDisableInterrupts
                0x9d072a64        0x8 /sdd/opt/microchip/xc32/v1.40/bin/bin/../../lib/gcc/pic32mx/4.8.3/../../../../pic32mx/lib/speed/libmchp_peripheral_32MX795F512L.a(int_disable_interrupts_lib.o)
                0x9d072a64                INTDisableInterrupts

.text.INTEnableInterrupts
                0x9d072a6c        0x8
 .text.INTEnableInterrupts
                0x9d072a6c        0x8 /sdd/opt/microchip/xc32/v1.40/bin/bin/../../lib/gcc/pic32mx/4.8.3/../../../../pic32mx/lib/speed/libmchp_peripheral_32MX795F512L.a(int_enable_interrupts_lib.o)
                0x9d072a6c                INTEnableInterrupts

.text._on_reset
                0x9d072a74        0x8
 .text._on_reset
                0x9d072a74        0x8 /sdd/opt/microchip/xc32/v1.40/bin/bin/../../lib/gcc/pic32mx/4.8.3/../../../../pic32mx/lib/speed/libpic32.a(default-on-reset.o)
                0x9d072a74                _on_reset

.text._on_bootstrap
                0x9d072a7c        0x8
 .text._on_bootstrap
                0x9d072a7c        0x8 /sdd/opt/microchip/xc32/v1.40/bin/bin/../../lib/gcc/pic32mx/4.8.3/../../../../pic32mx/lib/speed/libpic32.a(default-on-bootstrap.o)
                0x9d072a7c                _on_bootstrap

.text           0x9d072a84       0x18
 .text          0x9d072a84        0x8 /sdd/opt/microchip/xc32/v1.40/bin/bin/../../lib/gcc/pic32mx/4.8.3/../../../../pic32mx/lib/speed/liblega-c.a(_mon_getc.o)
                0x9d072a84                _mon_getc
 .text          0x9d072a8c        0x8 /sdd/opt/microchip/xc32/v1.40/bin/bin/../../lib/gcc/pic32mx/4.8.3/../../../../pic32mx/lib/speed/liblega-c.a(_exit.o)
                0x9d072a8c                _exit
 .text          0x9d072a94        0x8 /sdd/opt/microchip/xc32/v1.40/bin/bin/../../lib/gcc/pic32mx/4.8.3/../../../../pic32mx/lib/speed/liblega-c.a(isatty.o)
                0x9d072a94                isatty
                0x9d072a94                _weak_isatty

.rodata         0x9d060034        0x4
 .rodata        0x9d060034        0x4 /sdd/opt/microchip/xc32/v1.40/bin/bin/../../lib/gcc/pic32mx/4.8.3/../../../../pic32mx/lib/speed/liblega-c.a(gmtime.o)

.text           0x00000000        0x0
 .text          0x00000000        0x0 /sdd/opt/microchip/xc32/v1.40/bin/bin/../../lib/gcc/pic32mx/4.8.3/../../../../pic32mx/lib/speed/libe.a(_ldexpf.o)

.text           0x00000000        0x0
 .text          0x00000000        0x0 /sdd/opt/microchip/xc32/v1.40/bin/bin/../../lib/gcc/pic32mx/4.8.3/../../../../pic32mx/lib/speed/libe.a(_ldexp.o)

.text           0x00000000        0x0
 .text          0x00000000        0x0 /sdd/opt/microchip/xc32/v1.40/bin/bin/../../lib/gcc/pic32mx/4.8.3/../../../../pic32mx/lib/speed/libm.a(negsf2.o)

.text           0x00000000        0x0
 .text          0x00000000        0x0 /sdd/opt/microchip/xc32/v1.40/bin/bin/../../lib/gcc/pic32mx/4.8.3/../../../../pic32mx/lib/speed/libm.a(negdf2.o)

.text           0x00000000        0x0
 .text          0x00000000        0x0 /sdd/opt/microchip/xc32/v1.40/bin/bin/../../lib/gcc/pic32mx/4.8.3/../../../../pic32mx/lib/speed/libm.a(__strtof.o)

.text           0x00000000        0x0
 .text          0x00000000        0x0 /sdd/opt/microchip/xc32/v1.40/bin/bin/../../lib/gcc/pic32mx/4.8.3/../../../../pic32mx/lib/speed/libm.a(__strtod.o)

.text           0x00000000        0x0
 .text          0x00000000        0x0 /sdd/opt/microchip/xc32/v1.40/bin/bin/../../lib/gcc/pic32mx/4.8.3/../../../../pic32mx/lib/speed/libm.a(dpcmp.o)

.text           0x00000000        0x0
 .text          0x00000000        0x0 /sdd/opt/microchip/xc32/v1.40/bin/bin/../../lib/gcc/pic32mx/4.8.3/../../../../pic32mx/lib/speed/libm.a(dpmodf.o)

.text           0x00000000        0x0
 .text          0x00000000        0x0 /sdd/opt/microchip/xc32/v1.40/bin/bin/../../lib/gcc/pic32mx/4.8.3/../../../../pic32mx/lib/speed/liblega-c.a(_iobdata.o)

.text           0x00000000        0x0
 .text          0x00000000        0x0 /sdd/opt/microchip/xc32/v1.40/bin/bin/../../lib/gcc/pic32mx/4.8.3/../../../../pic32mx/lib/speed/liblega-c.a(errno.o)

.text           0x00000000        0x0
 .text          0x00000000        0x0 /sdd/opt/microchip/xc32/v1.40/bin/bin/../../lib/gcc/pic32mx/4.8.3/../../../../pic32mx/lib/speed/liblega-c.a(ctype.o)

.text           0x00000000        0x0
 .text          0x00000000        0x0 /sdd/opt/microchip/xc32/v1.40/bin/bin/../../lib/gcc/pic32mx/4.8.3/../../../../pic32mx/lib/speed/libm.a(sitofp.o)

.text           0x00000000        0x0
 .text          0x00000000        0x0 /sdd/opt/microchip/xc32/v1.40/bin/bin/../../lib/gcc/pic32mx/4.8.3/../../../../pic32mx/lib/speed/libm.a(sigmax.o)

.text           0x00000000        0x0
 .text          0x00000000        0x0 /sdd/opt/microchip/xc32/v1.40/bin/bin/../../lib/gcc/pic32mx/4.8.3/../../../../pic32mx/lib/speed/libm.a(litodp.o)

.text           0x00000000        0x0
 .text          0x00000000        0x0 /sdd/opt/microchip/xc32/v1.40/bin/bin/../../lib/gcc/pic32mx/4.8.3/../../../../pic32mx/lib/speed/libm.a(fptodp.o)

.text           0x00000000        0x0
 .text          0x00000000        0x0 /sdd/opt/microchip/xc32/v1.40/bin/bin/../../lib/gcc/pic32mx/4.8.3/../../../../pic32mx/lib/speed/libm.a(fpcmp.o)

.text           0x00000000        0x0
 .text          0x00000000        0x0 /sdd/opt/microchip/xc32/v1.40/bin/bin/../../lib/gcc/pic32mx/4.8.3/../../../../pic32mx/lib/speed/libm.a(fp32subadd.o)

.text           0x00000000        0x0
 .text          0x00000000        0x0 /sdd/opt/microchip/xc32/v1.40/bin/bin/../../lib/gcc/pic32mx/4.8.3/../../../../pic32mx/lib/speed/libm.a(fp32mul.o)

.text           0x00000000        0x0
 .text          0x00000000        0x0 /sdd/opt/microchip/xc32/v1.40/bin/bin/../../lib/gcc/pic32mx/4.8.3/../../../../pic32mx/lib/speed/libm.a(fp32div.o)

.text           0x00000000        0x0
 .text          0x00000000        0x0 /sdd/opt/microchip/xc32/v1.40/bin/bin/../../lib/gcc/pic32mx/4.8.3/../../../../pic32mx/lib/speed/libm.a(exmul.o)

.text           0x00000000        0x0
 .text          0x00000000        0x0 /sdd/opt/microchip/xc32/v1.40/bin/bin/../../lib/gcc/pic32mx/4.8.3/../../../../pic32mx/lib/speed/libm.a(exdiv.o)

.text           0x00000000        0x0
 .text          0x00000000        0x0 /sdd/opt/microchip/xc32/v1.40/bin/bin/../../lib/gcc/pic32mx/4.8.3/../../../../pic32mx/lib/speed/libm.a(exadd.o)

.text           0x00000000        0x0
 .text          0x00000000        0x0 /sdd/opt/microchip/xc32/v1.40/bin/bin/../../lib/gcc/pic32mx/4.8.3/../../../../pic32mx/lib/speed/libm.a(dptoli.o)

.text           0x00000000        0x0
 .text          0x00000000        0x0 /sdd/opt/microchip/xc32/v1.40/bin/bin/../../lib/gcc/pic32mx/4.8.3/../../../../pic32mx/lib/speed/libm.a(dptofp.o)

.text           0x00000000        0x0
 .text          0x00000000        0x0 /sdd/opt/microchip/xc32/v1.40/bin/bin/../../lib/gcc/pic32mx/4.8.3/../../../../pic32mx/lib/speed/libm.a(dp32subadd.o)

.text           0x00000000        0x0
 .text          0x00000000        0x0 /sdd/opt/microchip/xc32/v1.40/bin/bin/../../lib/gcc/pic32mx/4.8.3/../../../../pic32mx/lib/speed/libm.a(dp32mul.o)

.text           0x00000000        0x0
 .text          0x00000000        0x0 /sdd/opt/microchip/xc32/v1.40/bin/bin/../../lib/gcc/pic32mx/4.8.3/../../../../pic32mx/lib/speed/libm.a(dp32div.o)

.text           0x00000000        0x0
 .text          0x00000000        0x0 /sdd/opt/microchip/xc32/v1.40/bin/bin/../../lib/gcc/pic32mx/4.8.3/../../../../pic32mx/lib/speed/libpic32.a(defaultinterrupt.o)

.text           0x00000000        0x0
 .text          0x00000000        0x0 /sdd/opt/microchip/xc32/v1.40/bin/bin/../../lib/gcc/pic32mx/4.8.3/../../../../pic32mx/lib/speed/libpic32.a(vector51.o)

.text           0x00000000        0x0
 .text          0x00000000        0x0 /sdd/opt/microchip/xc32/v1.40/bin/bin/../../lib/gcc/pic32mx/4.8.3/../../../../pic32mx/lib/speed/libpic32.a(vector50.o)

.text           0x00000000        0x0
 .text          0x00000000        0x0 /sdd/opt/microchip/xc32/v1.40/bin/bin/../../lib/gcc/pic32mx/4.8.3/../../../../pic32mx/lib/speed/libpic32.a(vector49.o)

.text           0x00000000        0x0
 .text          0x00000000        0x0 /sdd/opt/microchip/xc32/v1.40/bin/bin/../../lib/gcc/pic32mx/4.8.3/../../../../pic32mx/lib/speed/libpic32.a(vector48.o)

.text           0x00000000        0x0
 .text          0x00000000        0x0 /sdd/opt/microchip/xc32/v1.40/bin/bin/../../lib/gcc/pic32mx/4.8.3/../../../../pic32mx/lib/speed/libpic32.a(vector47.o)

.text           0x00000000        0x0
 .text          0x00000000        0x0 /sdd/opt/microchip/xc32/v1.40/bin/bin/../../lib/gcc/pic32mx/4.8.3/../../../../pic32mx/lib/speed/libpic32.a(vector46.o)

.text           0x00000000        0x0
 .text          0x00000000        0x0 /sdd/opt/microchip/xc32/v1.40/bin/bin/../../lib/gcc/pic32mx/4.8.3/../../../../pic32mx/lib/speed/libpic32.a(vector45.o)

.text           0x00000000        0x0
 .text          0x00000000        0x0 /sdd/opt/microchip/xc32/v1.40/bin/bin/../../lib/gcc/pic32mx/4.8.3/../../../../pic32mx/lib/speed/libpic32.a(vector44.o)

.text           0x00000000        0x0
 .text          0x00000000        0x0 /sdd/opt/microchip/xc32/v1.40/bin/bin/../../lib/gcc/pic32mx/4.8.3/../../../../pic32mx/lib/speed/libpic32.a(vector43.o)

.text           0x00000000        0x0
 .text          0x00000000        0x0 /sdd/opt/microchip/xc32/v1.40/bin/bin/../../lib/gcc/pic32mx/4.8.3/../../../../pic32mx/lib/speed/libpic32.a(vector42.o)

.text           0x00000000        0x0
 .text          0x00000000        0x0 /sdd/opt/microchip/xc32/v1.40/bin/bin/../../lib/gcc/pic32mx/4.8.3/../../../../pic32mx/lib/speed/libpic32.a(vector41.o)

.text           0x00000000        0x0
 .text          0x00000000        0x0 /sdd/opt/microchip/xc32/v1.40/bin/bin/../../lib/gcc/pic32mx/4.8.3/../../../../pic32mx/lib/speed/libpic32.a(vector40.o)

.text           0x00000000        0x0
 .text          0x00000000        0x0 /sdd/opt/microchip/xc32/v1.40/bin/bin/../../lib/gcc/pic32mx/4.8.3/../../../../pic32mx/lib/speed/libpic32.a(vector39.o)

.text           0x00000000        0x0
 .text          0x00000000        0x0 /sdd/opt/microchip/xc32/v1.40/bin/bin/../../lib/gcc/pic32mx/4.8.3/../../../../pic32mx/lib/speed/libpic32.a(vector38.o)

.text           0x00000000        0x0
 .text          0x00000000        0x0 /sdd/opt/microchip/xc32/v1.40/bin/bin/../../lib/gcc/pic32mx/4.8.3/../../../../pic32mx/lib/speed/libpic32.a(vector37.o)

.text           0x00000000        0x0
 .text          0x00000000        0x0 /sdd/opt/microchip/xc32/v1.40/bin/bin/../../lib/gcc/pic32mx/4.8.3/../../../../pic32mx/lib/speed/libpic32.a(vector36.o)

.text           0x00000000        0x0
 .text          0x00000000        0x0 /sdd/opt/microchip/xc32/v1.40/bin/bin/../../lib/gcc/pic32mx/4.8.3/../../../../pic32mx/lib/speed/libpic32.a(vector35.o)

.text           0x00000000        0x0
 .text          0x00000000        0x0 /sdd/opt/microchip/xc32/v1.40/bin/bin/../../lib/gcc/pic32mx/4.8.3/../../../../pic32mx/lib/speed/libpic32.a(vector34.o)

.text           0x00000000        0x0
 .text          0x00000000        0x0 /sdd/opt/microchip/xc32/v1.40/bin/bin/../../lib/gcc/pic32mx/4.8.3/../../../../pic32mx/lib/speed/libpic32.a(vector33.o)

.text           0x00000000        0x0
 .text          0x00000000        0x0 /sdd/opt/microchip/xc32/v1.40/bin/bin/../../lib/gcc/pic32mx/4.8.3/../../../../pic32mx/lib/speed/libpic32.a(vector31.o)

.text           0x00000000        0x0
 .text          0x00000000        0x0 /sdd/opt/microchip/xc32/v1.40/bin/bin/../../lib/gcc/pic32mx/4.8.3/../../../../pic32mx/lib/speed/libpic32.a(vector30.o)

.text           0x00000000        0x0
 .text          0x00000000        0x0 /sdd/opt/microchip/xc32/v1.40/bin/bin/../../lib/gcc/pic32mx/4.8.3/../../../../pic32mx/lib/speed/libpic32.a(vector29.o)

.text           0x00000000        0x0
 .text          0x00000000        0x0 /sdd/opt/microchip/xc32/v1.40/bin/bin/../../lib/gcc/pic32mx/4.8.3/../../../../pic32mx/lib/speed/libpic32.a(vector28.o)

.text           0x00000000        0x0
 .text          0x00000000        0x0 /sdd/opt/microchip/xc32/v1.40/bin/bin/../../lib/gcc/pic32mx/4.8.3/../../../../pic32mx/lib/speed/libpic32.a(vector27.o)

.text           0x00000000        0x0
 .text          0x00000000        0x0 /sdd/opt/microchip/xc32/v1.40/bin/bin/../../lib/gcc/pic32mx/4.8.3/../../../../pic32mx/lib/speed/libpic32.a(vector26.o)

.text           0x00000000        0x0
 .text          0x00000000        0x0 /sdd/opt/microchip/xc32/v1.40/bin/bin/../../lib/gcc/pic32mx/4.8.3/../../../../pic32mx/lib/speed/libpic32.a(vector25.o)

.text           0x00000000        0x0
 .text          0x00000000        0x0 /sdd/opt/microchip/xc32/v1.40/bin/bin/../../lib/gcc/pic32mx/4.8.3/../../../../pic32mx/lib/speed/libpic32.a(vector23.o)

.text           0x00000000        0x0
 .text          0x00000000        0x0 /sdd/opt/microchip/xc32/v1.40/bin/bin/../../lib/gcc/pic32mx/4.8.3/../../../../pic32mx/lib/speed/libpic32.a(vector22.o)

.text           0x00000000        0x0
 .text          0x00000000        0x0 /sdd/opt/microchip/xc32/v1.40/bin/bin/../../lib/gcc/pic32mx/4.8.3/../../../../pic32mx/lib/speed/libpic32.a(vector21.o)

.text           0x00000000        0x0
 .text          0x00000000        0x0 /sdd/opt/microchip/xc32/v1.40/bin/bin/../../lib/gcc/pic32mx/4.8.3/../../../../pic32mx/lib/speed/libpic32.a(vector20.o)

.text           0x00000000        0x0
 .text          0x00000000        0x0 /sdd/opt/microchip/xc32/v1.40/bin/bin/../../lib/gcc/pic32mx/4.8.3/../../../../pic32mx/lib/speed/libpic32.a(vector19.o)

.text           0x00000000        0x0
 .text          0x00000000        0x0 /sdd/opt/microchip/xc32/v1.40/bin/bin/../../lib/gcc/pic32mx/4.8.3/../../../../pic32mx/lib/speed/libpic32.a(vector18.o)

.text           0x00000000        0x0
 .text          0x00000000        0x0 /sdd/opt/microchip/xc32/v1.40/bin/bin/../../lib/gcc/pic32mx/4.8.3/../../../../pic32mx/lib/speed/libpic32.a(vector17.o)

.text           0x00000000        0x0
 .text          0x00000000        0x0 /sdd/opt/microchip/xc32/v1.40/bin/bin/../../lib/gcc/pic32mx/4.8.3/../../../../pic32mx/lib/speed/libpic32.a(vector16.o)

.text           0x00000000        0x0
 .text          0x00000000        0x0 /sdd/opt/microchip/xc32/v1.40/bin/bin/../../lib/gcc/pic32mx/4.8.3/../../../../pic32mx/lib/speed/libpic32.a(vector15.o)

.text           0x00000000        0x0
 .text          0x00000000        0x0 /sdd/opt/microchip/xc32/v1.40/bin/bin/../../lib/gcc/pic32mx/4.8.3/../../../../pic32mx/lib/speed/libpic32.a(vector14.o)

.text           0x00000000        0x0
 .text          0x00000000        0x0 /sdd/opt/microchip/xc32/v1.40/bin/bin/../../lib/gcc/pic32mx/4.8.3/../../../../pic32mx/lib/speed/libpic32.a(vector13.o)

.text           0x00000000        0x0
 .text          0x00000000        0x0 /sdd/opt/microchip/xc32/v1.40/bin/bin/../../lib/gcc/pic32mx/4.8.3/../../../../pic32mx/lib/speed/libpic32.a(vector12.o)

.text           0x00000000        0x0
 .text          0x00000000        0x0 /sdd/opt/microchip/xc32/v1.40/bin/bin/../../lib/gcc/pic32mx/4.8.3/../../../../pic32mx/lib/speed/libpic32.a(vector11.o)

.text           0x00000000        0x0
 .text          0x00000000        0x0 /sdd/opt/microchip/xc32/v1.40/bin/bin/../../lib/gcc/pic32mx/4.8.3/../../../../pic32mx/lib/speed/libpic32.a(vector10.o)

.text           0x00000000        0x0
 .text          0x00000000        0x0 /sdd/opt/microchip/xc32/v1.40/bin/bin/../../lib/gcc/pic32mx/4.8.3/../../../../pic32mx/lib/speed/libpic32.a(vector9.o)

.text           0x00000000        0x0
 .text          0x00000000        0x0 /sdd/opt/microchip/xc32/v1.40/bin/bin/../../lib/gcc/pic32mx/4.8.3/../../../../pic32mx/lib/speed/libpic32.a(vector8.o)

.text           0x00000000        0x0
 .text          0x00000000        0x0 /sdd/opt/microchip/xc32/v1.40/bin/bin/../../lib/gcc/pic32mx/4.8.3/../../../../pic32mx/lib/speed/libpic32.a(vector7.o)

.text           0x00000000        0x0
 .text          0x00000000        0x0 /sdd/opt/microchip/xc32/v1.40/bin/bin/../../lib/gcc/pic32mx/4.8.3/../../../../pic32mx/lib/speed/libpic32.a(vector6.o)

.text           0x00000000        0x0
 .text          0x00000000        0x0 /sdd/opt/microchip/xc32/v1.40/bin/bin/../../lib/gcc/pic32mx/4.8.3/../../../../pic32mx/lib/speed/libpic32.a(vector5.o)

.text           0x00000000        0x0
 .text          0x00000000        0x0 /sdd/opt/microchip/xc32/v1.40/bin/bin/../../lib/gcc/pic32mx/4.8.3/../../../../pic32mx/lib/speed/libpic32.a(vector3.o)

.text           0x00000000        0x0
 .text          0x00000000        0x0 /sdd/opt/microchip/xc32/v1.40/bin/bin/../../lib/gcc/pic32mx/4.8.3/../../../../pic32mx/lib/speed/libpic32.a(vector2.o)

.text           0x00000000        0x0
 .text          0x00000000        0x0 /sdd/opt/microchip/xc32/v1.40/bin/bin/../../lib/gcc/pic32mx/4.8.3/../../../../pic32mx/lib/speed/libpic32.a(vector1.o)

.text           0x00000000        0x0
 .text          0x00000000        0x0 /sdd/opt/microchip/xc32/v1.40/bin/bin/../../lib/gcc/pic32mx/4.8.3/../../../../pic32mx/lib/speed/libpic32.a(vector0.o)

.text           0x00000000        0x0
 .text          0x00000000        0x0 /sdd/opt/microchip/xc32/v1.40/bin/bin/../../lib/gcc/pic32mx/4.8.3/../../../../pic32mx/lib/speed/libpic32.a(general-exception.o)

.text           0x00000000        0x0
 .text          0x00000000        0x0 /sdd/opt/microchip/xc32/v1.40/bin/bin/../../lib/gcc/pic32mx/4.8.3/../../../../pic32mx/lib/speed/libpic32.a(default-on-bootstrap.o)

.text           0x00000000        0x0
 .text          0x00000000        0x0 /sdd/opt/microchip/xc32/v1.40/bin/bin/../../lib/gcc/pic32mx/4.8.3/../../../../pic32mx/lib/speed/libpic32.a(default-on-reset.o)

.text           0x00000000        0x0
 .text          0x00000000        0x0 /sdd/opt/microchip/xc32/v1.40/bin/bin/../../lib/gcc/pic32mx/4.8.3/../../../../pic32mx/lib/speed/libpic32.a(default-bootstrap-exception-handler.o)

.text           0x00000000        0x0
 .text          0x00000000        0x0 /sdd/opt/microchip/xc32/v1.40/bin/bin/../../lib/gcc/pic32mx/4.8.3/../../../../pic32mx/lib/speed/libmchp_peripheral_32MX795F512L.a(int_enable_interrupts_lib.o)

.text           0x00000000        0x0
 .text          0x00000000        0x0 /sdd/opt/microchip/xc32/v1.40/bin/bin/../../lib/gcc/pic32mx/4.8.3/../../../../pic32mx/lib/speed/libmchp_peripheral_32MX795F512L.a(uart_lib.o)

.text           0x00000000        0x0
 .text          0x00000000        0x0 /sdd/opt/microchip/xc32/v1.40/bin/bin/../../lib/gcc/pic32mx/4.8.3/../../../../pic32mx/lib/speed/libmchp_peripheral_32MX795F512L.a(_ports_tbl_libp.o)

.text           0x00000000        0x0
 .text          0x00000000        0x0 /sdd/opt/microchip/xc32/v1.40/bin/bin/../../lib/gcc/pic32mx/4.8.3/../../../../pic32mx/lib/speed/libmchp_peripheral_32MX795F512L.a(port_set_pins_digital_out_lib.o)

.text           0x00000000        0x0
 .text          0x00000000        0x0 /sdd/opt/microchip/xc32/v1.40/bin/bin/../../lib/gcc/pic32mx/4.8.3/../../../../pic32mx/lib/speed/libmchp_peripheral_32MX795F512L.a(port_set_pins_digital_in_lib.o)

.text           0x00000000        0x0
 .text          0x00000000        0x0 /sdd/opt/microchip/xc32/v1.40/bin/bin/../../lib/gcc/pic32mx/4.8.3/../../../../pic32mx/lib/speed/libmchp_peripheral_32MX795F512L.a(int_tbl_lib.o)

.text           0x00000000        0x0
 .text          0x00000000        0x0 /sdd/opt/microchip/xc32/v1.40/bin/bin/../../lib/gcc/pic32mx/4.8.3/../../../../pic32mx/lib/speed/libmchp_peripheral_32MX795F512L.a(int_enable_mv_int_lib.o)

.text           0x00000000        0x0
 .text          0x00000000        0x0 /sdd/opt/microchip/xc32/v1.40/bin/bin/../../lib/gcc/pic32mx/4.8.3/../../../../pic32mx/lib/speed/libmchp_peripheral_32MX795F512L.a(int_restore_interrupts_lib.o)

.text           0x00000000        0x0
 .text          0x00000000        0x0 /sdd/opt/microchip/xc32/v1.40/bin/bin/../../lib/gcc/pic32mx/4.8.3/../../../../pic32mx/lib/speed/libmchp_peripheral_32MX795F512L.a(int_disable_interrupts_lib.o)

.text           0x00000000        0x0
 .text          0x00000000        0x0 /sdd/opt/microchip/xc32/v1.40/bin/bin/../../lib/gcc/pic32mx/4.8.3/../../../../pic32mx/lib/speed/libmchp_peripheral_32MX795F512L.a(pcache.o)

.text           0x00000000        0x0
 .text          0x00000000        0x0 /sdd/opt/microchip/xc32/v1.40/bin/bin/../../lib/gcc/pic32mx/4.8.3/../../../../pic32mx/lib/speed/libmchp_peripheral_32MX795F512L.a(soft_reset_lib.o)

.text           0x00000000        0x0
 .text          0x00000000        0x0 /sdd/opt/microchip/xc32/v1.40/bin/bin/../../lib/gcc/pic32mx/4.8.3/../../../../pic32mx/lib/speed/libmchp_peripheral_32MX795F512L.a(eth_miim_access.o)

.text           0x00000000        0x0
 .text          0x00000000        0x0 /sdd/opt/microchip/xc32/v1.40/bin/bin/../../lib/gcc/pic32mx/4.8.3/../../../../pic32mx/lib/speed/libmchp_peripheral_32MX795F512L.a(_eth_append_busy_list_lib.o)

.text           0x00000000        0x0
 .text          0x00000000        0x0 /sdd/opt/microchip/xc32/v1.40/bin/bin/../../lib/gcc/pic32mx/4.8.3/../../../../pic32mx/lib/speed/libmchp_peripheral_32MX795F512L.a(eth_tx_packet_lib.o)

.text           0x00000000        0x0
 .text          0x00000000        0x0 /sdd/opt/microchip/xc32/v1.40/bin/bin/../../lib/gcc/pic32mx/4.8.3/../../../../pic32mx/lib/speed/libmchp_peripheral_32MX795F512L.a(eth_rx_set_buffer_size_lib.o)

.text           0x00000000        0x0
 .text          0x00000000        0x0 /sdd/opt/microchip/xc32/v1.40/bin/bin/../../lib/gcc/pic32mx/4.8.3/../../../../pic32mx/lib/speed/libmchp_peripheral_32MX795F512L.a(eth_rx_get_packet_lib.o)

.text           0x00000000        0x0
 .text          0x00000000        0x0 /sdd/opt/microchip/xc32/v1.40/bin/bin/../../lib/gcc/pic32mx/4.8.3/../../../../pic32mx/lib/speed/libmchp_peripheral_32MX795F512L.a(eth_rx_filters_lib.o)

.text           0x00000000        0x0
 .text          0x00000000        0x0 /sdd/opt/microchip/xc32/v1.40/bin/bin/../../lib/gcc/pic32mx/4.8.3/../../../../pic32mx/lib/speed/libmchp_peripheral_32MX795F512L.a(eth_rx_buffers_append_lib.o)

.text           0x00000000        0x0
 .text          0x00000000        0x0 /sdd/opt/microchip/xc32/v1.40/bin/bin/../../lib/gcc/pic32mx/4.8.3/../../../../pic32mx/lib/speed/libmchp_peripheral_32MX795F512L.a(eth_mac_set_address_max_lib.o)

.text           0x00000000        0x0
 .text          0x00000000        0x0 /sdd/opt/microchip/xc32/v1.40/bin/bin/../../lib/gcc/pic32mx/4.8.3/../../../../pic32mx/lib/speed/libmchp_peripheral_32MX795F512L.a(eth_mac_open_lib.o)

.text           0x00000000        0x0
 .text          0x00000000        0x0 /sdd/opt/microchip/xc32/v1.40/bin/bin/../../lib/gcc/pic32mx/4.8.3/../../../../pic32mx/lib/speed/libmchp_peripheral_32MX795F512L.a(eth_init_lib.o)

.text           0x00000000        0x0
 .text          0x00000000        0x0 /sdd/opt/microchip/xc32/v1.40/bin/bin/../../lib/gcc/pic32mx/4.8.3/../../../../pic32mx/lib/speed/libmchp_peripheral_32MX795F512L.a(eth_descriptors_add_lib.o)

.text           0x00000000        0x0
 .text          0x00000000        0x0 /sdd/opt/microchip/xc32/v1.40/bin/bin/../../lib/gcc/pic32mx/4.8.3/../../../../pic32mx/lib/speed/libmchp_peripheral_32MX795F512L.a(eth_ack_packet_lib.o)

.text           0x00000000        0x0
 .text          0x00000000        0x0 /sdd/opt/microchip/xc32/v1.40/bin/bin/../../lib/gcc/pic32mx/4.8.3/../../../../pic32mx/lib/speed/libmchp_peripheral.a(read_core_timer_lib.o)

.text           0x00000000        0x0
 .text          0x00000000        0x0 /sdd/opt/microchip/xc32/v1.40/bin/bin/../../lib/gcc/pic32mx/4.8.3/../../../../pic32mx/lib/./proc/32MX795F512L/processor.o

.text           0x00000000        0x0
 .text          0x00000000        0x0 /sdd/opt/microchip/xc32/v1.40/bin/bin/../../lib/gcc/pic32mx/4.8.3/../../../../pic32mx/lib/./proc/32MX795F512L/default_isr_vectors.o

.text           0x00000000        0x0
 .text          0x00000000        0x0 build/default/production/_ext/1472/CustomSSLCert.o

.text           0x00000000        0x0
 .text          0x00000000        0x0 build/default/production/_ext/1472/CustomSNMPApp.o

.text           0x00000000        0x0
 .text          0x00000000        0x0 build/default/production/_ext/1295770447/BigInt_helper_C32.o

.text           0x00000000        0x0
 .text          0x00000000        0x0 build/default/production/_ext/1472/MPFSImg.o

.text           0x00000000        0x0
 .text          0x00000000        0x0 build/default/production/_ext/1472/MPFSImg2.o

.text           0x00000000        0x0
 .text          0x00000000        0x0 build/default/production/_ext/1295770447/ZeroconfMulticastDNS.o

.text           0x00000000        0x0
 .text          0x00000000        0x0 build/default/production/_ext/1295770447/ZeroconfLinkLocal.o

.text           0x00000000        0x0
 .text          0x00000000        0x0 build/default/production/_ext/1295770447/ZeroconfHelper.o

.text           0x00000000        0x0
 .text          0x00000000        0x0 build/default/production/_ext/1295770447/UDPPerformanceTest.o

.text           0x00000000        0x0
 .text          0x00000000        0x0 build/default/production/_ext/1295770447/UART.o

.text           0x00000000        0x0
 .text          0x00000000        0x0 build/default/production/_ext/1295770447/UART2TCPBridge.o

.text           0x00000000        0x0
 .text          0x00000000        0x0 build/default/production/_ext/1295770447/TFTPc.o

.text           0x00000000        0x0
 .text          0x00000000        0x0 build/default/production/_ext/1295770447/SSL.o

.text           0x00000000        0x0
 .text          0x00000000        0x0 build/default/production/_ext/1295770447/SPIRAM.o

.text           0x00000000        0x0
 .text          0x00000000        0x0 build/default/production/_ext/1295770447/SPIFlash.o

.text           0x00000000        0x0
 .text          0x00000000        0x0 build/default/production/_ext/1295770447/SPIEEPROM.o

.text           0x00000000        0x0
 .text          0x00000000        0x0 build/default/production/_ext/1295770447/SNMPv3USM.o

.text           0x00000000        0x0
 .text          0x00000000        0x0 build/default/production/_ext/1295770447/SNMPv3.o

.text           0x00000000        0x0
 .text          0x00000000        0x0 build/default/production/_ext/1295770447/SNMP.o

.text           0x00000000        0x0
 .text          0x00000000        0x0 build/default/production/_ext/1295770447/RSA.o

.text           0x00000000        0x0
 .text          0x00000000        0x0 build/default/production/_ext/1295770447/Random.o

.text           0x00000000        0x0
 .text          0x00000000        0x0 build/default/production/_ext/1295770447/MPFS.o

.text           0x00000000        0x0
 .text          0x00000000        0x0 build/default/production/_ext/1295770447/LCDBlocking.o

.text           0x00000000        0x0
 .text          0x00000000        0x0 build/default/production/_ext/1295770447/HTTP.o

.text           0x00000000        0x0
 .text          0x00000000        0x0 build/default/production/_ext/1295770447/FTP.o

.text           0x00000000        0x0
 .text          0x00000000        0x0 build/default/production/_ext/1295770447/FileSystem.o

.text           0x00000000        0x0
 .text          0x00000000        0x0 build/default/production/_ext/1295770447/ENCX24J600.o

.text           0x00000000        0x0
 .text          0x00000000        0x0 build/default/production/_ext/1295770447/ENC28J60.o

.text           0x00000000        0x0
 .text          0x00000000        0x0 build/default/production/_ext/1295770447/DNSs.o

.text           0x00000000        0x0
 .text          0x00000000        0x0 build/default/production/_ext/1295770447/BigInt.o

.text           0x00000000        0x0
 .text          0x00000000        0x0 build/default/production/_ext/1295770447/ARCFOUR.o

.text           0x00000000        0x0
 .text          0x00000000        0x0 build/default/production/_ext/1472/UARTConfig.o

.text           0x00000000        0x0
 .text          0x00000000        0x0 build/default/production/_ext/1472/LegacyHTTPApp.o

.text           0x00000000        0x0
 .text          0x00000000        0x0 /sdd/opt/microchip/xc32/v1.40/bin/bin/../../lib/gcc/pic32mx/4.8.3/../../../../pic32mx/lib/speed/debug-exception-return.o

.text           0x00000000        0x0
 .text          0x00000000        0x0 /sdd/opt/microchip/xc32/v1.40/bin/bin/../../lib/gcc/pic32mx/4.8.3/../../../../pic32mx/lib/./proc/32MX795F512L/crt0_mips32r2.o
