Archive member included because of file (symbol)

/opt/microchip/mplabc32/v2.02/bin/../lib/gcc/pic32mx/4.5.1/speed/libgcc.a(_udivdi3.o)
                              build/default/production/_ext/1295770447/AutoIP.o (__udivdi3)
/opt/microchip/mplabc32/v2.02/bin/../lib/gcc/pic32mx/4.5.1/speed/libgcc.a(floatunsisf.o)
                              build/default/production/_ext/1472/CustomHTTPApp.o (__floatunsisf)
/opt/microchip/mplabc32/v2.02/bin/../lib/gcc/pic32mx/4.5.1/../../../../pic32mx/lib/speed/liblega-c.a(memcmp.o)
                              build/default/production/_ext/1295770447/ETHPIC32IntMac.o (memcmp)
/opt/microchip/mplabc32/v2.02/bin/../lib/gcc/pic32mx/4.5.1/../../../../pic32mx/lib/speed/liblega-c.a(memcpy.o)
                              build/default/production/_ext/1295770447/BerkeleyAPI.o (memcpy)
/opt/microchip/mplabc32/v2.02/bin/../lib/gcc/pic32mx/4.5.1/../../../../pic32mx/lib/speed/liblega-c.a(memset.o)
                              build/default/production/_ext/1295770447/TCP.o (memset)
/opt/microchip/mplabc32/v2.02/bin/../lib/gcc/pic32mx/4.5.1/../../../../pic32mx/lib/speed/liblega-c.a(strcmp.o)
                              build/default/production/_ext/1295770447/DynDNS.o (strcmp)
/opt/microchip/mplabc32/v2.02/bin/../lib/gcc/pic32mx/4.5.1/../../../../pic32mx/lib/speed/liblega-c.a(strcpy.o)
                              build/default/production/_ext/1472/CustomHTTPApp.o (strcpy)
/opt/microchip/mplabc32/v2.02/bin/../lib/gcc/pic32mx/4.5.1/../../../../pic32mx/lib/speed/liblega-c.a(strlen.o)
                              build/default/production/_ext/1472/BerkeleyTCPClientDemo.o (strlen)
/opt/microchip/mplabc32/v2.02/bin/../lib/gcc/pic32mx/4.5.1/../../../../pic32mx/lib/speed/liblega-c.a(legacy-general-exception.o)
                              /opt/microchip/mplabc32/v2.02/bin/../lib/gcc/pic32mx/4.5.1/../../../../pic32mx/lib/speed/crt0.o (_general_exception_context)
/opt/microchip/mplabc32/v2.02/bin/../lib/gcc/pic32mx/4.5.1/../../../../pic32mx/lib/speed/liblega-c.a(strcat.o)
                              build/default/production/_ext/1472/CustomHTTPApp.o (strcat)
/opt/microchip/mplabc32/v2.02/bin/../lib/gcc/pic32mx/4.5.1/../../../../pic32mx/lib/speed/liblega-c.a(strncat.o)
                              build/default/production/_ext/1472/GenericTCPServer.o (strncat)
/opt/microchip/mplabc32/v2.02/bin/../lib/gcc/pic32mx/4.5.1/../../../../pic32mx/lib/speed/liblega-c.a(strchr.o)
                              build/default/production/_ext/1295770447/SMTP.o (strchr)
/opt/microchip/mplabc32/v2.02/bin/../lib/gcc/pic32mx/4.5.1/../../../../pic32mx/lib/speed/liblega-c.a(strstr.o)
                              build/default/production/_ext/1295770447/SMTP.o (strstr)
/opt/microchip/mplabc32/v2.02/bin/../lib/gcc/pic32mx/4.5.1/../../../../pic32mx/lib/speed/liblega-c.a(malloc_calloc.o)
                              build/default/production/_ext/1295770447/ETHPIC32IntMac.o (calloc)
/opt/microchip/mplabc32/v2.02/bin/../lib/gcc/pic32mx/4.5.1/../../../../pic32mx/lib/speed/liblega-c.a(strtol.o)
                              build/default/production/_ext/1295770447/HTTP2.o (strtol)
/opt/microchip/mplabc32/v2.02/bin/../lib/gcc/pic32mx/4.5.1/../../../../pic32mx/lib/speed/liblega-c.a(sprintf.o)
                              build/default/production/_ext/1295770447/Telnet.o (sprintf)
/opt/microchip/mplabc32/v2.02/bin/../lib/gcc/pic32mx/4.5.1/../../../../pic32mx/lib/speed/liblega-c.a(sscanf.o)
                              build/default/production/_ext/1472/GenericTCPServer.o (sscanf)
/opt/microchip/mplabc32/v2.02/bin/../lib/gcc/pic32mx/4.5.1/../../../../pic32mx/lib/speed/liblega-c.a(vsscanf.o)
                              /opt/microchip/mplabc32/v2.02/bin/../lib/gcc/pic32mx/4.5.1/../../../../pic32mx/lib/speed/liblega-c.a(sscanf.o) (vsscanf)
/opt/microchip/mplabc32/v2.02/bin/../lib/gcc/pic32mx/4.5.1/../../../../pic32mx/lib/speed/liblega-c.a(__vsnprintf.o)
                              /opt/microchip/mplabc32/v2.02/bin/../lib/gcc/pic32mx/4.5.1/../../../../pic32mx/lib/speed/liblega-c.a(sprintf.o) (__vsnprintf)
/opt/microchip/mplabc32/v2.02/bin/../lib/gcc/pic32mx/4.5.1/../../../../pic32mx/lib/speed/liblega-c.a(gmtime.o)
                              build/default/production/_ext/1472/CustomHTTPApp.o (gmtime)
/opt/microchip/mplabc32/v2.02/bin/../lib/gcc/pic32mx/4.5.1/../../../../pic32mx/lib/speed/liblega-c.a(offtime.o)
                              /opt/microchip/mplabc32/v2.02/bin/../lib/gcc/pic32mx/4.5.1/../../../../pic32mx/lib/speed/liblega-c.a(gmtime.o) (offtime_r)
/opt/microchip/mplabc32/v2.02/bin/../lib/gcc/pic32mx/4.5.1/../../../../pic32mx/lib/speed/liblega-c.a(asctime.o)
                              build/default/production/_ext/1472/CustomHTTPApp.o (asctime)
/opt/microchip/mplabc32/v2.02/bin/../lib/gcc/pic32mx/4.5.1/../../../../pic32mx/lib/speed/liblega-c.a(stubs.o)
                              /opt/microchip/mplabc32/v2.02/bin/../lib/gcc/pic32mx/4.5.1/../../../../pic32mx/lib/speed/liblega-c.a(gmtime.o) (_libc_private_storage)
/opt/microchip/mplabc32/v2.02/bin/../lib/gcc/pic32mx/4.5.1/../../../../pic32mx/lib/speed/liblega-c.a(default-bootstrap-exception-handler.o)
                              /opt/microchip/mplabc32/v2.02/bin/../lib/gcc/pic32mx/4.5.1/../../../../pic32mx/lib/speed/crt0.o (_bootstrap_exception_handler)
/opt/microchip/mplabc32/v2.02/bin/../lib/gcc/pic32mx/4.5.1/../../../../pic32mx/lib/speed/liblega-c.a(default-on-reset.o)
                              /opt/microchip/mplabc32/v2.02/bin/../lib/gcc/pic32mx/4.5.1/../../../../pic32mx/lib/speed/crt0.o (_on_reset)
/opt/microchip/mplabc32/v2.02/bin/../lib/gcc/pic32mx/4.5.1/../../../../pic32mx/lib/speed/liblega-c.a(default-on-bootstrap.o)
                              /opt/microchip/mplabc32/v2.02/bin/../lib/gcc/pic32mx/4.5.1/../../../../pic32mx/lib/speed/crt0.o (_on_bootstrap)
/opt/microchip/mplabc32/v2.02/bin/../lib/gcc/pic32mx/4.5.1/../../../../pic32mx/lib/speed/liblega-c.a(default-nmi-handler.o)
                              /opt/microchip/mplabc32/v2.02/bin/../lib/gcc/pic32mx/4.5.1/../../../../pic32mx/lib/speed/crt0.o (_nmi_handler)
/opt/microchip/mplabc32/v2.02/bin/../lib/gcc/pic32mx/4.5.1/../../../../pic32mx/lib/speed/liblega-c.a(ctype.o)
                              /opt/microchip/mplabc32/v2.02/bin/../lib/gcc/pic32mx/4.5.1/../../../../pic32mx/lib/speed/liblega-c.a(strtol.o) (_ctype)
/opt/microchip/mplabc32/v2.02/bin/../lib/gcc/pic32mx/4.5.1/../../../../pic32mx/lib/speed/liblega-c.a(malloc.o)
                              /opt/microchip/mplabc32/v2.02/bin/../lib/gcc/pic32mx/4.5.1/../../../../pic32mx/lib/speed/liblega-c.a(malloc_calloc.o) (malloc_av_)
/opt/microchip/mplabc32/v2.02/bin/../lib/gcc/pic32mx/4.5.1/../../../../pic32mx/lib/speed/liblega-c.a(errno.o)
                              /opt/microchip/mplabc32/v2.02/bin/../lib/gcc/pic32mx/4.5.1/../../../../pic32mx/lib/speed/liblega-c.a(strtol.o) (errno)
/opt/microchip/mplabc32/v2.02/bin/../lib/gcc/pic32mx/4.5.1/../../../../pic32mx/lib/speed/liblega-c.a(_doprnt.o)
                              /opt/microchip/mplabc32/v2.02/bin/../lib/gcc/pic32mx/4.5.1/../../../../pic32mx/lib/speed/liblega-c.a(__vsnprintf.o) (vfprintf)
/opt/microchip/mplabc32/v2.02/bin/../lib/gcc/pic32mx/4.5.1/../../../../pic32mx/lib/speed/liblega-c.a(_doscan.o)
                              /opt/microchip/mplabc32/v2.02/bin/../lib/gcc/pic32mx/4.5.1/../../../../pic32mx/lib/speed/liblega-c.a(vsscanf.o) (vfscanf)
/opt/microchip/mplabc32/v2.02/bin/../lib/gcc/pic32mx/4.5.1/../../../../pic32mx/lib/speed/liblega-c.a(_iobdata.o)
                              /opt/microchip/mplabc32/v2.02/bin/../lib/gcc/pic32mx/4.5.1/../../../../pic32mx/lib/speed/liblega-c.a(_doprnt.o) (_libc_data)
/opt/microchip/mplabc32/v2.02/bin/../lib/gcc/pic32mx/4.5.1/../../../../pic32mx/lib/speed/liblega-c.a(_iobfuncs.o)
                              /opt/microchip/mplabc32/v2.02/bin/../lib/gcc/pic32mx/4.5.1/../../../../pic32mx/lib/speed/liblega-c.a(_iobdata.o) (_filbuf_simple)
/opt/microchip/mplabc32/v2.02/bin/../lib/gcc/pic32mx/4.5.1/../../../../pic32mx/lib/speed/liblega-c.a(_iobstring.o)
                              /opt/microchip/mplabc32/v2.02/bin/../lib/gcc/pic32mx/4.5.1/../../../../pic32mx/lib/speed/liblega-c.a(vsscanf.o) (_io_strfuncs)
/opt/microchip/mplabc32/v2.02/bin/../lib/gcc/pic32mx/4.5.1/../../../../pic32mx/lib/speed/liblega-c.a(fgetc.o)
                              /opt/microchip/mplabc32/v2.02/bin/../lib/gcc/pic32mx/4.5.1/../../../../pic32mx/lib/speed/liblega-c.a(_doscan.o) (fgetc)
/opt/microchip/mplabc32/v2.02/bin/../lib/gcc/pic32mx/4.5.1/../../../../pic32mx/lib/speed/liblega-c.a(fputc.o)
                              /opt/microchip/mplabc32/v2.02/bin/../lib/gcc/pic32mx/4.5.1/../../../../pic32mx/lib/speed/liblega-c.a(_doprnt.o) (fputc)
/opt/microchip/mplabc32/v2.02/bin/../lib/gcc/pic32mx/4.5.1/../../../../pic32mx/lib/speed/liblega-c.a(ungetc.o)
                              /opt/microchip/mplabc32/v2.02/bin/../lib/gcc/pic32mx/4.5.1/../../../../pic32mx/lib/speed/liblega-c.a(_doscan.o) (ungetc)
/opt/microchip/mplabc32/v2.02/bin/../lib/gcc/pic32mx/4.5.1/../../../../pic32mx/lib/speed/liblega-c.a(sbrk.o)
                              /opt/microchip/mplabc32/v2.02/bin/../lib/gcc/pic32mx/4.5.1/../../../../pic32mx/lib/speed/liblega-c.a(malloc.o) (getpagesize)
/opt/microchip/mplabc32/v2.02/bin/../lib/gcc/pic32mx/4.5.1/../../../../pic32mx/lib/speed/liblega-c.a(_mon_getc.o)
                              /opt/microchip/mplabc32/v2.02/bin/../lib/gcc/pic32mx/4.5.1/../../../../pic32mx/lib/speed/liblega-c.a(_iobfuncs.o) (_mon_getc)
/opt/microchip/mplabc32/v2.02/bin/../lib/gcc/pic32mx/4.5.1/../../../../pic32mx/lib/speed/liblega-c.a(_mon_write.o)
                              /opt/microchip/mplabc32/v2.02/bin/../lib/gcc/pic32mx/4.5.1/../../../../pic32mx/lib/speed/liblega-c.a(_iobfuncs.o) (_mon_write)
/opt/microchip/mplabc32/v2.02/bin/../lib/gcc/pic32mx/4.5.1/../../../../pic32mx/lib/speed/liblega-c.a(malloc_realloc.o)
                              /opt/microchip/mplabc32/v2.02/bin/../lib/gcc/pic32mx/4.5.1/../../../../pic32mx/lib/speed/liblega-c.a(_doscan.o) (realloc)
/opt/microchip/mplabc32/v2.02/bin/../lib/gcc/pic32mx/4.5.1/../../../../pic32mx/lib/speed/liblega-c.a(strtoul.o)
                              /opt/microchip/mplabc32/v2.02/bin/../lib/gcc/pic32mx/4.5.1/../../../../pic32mx/lib/speed/liblega-c.a(_doscan.o) (strtoul)
/opt/microchip/mplabc32/v2.02/bin/../lib/gcc/pic32mx/4.5.1/../../../../pic32mx/lib/speed/liblega-c.a(strtoll.o)
                              /opt/microchip/mplabc32/v2.02/bin/../lib/gcc/pic32mx/4.5.1/../../../../pic32mx/lib/speed/liblega-c.a(_doscan.o) (strtoll)
/opt/microchip/mplabc32/v2.02/bin/../lib/gcc/pic32mx/4.5.1/../../../../pic32mx/lib/speed/liblega-c.a(strtoull.o)
                              /opt/microchip/mplabc32/v2.02/bin/../lib/gcc/pic32mx/4.5.1/../../../../pic32mx/lib/speed/liblega-c.a(_doscan.o) (strtoull)
/opt/microchip/mplabc32/v2.02/bin/../lib/gcc/pic32mx/4.5.1/../../../../pic32mx/lib/speed/liblega-c.a(strtod.o)
                              /opt/microchip/mplabc32/v2.02/bin/../lib/gcc/pic32mx/4.5.1/../../../../pic32mx/lib/speed/liblega-c.a(_doscan.o) (strtod)
/opt/microchip/mplabc32/v2.02/bin/../lib/gcc/pic32mx/4.5.1/../../../../pic32mx/lib/speed/liblega-c.a(strtof.o)
                              /opt/microchip/mplabc32/v2.02/bin/../lib/gcc/pic32mx/4.5.1/../../../../pic32mx/lib/speed/liblega-c.a(_doscan.o) (strtof)
/opt/microchip/mplabc32/v2.02/bin/../lib/gcc/pic32mx/4.5.1/../../../../pic32mx/lib/speed/liblega-c.a(fullexit.o)
                              /opt/microchip/mplabc32/v2.02/bin/../lib/gcc/pic32mx/4.5.1/../../../../pic32mx/lib/speed/liblega-c.a(_doprnt.o) (__exfun_mx)
/opt/microchip/mplabc32/v2.02/bin/../lib/gcc/pic32mx/4.5.1/../../../../pic32mx/lib/speed/liblega-c.a(_ioinit.o)
                              /opt/microchip/mplabc32/v2.02/bin/../lib/gcc/pic32mx/4.5.1/../../../../pic32mx/lib/speed/liblega-c.a(ungetc.o) (_i_init)
/opt/microchip/mplabc32/v2.02/bin/../lib/gcc/pic32mx/4.5.1/../../../../pic32mx/lib/speed/liblega-c.a(_cleanup.o)
                              /opt/microchip/mplabc32/v2.02/bin/../lib/gcc/pic32mx/4.5.1/../../../../pic32mx/lib/speed/liblega-c.a(_ioinit.o) (_cleanup)
/opt/microchip/mplabc32/v2.02/bin/../lib/gcc/pic32mx/4.5.1/../../../../pic32mx/lib/speed/liblega-c.a(_exit.o)
                              /opt/microchip/mplabc32/v2.02/bin/../lib/gcc/pic32mx/4.5.1/../../../../pic32mx/lib/speed/liblega-c.a(fullexit.o) (_exit)
/opt/microchip/mplabc32/v2.02/bin/../lib/gcc/pic32mx/4.5.1/../../../../pic32mx/lib/speed/liblega-c.a(isatty.o)
                              /opt/microchip/mplabc32/v2.02/bin/../lib/gcc/pic32mx/4.5.1/../../../../pic32mx/lib/speed/liblega-c.a(_ioinit.o) (isatty)
/opt/microchip/mplabc32/v2.02/bin/../lib/gcc/pic32mx/4.5.1/../../../../pic32mx/lib/speed/liblega-c.a(_mon_putc.o)
                              /opt/microchip/mplabc32/v2.02/bin/../lib/gcc/pic32mx/4.5.1/../../../../pic32mx/lib/speed/liblega-c.a(_mon_write.o) (_mon_putc)
/opt/microchip/mplabc32/v2.02/bin/../lib/gcc/pic32mx/4.5.1/../../../../pic32mx/lib/speed/liblega-c.a(memmove.o)
                              /opt/microchip/mplabc32/v2.02/bin/../lib/gcc/pic32mx/4.5.1/../../../../pic32mx/lib/speed/liblega-c.a(malloc_realloc.o) (memmove)
/opt/microchip/mplabc32/v2.02/bin/../lib/gcc/pic32mx/4.5.1/../../../../pic32mx/lib/speed/liblega-c.a(_bufproc.o)
                              /opt/microchip/mplabc32/v2.02/bin/../lib/gcc/pic32mx/4.5.1/../../../../pic32mx/lib/speed/liblega-c.a(_ioinit.o) (_bufalloc)
/opt/microchip/mplabc32/v2.02/bin/../lib/gcc/pic32mx/4.5.1/../../../../pic32mx/lib/speed/libm.a(mod32.o)
                              /opt/microchip/mplabc32/v2.02/bin/../lib/gcc/pic32mx/4.5.1/../../../../pic32mx/lib/speed/liblega-c.a(_doprnt.o) (modf)
/opt/microchip/mplabc32/v2.02/bin/../lib/gcc/pic32mx/4.5.1/../../../../pic32mx/lib/speed/libm.a(w_log10.o)
                              build/default/production/_ext/1472/CustomHTTPApp.o (log10)
/opt/microchip/mplabc32/v2.02/bin/../lib/gcc/pic32mx/4.5.1/../../../../pic32mx/lib/speed/libm.a(dp32.o)
                              build/default/production/_ext/1472/CustomHTTPApp.o (dpsub)
/opt/microchip/mplabc32/v2.02/bin/../lib/gcc/pic32mx/4.5.1/../../../../pic32mx/lib/speed/libm.a(fp32.o)
                              /opt/microchip/mplabc32/v2.02/bin/../lib/gcc/pic32mx/4.5.1/speed/libgcc.a(floatunsisf.o) (fpadd)
/opt/microchip/mplabc32/v2.02/bin/../lib/gcc/pic32mx/4.5.1/../../../../pic32mx/lib/speed/libm.a(s_lib_ver.o)
                              /opt/microchip/mplabc32/v2.02/bin/../lib/gcc/pic32mx/4.5.1/../../../../pic32mx/lib/speed/libm.a(w_log10.o) (math_errhandling)
/opt/microchip/mplabc32/v2.02/bin/../lib/gcc/pic32mx/4.5.1/../../../../pic32mx/lib/speed/libm.a(log32.o)
                              /opt/microchip/mplabc32/v2.02/bin/../lib/gcc/pic32mx/4.5.1/../../../../pic32mx/lib/speed/libm.a(w_log10.o) (__mchp_log10)
/opt/microchip/mplabc32/v2.02/bin/../lib/gcc/pic32mx/4.5.1/../../../../pic32mx/lib/speed/libm.a(func32.o)
                              /opt/microchip/mplabc32/v2.02/bin/../lib/gcc/pic32mx/4.5.1/../../../../pic32mx/lib/speed/libm.a(log32.o) (sigmax)
/opt/microchip/mplabc32/v2.02/bin/../lib/gcc/pic32mx/4.5.1/../../../../pic32mx/lib/speed/libe.a(_strtod.o)
                              /opt/microchip/mplabc32/v2.02/bin/../lib/gcc/pic32mx/4.5.1/../../../../pic32mx/lib/speed/liblega-c.a(strtod.o) (__strtod)
/opt/microchip/mplabc32/v2.02/bin/../lib/gcc/pic32mx/4.5.1/../../../../pic32mx/lib/speed/libe.a(_strtof.o)
                              /opt/microchip/mplabc32/v2.02/bin/../lib/gcc/pic32mx/4.5.1/../../../../pic32mx/lib/speed/liblega-c.a(strtof.o) (__strtof)
/opt/microchip/mplabc32/v2.02/bin/../lib/gcc/pic32mx/4.5.1/../../../../pic32mx/lib/speed/libe.a(_ldexp.o)
                              /opt/microchip/mplabc32/v2.02/bin/../lib/gcc/pic32mx/4.5.1/../../../../pic32mx/lib/speed/libe.a(_strtod.o) (__ldexp)
/opt/microchip/mplabc32/v2.02/bin/../lib/gcc/pic32mx/4.5.1/../../../../pic32mx/lib/speed/libe.a(_ldexpf.o)
                              /opt/microchip/mplabc32/v2.02/bin/../lib/gcc/pic32mx/4.5.1/../../../../pic32mx/lib/speed/libe.a(_strtof.o) (__ldexpf)
/opt/microchip/mplabc32/v2.02/bin/../lib/gcc/pic32mx/4.5.1/../../../../pic32mx/lib/speed/libmchp_peripheral.a(read_core_timer_lib.o)
                              build/default/production/_ext/1295770447/ETHPIC32ExtPhy.o (ReadCoreTimer)
/opt/microchip/mplabc32/v2.02/bin/../lib/gcc/pic32mx/4.5.1/../../../../pic32mx/lib/speed/libmchp_peripheral_32MX795F512L.a(eth_ack_packet_lib.o)
                              build/default/production/_ext/1295770447/ETHPIC32IntMac.o (EthRxAcknowledgeBuffer)
/opt/microchip/mplabc32/v2.02/bin/../lib/gcc/pic32mx/4.5.1/../../../../pic32mx/lib/speed/libmchp_peripheral_32MX795F512L.a(eth_descriptors_add_lib.o)
                              build/default/production/_ext/1295770447/ETHPIC32IntMac.o (EthDescriptorsPoolAdd)
/opt/microchip/mplabc32/v2.02/bin/../lib/gcc/pic32mx/4.5.1/../../../../pic32mx/lib/speed/libmchp_peripheral_32MX795F512L.a(eth_init_lib.o)
                              build/default/production/_ext/1295770447/ETHPIC32IntMac.o (EthInit)
/opt/microchip/mplabc32/v2.02/bin/../lib/gcc/pic32mx/4.5.1/../../../../pic32mx/lib/speed/libmchp_peripheral_32MX795F512L.a(eth_mac_open_lib.o)
                              build/default/production/_ext/1295770447/ETHPIC32IntMac.o (EthMACOpen)
/opt/microchip/mplabc32/v2.02/bin/../lib/gcc/pic32mx/4.5.1/../../../../pic32mx/lib/speed/libmchp_peripheral_32MX795F512L.a(eth_mac_set_address_max_lib.o)
                              build/default/production/_ext/1295770447/ETHPIC32IntMac.o (EthMACSetAddress)
/opt/microchip/mplabc32/v2.02/bin/../lib/gcc/pic32mx/4.5.1/../../../../pic32mx/lib/speed/libmchp_peripheral_32MX795F512L.a(eth_rx_buffers_append_lib.o)
                              build/default/production/_ext/1295770447/ETHPIC32IntMac.o (EthRxBuffersAppend)
/opt/microchip/mplabc32/v2.02/bin/../lib/gcc/pic32mx/4.5.1/../../../../pic32mx/lib/speed/libmchp_peripheral_32MX795F512L.a(eth_rx_filters_lib.o)
                              build/default/production/_ext/1295770447/ETHPIC32IntMac.o (EthRxFiltersSet)
/opt/microchip/mplabc32/v2.02/bin/../lib/gcc/pic32mx/4.5.1/../../../../pic32mx/lib/speed/libmchp_peripheral_32MX795F512L.a(eth_rx_get_packet_lib.o)
                              build/default/production/_ext/1295770447/ETHPIC32IntMac.o (EthRxGetBuffer)
/opt/microchip/mplabc32/v2.02/bin/../lib/gcc/pic32mx/4.5.1/../../../../pic32mx/lib/speed/libmchp_peripheral_32MX795F512L.a(eth_rx_set_buffer_size_lib.o)
                              build/default/production/_ext/1295770447/ETHPIC32IntMac.o (EthRxSetBufferSize)
/opt/microchip/mplabc32/v2.02/bin/../lib/gcc/pic32mx/4.5.1/../../../../pic32mx/lib/speed/libmchp_peripheral_32MX795F512L.a(eth_tx_packet_lib.o)
                              build/default/production/_ext/1295770447/ETHPIC32IntMac.o (EthTxSendBuffer)
/opt/microchip/mplabc32/v2.02/bin/../lib/gcc/pic32mx/4.5.1/../../../../pic32mx/lib/speed/libmchp_peripheral_32MX795F512L.a(_eth_append_busy_list_lib.o)
                              /opt/microchip/mplabc32/v2.02/bin/../lib/gcc/pic32mx/4.5.1/../../../../pic32mx/lib/speed/libmchp_peripheral_32MX795F512L.a(eth_ack_packet_lib.o) (_EthAppendBusyList)
/opt/microchip/mplabc32/v2.02/bin/../lib/gcc/pic32mx/4.5.1/../../../../pic32mx/lib/speed/libmchp_peripheral_32MX795F512L.a(eth_miim_access.o)
                              build/default/production/_ext/1295770447/ETHPIC32ExtPhy.o (EthMIIMReadStart)
/opt/microchip/mplabc32/v2.02/bin/../lib/gcc/pic32mx/4.5.1/../../../../pic32mx/lib/speed/libmchp_peripheral_32MX795F512L.a(soft_reset_lib.o)
                              build/default/production/_ext/1295770447/Reboot.o (SoftReset)
/opt/microchip/mplabc32/v2.02/bin/../lib/gcc/pic32mx/4.5.1/../../../../pic32mx/lib/speed/libmchp_peripheral_32MX795F512L.a(pcache.o)
                              build/default/production/_ext/1472/MainDemo.o (CheKseg0CacheOn)
/opt/microchip/mplabc32/v2.02/bin/../lib/gcc/pic32mx/4.5.1/../../../../pic32mx/lib/speed/libmchp_peripheral_32MX795F512L.a(int_disable_interrupts_lib.o)
                              build/default/production/_ext/1472/MainDemo.o (INTDisableInterrupts)
/opt/microchip/mplabc32/v2.02/bin/../lib/gcc/pic32mx/4.5.1/../../../../pic32mx/lib/speed/libmchp_peripheral_32MX795F512L.a(int_restore_interrupts_lib.o)
                              build/default/production/_ext/1472/MainDemo.o (INTRestoreInterrupts)
/opt/microchip/mplabc32/v2.02/bin/../lib/gcc/pic32mx/4.5.1/../../../../pic32mx/lib/speed/libmchp_peripheral_32MX795F512L.a(int_enable_mv_int_lib.o)
                              build/default/production/_ext/1472/MainDemo.o (INTEnableSystemMultiVectoredInt)
/opt/microchip/mplabc32/v2.02/bin/../lib/gcc/pic32mx/4.5.1/../../../../pic32mx/lib/speed/libmchp_peripheral_32MX795F512L.a(int_tbl_lib.o)
                              build/default/production/_ext/1472/mbmc.o (INTClearFlag)
/opt/microchip/mplabc32/v2.02/bin/../lib/gcc/pic32mx/4.5.1/../../../../pic32mx/lib/speed/libmchp_peripheral_32MX795F512L.a(port_set_pins_digital_in_lib.o)
                              build/default/production/_ext/1295770447/ETHPIC32ExtPhy.o (PORTSetPinsDigitalIn)
/opt/microchip/mplabc32/v2.02/bin/../lib/gcc/pic32mx/4.5.1/../../../../pic32mx/lib/speed/libmchp_peripheral_32MX795F512L.a(port_set_pins_digital_out_lib.o)
                              build/default/production/_ext/1295770447/ETHPIC32ExtPhy.o (PORTSetPinsDigitalOut)
/opt/microchip/mplabc32/v2.02/bin/../lib/gcc/pic32mx/4.5.1/../../../../pic32mx/lib/speed/libmchp_peripheral_32MX795F512L.a(_ports_tbl_libp.o)
                              /opt/microchip/mplabc32/v2.02/bin/../lib/gcc/pic32mx/4.5.1/../../../../pic32mx/lib/speed/libmchp_peripheral_32MX795F512L.a(port_set_pins_digital_in_lib.o) (PortRegTbl)
/opt/microchip/mplabc32/v2.02/bin/../lib/gcc/pic32mx/4.5.1/../../../../pic32mx/lib/speed/libmchp_peripheral_32MX795F512L.a(uart_lib.o)
                              build/default/production/_ext/1472/mbmc.o (UARTEnable)
/opt/microchip/mplabc32/v2.02/bin/../lib/gcc/pic32mx/4.5.1/../../../../pic32mx/lib/speed/libmchp_peripheral_32MX795F512L.a(int_enable_interrupts_lib.o)
                              /opt/microchip/mplabc32/v2.02/bin/../lib/gcc/pic32mx/4.5.1/../../../../pic32mx/lib/speed/libmchp_peripheral_32MX795F512L.a(int_enable_mv_int_lib.o) (INTEnableInterrupts)
/opt/microchip/mplabc32/v2.02/bin/../lib/gcc/pic32mx/4.5.1/../../../../pic32mx/lib/speed/liblega-c.a(isinf.o)
                              /opt/microchip/mplabc32/v2.02/bin/../lib/gcc/pic32mx/4.5.1/../../../../pic32mx/lib/speed/libm.a(w_log10.o) (isinfl)
/opt/microchip/mplabc32/v2.02/bin/../lib/gcc/pic32mx/4.5.1/../../../../pic32mx/lib/speed/libe.a(_unorddf2.o)
                              /opt/microchip/mplabc32/v2.02/bin/../lib/gcc/pic32mx/4.5.1/../../../../pic32mx/lib/speed/liblega-c.a(isinf.o) (__unorddf2)
/opt/microchip/mplabc32/v2.02/bin/../lib/gcc/pic32mx/4.5.1/speed/libgcc.a(_lshrdi3.o)
                              /opt/microchip/mplabc32/v2.02/bin/../lib/gcc/pic32mx/4.5.1/../../../../pic32mx/lib/speed/libe.a(_ldexp.o) (__lshrdi3)
/opt/microchip/mplabc32/v2.02/bin/../lib/gcc/pic32mx/4.5.1/speed/libgcc.a(_ashldi3.o)
                              /opt/microchip/mplabc32/v2.02/bin/../lib/gcc/pic32mx/4.5.1/../../../../pic32mx/lib/speed/libe.a(_ldexp.o) (__ashldi3)
/opt/microchip/mplabc32/v2.02/bin/../lib/gcc/pic32mx/4.5.1/speed/libgcc.a(_divdi3.o)
                              /opt/microchip/mplabc32/v2.02/bin/../lib/gcc/pic32mx/4.5.1/../../../../pic32mx/lib/speed/liblega-c.a(strtoll.o) (__divdi3)
/opt/microchip/mplabc32/v2.02/bin/../lib/gcc/pic32mx/4.5.1/speed/libgcc.a(_umoddi3.o)
                              /opt/microchip/mplabc32/v2.02/bin/../lib/gcc/pic32mx/4.5.1/../../../../pic32mx/lib/speed/liblega-c.a(_doprnt.o) (__umoddi3)

Allocating common symbols
Common symbol       size              file

hist                0x244             build/default/production/_ext/1472/mbmc.o
Tail                0x1               build/default/production/_ext/1472/mbmc.o
utc_time            0x4               build/default/production/_ext/1472/mbmc.o
activeUDPSocket     0x1               build/default/production/_ext/1295770447/UDP.o
curHTTP             0x128             build/default/production/_ext/1295770447/HTTP2.o
chart               0x37d0            build/default/production/_ext/1472/mbmc.o
mbmc_buffer         0x94              build/default/production/_ext/1472/mbmc.o
UDPTxCount          0x2               build/default/production/_ext/1295770447/UDP.o
cell                0xc8              build/default/production/_ext/1472/mbmc.o
SMTPClient          0x2c              build/default/production/_ext/1295770447/SMTP.o
mbmc_crc            0x2               build/default/production/_ext/1472/mbmc.o
mbmccmd             0x4               build/default/production/_ext/1472/mbmc.o
curHTTPID           0x1               build/default/production/_ext/1295770447/HTTP2.o
DDNSClient          0x20              build/default/production/_ext/1295770447/DynDNS.o
ltime               0x4               build/default/production/_ext/1472/mbmc.o
hoststat            0x1c              build/default/production/_ext/1472/mbmc.o
CCEFF               0x4               build/default/production/_ext/1472/mbmc.o
alarms              0x1               build/default/production/_ext/1472/mbmc.o
remote_daq          0x30              build/default/production/_ext/1472/mbmc.o
PVEFF               0x4               build/default/production/_ext/1472/mbmc.o
_PhyAdd             0x4               build/default/production/_ext/1295770447/ETHPIC32ExtPhy.o
AN0String           0x8               build/default/production/_ext/1472/MainDemo.o
sdc0                0x78              build/default/production/_ext/1472/mbmc.o
UDPSocketInfo       0x8c              build/default/production/_ext/1295770447/UDP.o
lastBlock           0x40              build/default/production/_ext/1295770447/Hashes.o
remoteNode          0xa               build/default/production/_ext/1295770447/StackTsk.o
UDPRxCount          0x2               build/default/production/_ext/1295770447/UDP.o
TOTEFF              0x4               build/default/production/_ext/1472/mbmc.o
cbuf                0x80              build/default/production/_ext/1472/mbmc.o
mbmctime            0x4               build/default/production/_ext/1472/mbmc.o
Head                0x1               build/default/production/_ext/1472/mbmc.o
dd                  0x4               build/default/production/_ext/1472/mbmc.o
httpStubs           0x10              build/default/production/_ext/1295770447/HTTP2.o
AppConfig           0x33              build/default/production/_ext/1472/MainDemo.o
mbmcflag            0x28              build/default/production/_ext/1472/mbmc.o

Microchip PIC32 Memory-Usage Report

kseg0 Program-Memory Usage
section                    address  length [bytes]      (dec)  Description
-------                 ----------  -------------------------  -----------
.rodata                 0x9d000000           0x60          96  Read-only const 
.rodata                 0x9d000068        0x45fdc      286684  Read-only const 
.text                   0x9d046044        0x16018       90136  App's exec code 
.dinit                  0x9d05c05c          0xcbc        3260   
.text                   0x9d05cd18          0xc7c        3196  App's exec code 
.rodata                 0x9d05d994            0x4           4  Read-only const 
.rodata                 0x9d05d998          0xb68        2920  Read-only const 
.text                   0x9d05e500         0x4bc0       19392  App's exec code 
.rodata                 0x9d0630c0          0x7d4        2004  Read-only const 
.text                   0x9d063894         0x245c        9308  App's exec code 
.rodata                 0x9d065cf0          0x548        1352  Read-only const 
.text                   0x9d066238         0x1fe0        8160  App's exec code 
.text.EthRxBuffersAppen 0x9d068218          0x448        1096   
.text                   0x9d068660          0x838        2104  App's exec code 
.text.__strtod          0x9d068e98          0x3f0        1008   
.text                   0x9d069288         0x11dc        4572  App's exec code 
.text.__strtof          0x9d06a464          0x35c         860   
.text                   0x9d06a7c0          0x94c        2380  App's exec code 
.rodata                 0x9d06b10c          0x300         768  Read-only const 
.text                   0x9d06b40c          0x5b4        1460  App's exec code 
.text.EthTxSendPacket   0x9d06b9c0          0x278         632   
.text                   0x9d06bc38          0xb78        2936  App's exec code 
.rodata                 0x9d06c7b0          0x200         512  Read-only const 
.text                   0x9d06c9b0          0x1f0         496  App's exec code 
.text._EthAckPacket     0x9d06cba0          0x1dc         476   
.text.__ldexp           0x9d06cd7c          0x1d4         468   
.text                   0x9d06cf50          0x530        1328  App's exec code 
.text.EthTxSendBuffer   0x9d06d480          0x1a4         420   
.text                   0x9d06d624          0x1a0         416  App's exec code 
.text._EthAppendBusyLis 0x9d06d7c4          0x19c         412   
.text                   0x9d06d960          0x4c0        1216  App's exec code 
.text._EthRxAckBuffer   0x9d06de20          0x184         388   
.text.EthRxGetPacket    0x9d06dfa4          0x180         384   
.text                   0x9d06e124          0x2d0         720  App's exec code 
.rodata                 0x9d06e3f4          0x154         340  Read-only const 
.text                   0x9d06e548          0x150         336  App's exec code 
.rodata                 0x9d06e698          0x140         320  Read-only const 
.text.EthMIIMConfig     0x9d06e7d8          0x13c         316   
.text.EthDescriptorsPoo 0x9d06e914          0x134         308   
.text.EthDescriptorsAdd 0x9d06ea48          0x12c         300   
.text                   0x9d06eb74          0x120         288  App's exec code 
.rodata                 0x9d06ec94          0x104         260  Read-only const 
.text.__ldexpf          0x9d06ed98          0x104         260   
.text                   0x9d06ee9c          0x660        1632  App's exec code 
.text.general_exception 0x9d06f4fc           0xd0         208   
.text.log10             0x9d06f5cc           0xcc         204   
.text                   0x9d06f698          0x2f4         756  App's exec code 
.text.EthInit           0x9d06f98c           0xb4         180   
.text.EthMACOpen        0x9d06fa40           0xb4         180   
.text                   0x9d06faf4          0x290         656  App's exec code 
.rodata                 0x9d06fd84           0x98         152  Read-only const 
.text                   0x9d06fe1c           0x98         152  App's exec code 
.text.UARTEnable        0x9d06feb4           0x80         128   
.text                   0x9d06ff34           0x7c         124  App's exec code 
.text.SoftReset         0x9d06ffb0           0x78         120   
.text.EthTxGetBufferSta 0x9d070028           0x70         112   
.rodata                 0x9d070098           0x6c         108  Read-only const 
.text.EthRxFiltersPMSet 0x9d070104           0x6c         108   
.rodata                 0x9d070170           0x68         104  Read-only const 
.text                   0x9d0701d8           0x68         104  App's exec code 
.rodata                 0x9d070240           0x68         104  Read-only const 
.text.__unorddf2        0x9d0702a8           0x64         100   
.text                   0x9d07030c           0x60          96  App's exec code 
.rodata                 0x9d07036c           0xbc         188  Read-only const 
.text.UARTSetDataRate   0x9d070428           0x5c          92   
.rodata                 0x9d070488           0x58          88  Read-only const 
.text                   0x9d0704e0           0x58          88  App's exec code 
.text.INTEnable         0x9d070538           0x58          88   
.rodata                 0x9d070590           0xa4         164  Read-only const 
.text                   0x9d070634           0x9c         156  App's exec code 
.text.EthMACSetAddress  0x9d0706d0           0x48          72   
.text.EthMACGetAddress  0x9d070718           0x44          68   
.text                   0x9d07075c           0x88         136  App's exec code 
.text.EthMIIMReadStart  0x9d0707e4           0x40          64   
.text.PORTSetPinsDigita 0x9d070824           0x40          64   
.text.PORTSetPinsDigita 0x9d070864           0x40          64   
.text.UARTGetDataRate   0x9d0708a4           0x40          64   
.text                   0x9d0708e4           0x3c          60  App's exec code 
.text.EthRxGetBuffer    0x9d070920           0x3c          60   
.text.INTSetVectorPrior 0x9d07095c           0x3c          60   
.text.INTSetVectorSubPr 0x9d070998           0x3c          60   
.text.UARTConfigure     0x9d0709d4           0x3c          60   
.text.UARTSetAddress    0x9d070a10           0x3c          60   
.rodata                 0x9d070a4c           0x38          56  Read-only const 
.text._EthFindPacket    0x9d070a84           0x38          56   
.text.EthMIIMWriteStart 0x9d070abc           0x38          56   
.text.UARTWatchForAddre 0x9d070af4           0x38          56   
.text.EthMIIMScanStart  0x9d070b2c           0x34          52   
.text.INTEnableSystemMu 0x9d070b60           0x34          52   
.rodata                 0x9d070b94           0x30          48  Read-only const 
.text.EthTxAcknowledgeB 0x9d070bc4           0x30          48   
.text.EthTxAckBuffer    0x9d070bf4           0x30          48   
.text.EthRxSetBufferSiz 0x9d070c24           0x30          48   
.text.INTGetVectorPrior 0x9d070c54           0x30          48   
.text.INTGetVectorSubPr 0x9d070c84           0x30          48   
.text                   0x9d070cb4           0x2c          44  App's exec code 
.text.INTClearFlag      0x9d070ce0           0x2c          44   
.text.INTSetFlag        0x9d070d0c           0x2c          44   
.text.INTGetFlag        0x9d070d38           0x2c          44   
.text.INTGetEnable      0x9d070d64           0x2c          44   
.text                   0x9d070d90           0x28          40  App's exec code 
.rodata                 0x9d070db8           0x28          40  Read-only const 
.text.EthMIIMReadResult 0x9d070de0           0x28          40   
.text.UARTSetFifoMode   0x9d070e08           0x28          40   
.text.UARTSetLineContro 0x9d070e30           0x28          40   
.text                   0x9d070e58           0x48          72  App's exec code 
.rodata                 0x9d070ea0           0x20          32  Read-only const 
.text.EthMIIMScanResult 0x9d070ec0           0x20          32   
.rodata                 0x9d070ee0           0x1c          28  Read-only const 
.text.EthRxAcknowledgeB 0x9d070efc           0x1c          28   
.text.EthRxAckBuffer    0x9d070f18           0x1c          28   
.text.INTRestoreInterru 0x9d070f34           0x1c          28   
.text                   0x9d070f50           0x18          24  App's exec code 
.rodata                 0x9d070f68           0x18          24  Read-only const 
.text.EthRxFiltersHTSet 0x9d070f80           0x18          24   
.text.CheKseg0CacheOff  0x9d070f98           0x18          24   
.text.CheKseg0CacheOn   0x9d070fb0           0x18          24   
.rodata                 0x9d070fc8           0x68         104  Read-only const 
.text.EthMACSetMaxFrame 0x9d071030           0x14          20   
.text.EthRxFiltersPMClr 0x9d071044           0x14          20   
.text                   0x9d071058           0x10          16  App's exec code 
.rodata                 0x9d071068           0x30          48  Read-only const 
.text.EthRxFiltersSet   0x9d071098           0x10          16   
.text.EthRxFiltersClr   0x9d0710a8           0x10          16   
.text.EthRxFiltersWrite 0x9d0710b8           0x10          16   
.rodata                 0x9d0710c8           0x1c          28  Read-only const 
.text                   0x9d0710e4           0x40          64  App's exec code 
.text.ReadCoreTimer     0x9d071124            0x8           8   
.text.INTDisableInterru 0x9d07112c            0x8           8   
.text.INTEnableInterrup 0x9d071134            0x8           8   
.rodata                 0x9d071140            0x8           8  Read-only const 
      Total kseg0_program_mem used  :     0x71138      463160  88.3% of 0x80000

kseg0 Boot-Memory Usage
section                    address  length [bytes]      (dec)  Description
-------                 ----------  -------------------------  -----------
         Total kseg0_boot_mem used  :           0           0  <1% of 0x970

Exception-Memory Usage 
section                    address  length [bytes]      (dec)  Description
-------                 ----------  -------------------------  -----------
.app_excpt              0x9fc01180           0x10          16  General-Exception 
.vector_4               0x9fc01280            0x8           8  Interrupt Vector 4 
.vector_24              0x9fc01500            0x8           8  Interrupt Vector 24 
.vector_32              0x9fc01600            0x8           8  Interrupt Vector 32 
          Total exception_mem used  :        0x28          40  1.0% of 0x1000

kseg1 Boot-Memory Usage
section                    address  length [bytes]      (dec)  Description
-------                 ----------  -------------------------  -----------
.reset                  0xbfc00000          0x1f4         500  Reset handler 
.bev_excpt              0xbfc00380           0x10          16  BEV-Exception 
         Total kseg1_boot_mem used  :       0x204         516  44.2% of 0x490
        --------------------------------------------------------------------------
         Total Program Memory used  :     0x71364      463716  87.2% of 0x81e00
        --------------------------------------------------------------------------


kseg1 Data-Memory Usage
section                    address  length [bytes]      (dec)  Description
-------                 ----------  -------------------------  -----------
.eh_frame               0xa0000000           0x50          80   
.sdata                  0xa0000050           0x3c          60  Small init data 
.sbss                   0xa000008c          0x270         624  Small uninit data 
.bss                    0xa00002fc         0x3f6c       16236  Uninitialized data 
.bss                    0xa0004290         0x8054       32852  Uninitialized data 
.data                   0xa000c2e4          0x408        1032  Initialized data 
.bss                    0xa000c6ec          0x1c0         448  Uninitialized data 
.data                   0xa000c8ac           0xe8         232  Initialized data 
.bss                    0xa000c994           0xe0         224  Uninitialized data 
.data                   0xa000ca74           0xd4         212  Initialized data 
.bss                    0xa000cb48          0x18c         396  Uninitialized data 
.data                   0xa000ccd4           0xb8         184  Initialized data 
.bss                    0xa000cd8c           0xec         236  Uninitialized data 
.data                   0xa000ce78           0x2c          44  Initialized data 
.bss                    0xa000cea4           0x2c          44  Uninitialized data 
.data                   0xa000ced0           0x2c          44  Initialized data 
.bss                    0xa000cefc           0x2c          44  Uninitialized data 
.data                   0xa000cf28           0x2c          44  Initialized data 
.bss                    0xa000cf54           0x48          72  Uninitialized data 
.data                   0xa000cf9c           0x40          64  Initialized data 
.bss                    0xa000cfdc           0x6c         108  Uninitialized data 
.data                   0xa000d048           0x10          16  Initialized data 
.bss                    0xa000d058           0x40          64  Uninitialized data 
.data.math_errhandling_ 0xa000d098            0x4           4   
         Total kseg1_data_mem used  :      0xd074       53364  40.7% of 0x20000
        --------------------------------------------------------------------------
            Total Data Memory used  :      0xd074       53364  40.7% of 0x20000
        --------------------------------------------------------------------------


Dynamic Data-Memory Reservation
section                    address  length [bytes]      (dec)  Description
-------                 ----------  -------------------------  -----------
heap                    0xa000d0a0         0x3e80       16000  Reserved for heap 
stack                   0xa0010f38         0xf0b8       61624  Reserved for stack 

        --------------------------------------------------------------------------

Discarded input sections

 .reginfo       0x00000000       0x18 /opt/microchip/mplabc32/v2.02/bin/../lib/gcc/pic32mx/4.5.1/../../../../pic32mx/lib/speed/crt0.o
 .pdr           0x00000000       0xa0 /opt/microchip/mplabc32/v2.02/bin/../lib/gcc/pic32mx/4.5.1/../../../../pic32mx/lib/speed/crt0.o
 .reginfo       0x00000000       0x18 build/default/production/_ext/1472/BerkeleyTCPClientDemo.o
 .pdr           0x00000000       0x20 build/default/production/_ext/1472/BerkeleyTCPClientDemo.o
 .reginfo       0x00000000       0x18 build/default/production/_ext/1472/BerkeleyTCPServerDemo.o
 .pdr           0x00000000       0x20 build/default/production/_ext/1472/BerkeleyTCPServerDemo.o
 .reginfo       0x00000000       0x18 build/default/production/_ext/1472/BerkeleyUDPClientDemo.o
 .pdr           0x00000000       0x40 build/default/production/_ext/1472/BerkeleyUDPClientDemo.o
 .reginfo       0x00000000       0x18 build/default/production/_ext/1472/GenericTCPClient.o
 .pdr           0x00000000       0x20 build/default/production/_ext/1472/GenericTCPClient.o
 .reginfo       0x00000000       0x18 build/default/production/_ext/1472/GenericTCPServer.o
 .pdr           0x00000000       0x20 build/default/production/_ext/1472/GenericTCPServer.o
 .reginfo       0x00000000       0x18 build/default/production/_ext/1472/LegacyHTTPApp.o
 .pdr           0x00000000        0x0 build/default/production/_ext/1472/LegacyHTTPApp.o
 .reginfo       0x00000000       0x18 build/default/production/_ext/1472/PingDemo.o
 .pdr           0x00000000       0x20 build/default/production/_ext/1472/PingDemo.o
 .reginfo       0x00000000       0x18 build/default/production/_ext/1472/SMTPDemo.o
 .pdr           0x00000000       0x20 build/default/production/_ext/1472/SMTPDemo.o
 .reginfo       0x00000000       0x18 build/default/production/_ext/1472/UARTConfig.o
 .pdr           0x00000000        0x0 build/default/production/_ext/1472/UARTConfig.o
 .reginfo       0x00000000       0x18 build/default/production/_ext/1295770447/Announce.o
 .pdr           0x00000000       0x40 build/default/production/_ext/1295770447/Announce.o
 .reginfo       0x00000000       0x18 build/default/production/_ext/1295770447/ARCFOUR.o
 .pdr           0x00000000        0x0 build/default/production/_ext/1295770447/ARCFOUR.o
 .reginfo       0x00000000       0x18 build/default/production/_ext/1295770447/ARP.o
 .pdr           0x00000000       0xc0 build/default/production/_ext/1295770447/ARP.o
 .reginfo       0x00000000       0x18 build/default/production/_ext/1295770447/AutoIP.o
 .pdr           0x00000000      0x140 build/default/production/_ext/1295770447/AutoIP.o
 .reginfo       0x00000000       0x18 build/default/production/_ext/1295770447/BerkeleyAPI.o
 .pdr           0x00000000      0x1a0 build/default/production/_ext/1295770447/BerkeleyAPI.o
 .reginfo       0x00000000       0x18 build/default/production/_ext/1295770447/BigInt.o
 .pdr           0x00000000        0x0 build/default/production/_ext/1295770447/BigInt.o
 .reginfo       0x00000000       0x18 build/default/production/_ext/1295770447/Delay.o
 .pdr           0x00000000       0x40 build/default/production/_ext/1295770447/Delay.o
 .reginfo       0x00000000       0x18 build/default/production/_ext/1295770447/DHCP.o
 .pdr           0x00000000      0x140 build/default/production/_ext/1295770447/DHCP.o
 .reginfo       0x00000000       0x18 build/default/production/_ext/1295770447/DHCPs.o
 .pdr           0x00000000       0x20 build/default/production/_ext/1295770447/DHCPs.o
 .reginfo       0x00000000       0x18 build/default/production/_ext/1295770447/DNS.o
 .pdr           0x00000000       0xc0 build/default/production/_ext/1295770447/DNS.o
 .reginfo       0x00000000       0x18 build/default/production/_ext/1295770447/DNSs.o
 .pdr           0x00000000        0x0 build/default/production/_ext/1295770447/DNSs.o
 .reginfo       0x00000000       0x18 build/default/production/_ext/1295770447/DynDNS.o
 .pdr           0x00000000       0xc0 build/default/production/_ext/1295770447/DynDNS.o
 .reginfo       0x00000000       0x18 build/default/production/_ext/1295770447/ENC28J60.o
 .pdr           0x00000000        0x0 build/default/production/_ext/1295770447/ENC28J60.o
 .reginfo       0x00000000       0x18 build/default/production/_ext/1295770447/ENCX24J600.o
 .pdr           0x00000000        0x0 build/default/production/_ext/1295770447/ENCX24J600.o
 .reginfo       0x00000000       0x18 build/default/production/_ext/1295770447/ETHPIC32ExtPhy.o
 .pdr           0x00000000      0x140 build/default/production/_ext/1295770447/ETHPIC32ExtPhy.o
 .reginfo       0x00000000       0x18 build/default/production/_ext/1295770447/ETHPIC32ExtPhyDP83848.o
 .pdr           0x00000000       0x80 build/default/production/_ext/1295770447/ETHPIC32ExtPhyDP83848.o
 .reginfo       0x00000000       0x18 build/default/production/_ext/1295770447/ETHPIC32IntMac.o
 .pdr           0x00000000      0x320 build/default/production/_ext/1295770447/ETHPIC32IntMac.o
 .reginfo       0x00000000       0x18 build/default/production/_ext/1295770447/FileSystem.o
 .pdr           0x00000000        0x0 build/default/production/_ext/1295770447/FileSystem.o
 .reginfo       0x00000000       0x18 build/default/production/_ext/1295770447/FTP.o
 .pdr           0x00000000        0x0 build/default/production/_ext/1295770447/FTP.o
 .reginfo       0x00000000       0x18 build/default/production/_ext/1295770447/Hashes.o
 .pdr           0x00000000       0xa0 build/default/production/_ext/1295770447/Hashes.o
 .reginfo       0x00000000       0x18 build/default/production/_ext/1295770447/Helpers.o
 .pdr           0x00000000      0x240 build/default/production/_ext/1295770447/Helpers.o
 .reginfo       0x00000000       0x18 build/default/production/_ext/1295770447/HTTP2.o
 .pdr           0x00000000      0x160 build/default/production/_ext/1295770447/HTTP2.o
 .reginfo       0x00000000       0x18 build/default/production/_ext/1295770447/HTTP.o
 .pdr           0x00000000        0x0 build/default/production/_ext/1295770447/HTTP.o
 .reginfo       0x00000000       0x18 build/default/production/_ext/1295770447/ICMP.o
 .pdr           0x00000000       0xc0 build/default/production/_ext/1295770447/ICMP.o
 .reginfo       0x00000000       0x18 build/default/production/_ext/1295770447/IP.o
 .pdr           0x00000000       0x60 build/default/production/_ext/1295770447/IP.o
 .reginfo       0x00000000       0x18 build/default/production/_ext/1295770447/LCDBlocking.o
 .pdr           0x00000000        0x0 build/default/production/_ext/1295770447/LCDBlocking.o
 .reginfo       0x00000000       0x18 build/default/production/_ext/1295770447/MPFS2.o
 .pdr           0x00000000      0x260 build/default/production/_ext/1295770447/MPFS2.o
 .reginfo       0x00000000       0x18 build/default/production/_ext/1295770447/MPFS.o
 .pdr           0x00000000        0x0 build/default/production/_ext/1295770447/MPFS.o
 .reginfo       0x00000000       0x18 build/default/production/_ext/1295770447/NBNS.o
 .pdr           0x00000000       0x20 build/default/production/_ext/1295770447/NBNS.o
 .reginfo       0x00000000       0x18 build/default/production/_ext/1295770447/Random.o
 .pdr           0x00000000        0x0 build/default/production/_ext/1295770447/Random.o
 .reginfo       0x00000000       0x18 build/default/production/_ext/1295770447/Reboot.o
 .pdr           0x00000000       0x20 build/default/production/_ext/1295770447/Reboot.o
 .reginfo       0x00000000       0x18 build/default/production/_ext/1295770447/RSA.o
 .pdr           0x00000000        0x0 build/default/production/_ext/1295770447/RSA.o
 .reginfo       0x00000000       0x18 build/default/production/_ext/1295770447/SMTP.o
 .pdr           0x00000000      0x1a0 build/default/production/_ext/1295770447/SMTP.o
 .reginfo       0x00000000       0x18 build/default/production/_ext/1295770447/SNMP.o
 .pdr           0x00000000        0x0 build/default/production/_ext/1295770447/SNMP.o
 .reginfo       0x00000000       0x18 build/default/production/_ext/1295770447/SNMPv3.o
 .pdr           0x00000000        0x0 build/default/production/_ext/1295770447/SNMPv3.o
 .reginfo       0x00000000       0x18 build/default/production/_ext/1295770447/SNMPv3USM.o
 .pdr           0x00000000        0x0 build/default/production/_ext/1295770447/SNMPv3USM.o
 .reginfo       0x00000000       0x18 build/default/production/_ext/1295770447/SNTP.o
 .pdr           0x00000000       0x40 build/default/production/_ext/1295770447/SNTP.o
 .reginfo       0x00000000       0x18 build/default/production/_ext/1295770447/SPIEEPROM.o
 .pdr           0x00000000        0x0 build/default/production/_ext/1295770447/SPIEEPROM.o
 .reginfo       0x00000000       0x18 build/default/production/_ext/1295770447/SPIFlash.o
 .pdr           0x00000000        0x0 build/default/production/_ext/1295770447/SPIFlash.o
 .reginfo       0x00000000       0x18 build/default/production/_ext/1295770447/SPIRAM.o
 .pdr           0x00000000        0x0 build/default/production/_ext/1295770447/SPIRAM.o
 .reginfo       0x00000000       0x18 build/default/production/_ext/1295770447/SSL.o
 .pdr           0x00000000        0x0 build/default/production/_ext/1295770447/SSL.o
 .reginfo       0x00000000       0x18 build/default/production/_ext/1295770447/StackTsk.o
 .pdr           0x00000000       0x60 build/default/production/_ext/1295770447/StackTsk.o
 .reginfo       0x00000000       0x18 build/default/production/_ext/1295770447/TCP.o
 .pdr           0x00000000      0x3e0 build/default/production/_ext/1295770447/TCP.o
 .reginfo       0x00000000       0x18 build/default/production/_ext/1295770447/TCPPerformanceTest.o
 .pdr           0x00000000       0x60 build/default/production/_ext/1295770447/TCPPerformanceTest.o
 .reginfo       0x00000000       0x18 build/default/production/_ext/1295770447/Telnet.o
 .pdr           0x00000000       0x20 build/default/production/_ext/1295770447/Telnet.o
 .reginfo       0x00000000       0x18 build/default/production/_ext/1295770447/TFTPc.o
 .pdr           0x00000000        0x0 build/default/production/_ext/1295770447/TFTPc.o
 .reginfo       0x00000000       0x18 build/default/production/_ext/1295770447/Tick.o
 .pdr           0x00000000      0x100 build/default/production/_ext/1295770447/Tick.o
 .reginfo       0x00000000       0x18 build/default/production/_ext/1295770447/UART2TCPBridge.o
 .pdr           0x00000000        0x0 build/default/production/_ext/1295770447/UART2TCPBridge.o
 .reginfo       0x00000000       0x18 build/default/production/_ext/1295770447/UART.o
 .pdr           0x00000000        0x0 build/default/production/_ext/1295770447/UART.o
 .reginfo       0x00000000       0x18 build/default/production/_ext/1295770447/UDP.o
 .pdr           0x00000000      0x200 build/default/production/_ext/1295770447/UDP.o
 .reginfo       0x00000000       0x18 build/default/production/_ext/1295770447/UDPPerformanceTest.o
 .pdr           0x00000000        0x0 build/default/production/_ext/1295770447/UDPPerformanceTest.o
 .reginfo       0x00000000       0x18 build/default/production/_ext/1295770447/ZeroconfHelper.o
 .pdr           0x00000000        0x0 build/default/production/_ext/1295770447/ZeroconfHelper.o
 .reginfo       0x00000000       0x18 build/default/production/_ext/1295770447/ZeroconfLinkLocal.o
 .pdr           0x00000000        0x0 build/default/production/_ext/1295770447/ZeroconfLinkLocal.o
 .reginfo       0x00000000       0x18 build/default/production/_ext/1295770447/ZeroconfMulticastDNS.o
 .pdr           0x00000000        0x0 build/default/production/_ext/1295770447/ZeroconfMulticastDNS.o
 .reginfo       0x00000000       0x18 build/default/production/_ext/1472/MPFSImg2.o
 .pdr           0x00000000        0x0 build/default/production/_ext/1472/MPFSImg2.o
 .reginfo       0x00000000       0x18 build/default/production/_ext/1472/MPFSImg.o
 .pdr           0x00000000        0x0 build/default/production/_ext/1472/MPFSImg.o
 .reginfo       0x00000000       0x18 build/default/production/_ext/1295770447/BigInt_helper_C32.o
 .pdr           0x00000000        0x0 build/default/production/_ext/1295770447/BigInt_helper_C32.o
 .reginfo       0x00000000       0x18 build/default/production/_ext/1472/CustomHTTPApp.o
 .pdr           0x00000000      0x880 build/default/production/_ext/1472/CustomHTTPApp.o
 .reginfo       0x00000000       0x18 build/default/production/_ext/1472/CustomSNMPApp.o
 .pdr           0x00000000        0x0 build/default/production/_ext/1472/CustomSNMPApp.o
 .reginfo       0x00000000       0x18 build/default/production/_ext/1472/CustomSSLCert.o
 .pdr           0x00000000        0x0 build/default/production/_ext/1472/CustomSSLCert.o
 .reginfo       0x00000000       0x18 build/default/production/_ext/1472/MainDemo.o
 .pdr           0x00000000       0x60 build/default/production/_ext/1472/MainDemo.o
 .reginfo       0x00000000       0x18 build/default/production/_ext/1472/mbmc.o
 .pdr           0x00000000      0x180 build/default/production/_ext/1472/mbmc.o
 .reginfo       0x00000000       0x18 build/default/production/_ext/1472/crc8_fast.o
 .pdr           0x00000000       0x60 build/default/production/_ext/1472/crc8_fast.o
 .reginfo       0x00000000       0x18 /opt/microchip/mplabc32/v2.02/bin/../lib/gcc/pic32mx/4.5.1/speed/libgcc.a(_udivdi3.o)
 .pdr           0x00000000       0x20 /opt/microchip/mplabc32/v2.02/bin/../lib/gcc/pic32mx/4.5.1/speed/libgcc.a(_udivdi3.o)
 .reginfo       0x00000000       0x18 /opt/microchip/mplabc32/v2.02/bin/../lib/gcc/pic32mx/4.5.1/speed/libgcc.a(floatunsisf.o)
 .pdr           0x00000000       0x20 /opt/microchip/mplabc32/v2.02/bin/../lib/gcc/pic32mx/4.5.1/speed/libgcc.a(floatunsisf.o)
 .reginfo       0x00000000       0x18 /opt/microchip/mplabc32/v2.02/bin/../lib/gcc/pic32mx/4.5.1/../../../../pic32mx/lib/speed/liblega-c.a(memcmp.o)
 .pdr           0x00000000       0x20 /opt/microchip/mplabc32/v2.02/bin/../lib/gcc/pic32mx/4.5.1/../../../../pic32mx/lib/speed/liblega-c.a(memcmp.o)
 .reginfo       0x00000000       0x18 /opt/microchip/mplabc32/v2.02/bin/../lib/gcc/pic32mx/4.5.1/../../../../pic32mx/lib/speed/liblega-c.a(memcpy.o)
 .pdr           0x00000000       0x20 /opt/microchip/mplabc32/v2.02/bin/../lib/gcc/pic32mx/4.5.1/../../../../pic32mx/lib/speed/liblega-c.a(memcpy.o)
 .reginfo       0x00000000       0x18 /opt/microchip/mplabc32/v2.02/bin/../lib/gcc/pic32mx/4.5.1/../../../../pic32mx/lib/speed/liblega-c.a(memset.o)
 .pdr           0x00000000       0x20 /opt/microchip/mplabc32/v2.02/bin/../lib/gcc/pic32mx/4.5.1/../../../../pic32mx/lib/speed/liblega-c.a(memset.o)
 .reginfo       0x00000000       0x18 /opt/microchip/mplabc32/v2.02/bin/../lib/gcc/pic32mx/4.5.1/../../../../pic32mx/lib/speed/liblega-c.a(strcmp.o)
 .pdr           0x00000000       0x20 /opt/microchip/mplabc32/v2.02/bin/../lib/gcc/pic32mx/4.5.1/../../../../pic32mx/lib/speed/liblega-c.a(strcmp.o)
 .reginfo       0x00000000       0x18 /opt/microchip/mplabc32/v2.02/bin/../lib/gcc/pic32mx/4.5.1/../../../../pic32mx/lib/speed/liblega-c.a(strcpy.o)
 .pdr           0x00000000       0x20 /opt/microchip/mplabc32/v2.02/bin/../lib/gcc/pic32mx/4.5.1/../../../../pic32mx/lib/speed/liblega-c.a(strcpy.o)
 .reginfo       0x00000000       0x18 /opt/microchip/mplabc32/v2.02/bin/../lib/gcc/pic32mx/4.5.1/../../../../pic32mx/lib/speed/liblega-c.a(strlen.o)
 .pdr           0x00000000       0x20 /opt/microchip/mplabc32/v2.02/bin/../lib/gcc/pic32mx/4.5.1/../../../../pic32mx/lib/speed/liblega-c.a(strlen.o)
 .reginfo       0x00000000       0x18 /opt/microchip/mplabc32/v2.02/bin/../lib/gcc/pic32mx/4.5.1/../../../../pic32mx/lib/speed/liblega-c.a(legacy-general-exception.o)
 .pdr           0x00000000       0x20 /opt/microchip/mplabc32/v2.02/bin/../lib/gcc/pic32mx/4.5.1/../../../../pic32mx/lib/speed/liblega-c.a(legacy-general-exception.o)
 .reginfo       0x00000000       0x18 /opt/microchip/mplabc32/v2.02/bin/../lib/gcc/pic32mx/4.5.1/../../../../pic32mx/lib/speed/liblega-c.a(strcat.o)
 .pdr           0x00000000       0x20 /opt/microchip/mplabc32/v2.02/bin/../lib/gcc/pic32mx/4.5.1/../../../../pic32mx/lib/speed/liblega-c.a(strcat.o)
 .reginfo       0x00000000       0x18 /opt/microchip/mplabc32/v2.02/bin/../lib/gcc/pic32mx/4.5.1/../../../../pic32mx/lib/speed/liblega-c.a(strncat.o)
 .pdr           0x00000000       0x20 /opt/microchip/mplabc32/v2.02/bin/../lib/gcc/pic32mx/4.5.1/../../../../pic32mx/lib/speed/liblega-c.a(strncat.o)
 .reginfo       0x00000000       0x18 /opt/microchip/mplabc32/v2.02/bin/../lib/gcc/pic32mx/4.5.1/../../../../pic32mx/lib/speed/liblega-c.a(strchr.o)
 .pdr           0x00000000       0x20 /opt/microchip/mplabc32/v2.02/bin/../lib/gcc/pic32mx/4.5.1/../../../../pic32mx/lib/speed/liblega-c.a(strchr.o)
 .reginfo       0x00000000       0x18 /opt/microchip/mplabc32/v2.02/bin/../lib/gcc/pic32mx/4.5.1/../../../../pic32mx/lib/speed/liblega-c.a(strstr.o)
 .pdr           0x00000000       0x20 /opt/microchip/mplabc32/v2.02/bin/../lib/gcc/pic32mx/4.5.1/../../../../pic32mx/lib/speed/liblega-c.a(strstr.o)
 .reginfo       0x00000000       0x18 /opt/microchip/mplabc32/v2.02/bin/../lib/gcc/pic32mx/4.5.1/../../../../pic32mx/lib/speed/liblega-c.a(malloc_calloc.o)
 .pdr           0x00000000       0x20 /opt/microchip/mplabc32/v2.02/bin/../lib/gcc/pic32mx/4.5.1/../../../../pic32mx/lib/speed/liblega-c.a(malloc_calloc.o)
 .reginfo       0x00000000       0x18 /opt/microchip/mplabc32/v2.02/bin/../lib/gcc/pic32mx/4.5.1/../../../../pic32mx/lib/speed/liblega-c.a(strtol.o)
 .pdr           0x00000000       0x20 /opt/microchip/mplabc32/v2.02/bin/../lib/gcc/pic32mx/4.5.1/../../../../pic32mx/lib/speed/liblega-c.a(strtol.o)
 .reginfo       0x00000000       0x18 /opt/microchip/mplabc32/v2.02/bin/../lib/gcc/pic32mx/4.5.1/../../../../pic32mx/lib/speed/liblega-c.a(sprintf.o)
 .pdr           0x00000000       0x20 /opt/microchip/mplabc32/v2.02/bin/../lib/gcc/pic32mx/4.5.1/../../../../pic32mx/lib/speed/liblega-c.a(sprintf.o)
 .reginfo       0x00000000       0x18 /opt/microchip/mplabc32/v2.02/bin/../lib/gcc/pic32mx/4.5.1/../../../../pic32mx/lib/speed/liblega-c.a(sscanf.o)
 .pdr           0x00000000       0x20 /opt/microchip/mplabc32/v2.02/bin/../lib/gcc/pic32mx/4.5.1/../../../../pic32mx/lib/speed/liblega-c.a(sscanf.o)
 .reginfo       0x00000000       0x18 /opt/microchip/mplabc32/v2.02/bin/../lib/gcc/pic32mx/4.5.1/../../../../pic32mx/lib/speed/liblega-c.a(vsscanf.o)
 .pdr           0x00000000       0x20 /opt/microchip/mplabc32/v2.02/bin/../lib/gcc/pic32mx/4.5.1/../../../../pic32mx/lib/speed/liblega-c.a(vsscanf.o)
 .reginfo       0x00000000       0x18 /opt/microchip/mplabc32/v2.02/bin/../lib/gcc/pic32mx/4.5.1/../../../../pic32mx/lib/speed/liblega-c.a(__vsnprintf.o)
 .pdr           0x00000000       0x20 /opt/microchip/mplabc32/v2.02/bin/../lib/gcc/pic32mx/4.5.1/../../../../pic32mx/lib/speed/liblega-c.a(__vsnprintf.o)
 .reginfo       0x00000000       0x18 /opt/microchip/mplabc32/v2.02/bin/../lib/gcc/pic32mx/4.5.1/../../../../pic32mx/lib/speed/liblega-c.a(gmtime.o)
 .pdr           0x00000000       0x40 /opt/microchip/mplabc32/v2.02/bin/../lib/gcc/pic32mx/4.5.1/../../../../pic32mx/lib/speed/liblega-c.a(gmtime.o)
 .reginfo       0x00000000       0x18 /opt/microchip/mplabc32/v2.02/bin/../lib/gcc/pic32mx/4.5.1/../../../../pic32mx/lib/speed/liblega-c.a(offtime.o)
 .pdr           0x00000000       0x40 /opt/microchip/mplabc32/v2.02/bin/../lib/gcc/pic32mx/4.5.1/../../../../pic32mx/lib/speed/liblega-c.a(offtime.o)
 .reginfo       0x00000000       0x18 /opt/microchip/mplabc32/v2.02/bin/../lib/gcc/pic32mx/4.5.1/../../../../pic32mx/lib/speed/liblega-c.a(asctime.o)
 .pdr           0x00000000       0x40 /opt/microchip/mplabc32/v2.02/bin/../lib/gcc/pic32mx/4.5.1/../../../../pic32mx/lib/speed/liblega-c.a(asctime.o)
 .reginfo       0x00000000       0x18 /opt/microchip/mplabc32/v2.02/bin/../lib/gcc/pic32mx/4.5.1/../../../../pic32mx/lib/speed/liblega-c.a(stubs.o)
 .pdr           0x00000000      0x2c0 /opt/microchip/mplabc32/v2.02/bin/../lib/gcc/pic32mx/4.5.1/../../../../pic32mx/lib/speed/liblega-c.a(stubs.o)
 .reginfo       0x00000000       0x18 /opt/microchip/mplabc32/v2.02/bin/../lib/gcc/pic32mx/4.5.1/../../../../pic32mx/lib/speed/liblega-c.a(default-bootstrap-exception-handler.o)
 .pdr           0x00000000       0x20 /opt/microchip/mplabc32/v2.02/bin/../lib/gcc/pic32mx/4.5.1/../../../../pic32mx/lib/speed/liblega-c.a(default-bootstrap-exception-handler.o)
 .reginfo       0x00000000       0x18 /opt/microchip/mplabc32/v2.02/bin/../lib/gcc/pic32mx/4.5.1/../../../../pic32mx/lib/speed/liblega-c.a(default-on-reset.o)
 .pdr           0x00000000       0x20 /opt/microchip/mplabc32/v2.02/bin/../lib/gcc/pic32mx/4.5.1/../../../../pic32mx/lib/speed/liblega-c.a(default-on-reset.o)
 .reginfo       0x00000000       0x18 /opt/microchip/mplabc32/v2.02/bin/../lib/gcc/pic32mx/4.5.1/../../../../pic32mx/lib/speed/liblega-c.a(default-on-bootstrap.o)
 .pdr           0x00000000       0x20 /opt/microchip/mplabc32/v2.02/bin/../lib/gcc/pic32mx/4.5.1/../../../../pic32mx/lib/speed/liblega-c.a(default-on-bootstrap.o)
 .reginfo       0x00000000       0x18 /opt/microchip/mplabc32/v2.02/bin/../lib/gcc/pic32mx/4.5.1/../../../../pic32mx/lib/speed/liblega-c.a(default-nmi-handler.o)
 .pdr           0x00000000       0x20 /opt/microchip/mplabc32/v2.02/bin/../lib/gcc/pic32mx/4.5.1/../../../../pic32mx/lib/speed/liblega-c.a(default-nmi-handler.o)
 .reginfo       0x00000000       0x18 /opt/microchip/mplabc32/v2.02/bin/../lib/gcc/pic32mx/4.5.1/../../../../pic32mx/lib/speed/liblega-c.a(ctype.o)
 .pdr           0x00000000        0x0 /opt/microchip/mplabc32/v2.02/bin/../lib/gcc/pic32mx/4.5.1/../../../../pic32mx/lib/speed/liblega-c.a(ctype.o)
 .reginfo       0x00000000       0x18 /opt/microchip/mplabc32/v2.02/bin/../lib/gcc/pic32mx/4.5.1/../../../../pic32mx/lib/speed/liblega-c.a(malloc.o)
 .pdr           0x00000000       0x60 /opt/microchip/mplabc32/v2.02/bin/../lib/gcc/pic32mx/4.5.1/../../../../pic32mx/lib/speed/liblega-c.a(malloc.o)
 .reginfo       0x00000000       0x18 /opt/microchip/mplabc32/v2.02/bin/../lib/gcc/pic32mx/4.5.1/../../../../pic32mx/lib/speed/liblega-c.a(errno.o)
 .pdr           0x00000000        0x0 /opt/microchip/mplabc32/v2.02/bin/../lib/gcc/pic32mx/4.5.1/../../../../pic32mx/lib/speed/liblega-c.a(errno.o)
 .reginfo       0x00000000       0x18 /opt/microchip/mplabc32/v2.02/bin/../lib/gcc/pic32mx/4.5.1/../../../../pic32mx/lib/speed/liblega-c.a(_doprnt.o)
 .pdr           0x00000000       0x80 /opt/microchip/mplabc32/v2.02/bin/../lib/gcc/pic32mx/4.5.1/../../../../pic32mx/lib/speed/liblega-c.a(_doprnt.o)
 .reginfo       0x00000000       0x18 /opt/microchip/mplabc32/v2.02/bin/../lib/gcc/pic32mx/4.5.1/../../../../pic32mx/lib/speed/liblega-c.a(_doscan.o)
 .pdr           0x00000000       0x80 /opt/microchip/mplabc32/v2.02/bin/../lib/gcc/pic32mx/4.5.1/../../../../pic32mx/lib/speed/liblega-c.a(_doscan.o)
 .reginfo       0x00000000       0x18 /opt/microchip/mplabc32/v2.02/bin/../lib/gcc/pic32mx/4.5.1/../../../../pic32mx/lib/speed/liblega-c.a(_iobdata.o)
 .pdr           0x00000000        0x0 /opt/microchip/mplabc32/v2.02/bin/../lib/gcc/pic32mx/4.5.1/../../../../pic32mx/lib/speed/liblega-c.a(_iobdata.o)
 .reginfo       0x00000000       0x18 /opt/microchip/mplabc32/v2.02/bin/../lib/gcc/pic32mx/4.5.1/../../../../pic32mx/lib/speed/liblega-c.a(_iobfuncs.o)
 .pdr           0x00000000       0xc0 /opt/microchip/mplabc32/v2.02/bin/../lib/gcc/pic32mx/4.5.1/../../../../pic32mx/lib/speed/liblega-c.a(_iobfuncs.o)
 .reginfo       0x00000000       0x18 /opt/microchip/mplabc32/v2.02/bin/../lib/gcc/pic32mx/4.5.1/../../../../pic32mx/lib/speed/liblega-c.a(_iobstring.o)
 .pdr           0x00000000       0xa0 /opt/microchip/mplabc32/v2.02/bin/../lib/gcc/pic32mx/4.5.1/../../../../pic32mx/lib/speed/liblega-c.a(_iobstring.o)
 .reginfo       0x00000000       0x18 /opt/microchip/mplabc32/v2.02/bin/../lib/gcc/pic32mx/4.5.1/../../../../pic32mx/lib/speed/liblega-c.a(fgetc.o)
 .pdr           0x00000000       0x60 /opt/microchip/mplabc32/v2.02/bin/../lib/gcc/pic32mx/4.5.1/../../../../pic32mx/lib/speed/liblega-c.a(fgetc.o)
 .reginfo       0x00000000       0x18 /opt/microchip/mplabc32/v2.02/bin/../lib/gcc/pic32mx/4.5.1/../../../../pic32mx/lib/speed/liblega-c.a(fputc.o)
 .pdr           0x00000000       0x60 /opt/microchip/mplabc32/v2.02/bin/../lib/gcc/pic32mx/4.5.1/../../../../pic32mx/lib/speed/liblega-c.a(fputc.o)
 .reginfo       0x00000000       0x18 /opt/microchip/mplabc32/v2.02/bin/../lib/gcc/pic32mx/4.5.1/../../../../pic32mx/lib/speed/liblega-c.a(ungetc.o)
 .pdr           0x00000000       0x20 /opt/microchip/mplabc32/v2.02/bin/../lib/gcc/pic32mx/4.5.1/../../../../pic32mx/lib/speed/liblega-c.a(ungetc.o)
 .reginfo       0x00000000       0x18 /opt/microchip/mplabc32/v2.02/bin/../lib/gcc/pic32mx/4.5.1/../../../../pic32mx/lib/speed/liblega-c.a(sbrk.o)
 .pdr           0x00000000       0xa0 /opt/microchip/mplabc32/v2.02/bin/../lib/gcc/pic32mx/4.5.1/../../../../pic32mx/lib/speed/liblega-c.a(sbrk.o)
 .reginfo       0x00000000       0x18 /opt/microchip/mplabc32/v2.02/bin/../lib/gcc/pic32mx/4.5.1/../../../../pic32mx/lib/speed/liblega-c.a(_mon_getc.o)
 .pdr           0x00000000       0x20 /opt/microchip/mplabc32/v2.02/bin/../lib/gcc/pic32mx/4.5.1/../../../../pic32mx/lib/speed/liblega-c.a(_mon_getc.o)
 .reginfo       0x00000000       0x18 /opt/microchip/mplabc32/v2.02/bin/../lib/gcc/pic32mx/4.5.1/../../../../pic32mx/lib/speed/liblega-c.a(_mon_write.o)
 .pdr           0x00000000       0x20 /opt/microchip/mplabc32/v2.02/bin/../lib/gcc/pic32mx/4.5.1/../../../../pic32mx/lib/speed/liblega-c.a(_mon_write.o)
 .reginfo       0x00000000       0x18 /opt/microchip/mplabc32/v2.02/bin/../lib/gcc/pic32mx/4.5.1/../../../../pic32mx/lib/speed/liblega-c.a(malloc_realloc.o)
 .pdr           0x00000000       0x20 /opt/microchip/mplabc32/v2.02/bin/../lib/gcc/pic32mx/4.5.1/../../../../pic32mx/lib/speed/liblega-c.a(malloc_realloc.o)
 .reginfo       0x00000000       0x18 /opt/microchip/mplabc32/v2.02/bin/../lib/gcc/pic32mx/4.5.1/../../../../pic32mx/lib/speed/liblega-c.a(strtoul.o)
 .pdr           0x00000000       0x20 /opt/microchip/mplabc32/v2.02/bin/../lib/gcc/pic32mx/4.5.1/../../../../pic32mx/lib/speed/liblega-c.a(strtoul.o)
 .reginfo       0x00000000       0x18 /opt/microchip/mplabc32/v2.02/bin/../lib/gcc/pic32mx/4.5.1/../../../../pic32mx/lib/speed/liblega-c.a(strtoll.o)
 .pdr           0x00000000       0x20 /opt/microchip/mplabc32/v2.02/bin/../lib/gcc/pic32mx/4.5.1/../../../../pic32mx/lib/speed/liblega-c.a(strtoll.o)
 .reginfo       0x00000000       0x18 /opt/microchip/mplabc32/v2.02/bin/../lib/gcc/pic32mx/4.5.1/../../../../pic32mx/lib/speed/liblega-c.a(strtoull.o)
 .pdr           0x00000000       0x20 /opt/microchip/mplabc32/v2.02/bin/../lib/gcc/pic32mx/4.5.1/../../../../pic32mx/lib/speed/liblega-c.a(strtoull.o)
 .reginfo       0x00000000       0x18 /opt/microchip/mplabc32/v2.02/bin/../lib/gcc/pic32mx/4.5.1/../../../../pic32mx/lib/speed/liblega-c.a(strtod.o)
 .pdr           0x00000000       0x20 /opt/microchip/mplabc32/v2.02/bin/../lib/gcc/pic32mx/4.5.1/../../../../pic32mx/lib/speed/liblega-c.a(strtod.o)
 .reginfo       0x00000000       0x18 /opt/microchip/mplabc32/v2.02/bin/../lib/gcc/pic32mx/4.5.1/../../../../pic32mx/lib/speed/liblega-c.a(strtof.o)
 .pdr           0x00000000       0x20 /opt/microchip/mplabc32/v2.02/bin/../lib/gcc/pic32mx/4.5.1/../../../../pic32mx/lib/speed/liblega-c.a(strtof.o)
 .reginfo       0x00000000       0x18 /opt/microchip/mplabc32/v2.02/bin/../lib/gcc/pic32mx/4.5.1/../../../../pic32mx/lib/speed/liblega-c.a(fullexit.o)
 .pdr           0x00000000       0x20 /opt/microchip/mplabc32/v2.02/bin/../lib/gcc/pic32mx/4.5.1/../../../../pic32mx/lib/speed/liblega-c.a(fullexit.o)
 .reginfo       0x00000000       0x18 /opt/microchip/mplabc32/v2.02/bin/../lib/gcc/pic32mx/4.5.1/../../../../pic32mx/lib/speed/liblega-c.a(_ioinit.o)
 .pdr           0x00000000       0x40 /opt/microchip/mplabc32/v2.02/bin/../lib/gcc/pic32mx/4.5.1/../../../../pic32mx/lib/speed/liblega-c.a(_ioinit.o)
 .reginfo       0x00000000       0x18 /opt/microchip/mplabc32/v2.02/bin/../lib/gcc/pic32mx/4.5.1/../../../../pic32mx/lib/speed/liblega-c.a(_cleanup.o)
 .pdr           0x00000000       0x20 /opt/microchip/mplabc32/v2.02/bin/../lib/gcc/pic32mx/4.5.1/../../../../pic32mx/lib/speed/liblega-c.a(_cleanup.o)
 .reginfo       0x00000000       0x18 /opt/microchip/mplabc32/v2.02/bin/../lib/gcc/pic32mx/4.5.1/../../../../pic32mx/lib/speed/liblega-c.a(_exit.o)
 .pdr           0x00000000       0x20 /opt/microchip/mplabc32/v2.02/bin/../lib/gcc/pic32mx/4.5.1/../../../../pic32mx/lib/speed/liblega-c.a(_exit.o)
 .reginfo       0x00000000       0x18 /opt/microchip/mplabc32/v2.02/bin/../lib/gcc/pic32mx/4.5.1/../../../../pic32mx/lib/speed/liblega-c.a(isatty.o)
 .pdr           0x00000000       0x20 /opt/microchip/mplabc32/v2.02/bin/../lib/gcc/pic32mx/4.5.1/../../../../pic32mx/lib/speed/liblega-c.a(isatty.o)
 .reginfo       0x00000000       0x18 /opt/microchip/mplabc32/v2.02/bin/../lib/gcc/pic32mx/4.5.1/../../../../pic32mx/lib/speed/liblega-c.a(_mon_putc.o)
 .pdr           0x00000000       0x20 /opt/microchip/mplabc32/v2.02/bin/../lib/gcc/pic32mx/4.5.1/../../../../pic32mx/lib/speed/liblega-c.a(_mon_putc.o)
 .reginfo       0x00000000       0x18 /opt/microchip/mplabc32/v2.02/bin/../lib/gcc/pic32mx/4.5.1/../../../../pic32mx/lib/speed/liblega-c.a(memmove.o)
 .pdr           0x00000000       0x20 /opt/microchip/mplabc32/v2.02/bin/../lib/gcc/pic32mx/4.5.1/../../../../pic32mx/lib/speed/liblega-c.a(memmove.o)
 .reginfo       0x00000000       0x18 /opt/microchip/mplabc32/v2.02/bin/../lib/gcc/pic32mx/4.5.1/../../../../pic32mx/lib/speed/liblega-c.a(_bufproc.o)
 .pdr           0x00000000       0x40 /opt/microchip/mplabc32/v2.02/bin/../lib/gcc/pic32mx/4.5.1/../../../../pic32mx/lib/speed/liblega-c.a(_bufproc.o)
 .reginfo       0x00000000       0x18 /opt/microchip/mplabc32/v2.02/bin/../lib/gcc/pic32mx/4.5.1/../../../../pic32mx/lib/speed/libm.a(mod32.o)
 .pdr           0x00000000        0x0 /opt/microchip/mplabc32/v2.02/bin/../lib/gcc/pic32mx/4.5.1/../../../../pic32mx/lib/speed/libm.a(mod32.o)
 .reginfo       0x00000000       0x18 /opt/microchip/mplabc32/v2.02/bin/../lib/gcc/pic32mx/4.5.1/../../../../pic32mx/lib/speed/libm.a(w_log10.o)
 .pdr           0x00000000       0x20 /opt/microchip/mplabc32/v2.02/bin/../lib/gcc/pic32mx/4.5.1/../../../../pic32mx/lib/speed/libm.a(w_log10.o)
 .reginfo       0x00000000       0x18 /opt/microchip/mplabc32/v2.02/bin/../lib/gcc/pic32mx/4.5.1/../../../../pic32mx/lib/speed/libm.a(dp32.o)
 .pdr           0x00000000        0x0 /opt/microchip/mplabc32/v2.02/bin/../lib/gcc/pic32mx/4.5.1/../../../../pic32mx/lib/speed/libm.a(dp32.o)
 .reginfo       0x00000000       0x18 /opt/microchip/mplabc32/v2.02/bin/../lib/gcc/pic32mx/4.5.1/../../../../pic32mx/lib/speed/libm.a(fp32.o)
 .pdr           0x00000000        0x0 /opt/microchip/mplabc32/v2.02/bin/../lib/gcc/pic32mx/4.5.1/../../../../pic32mx/lib/speed/libm.a(fp32.o)
 .reginfo       0x00000000       0x18 /opt/microchip/mplabc32/v2.02/bin/../lib/gcc/pic32mx/4.5.1/../../../../pic32mx/lib/speed/libm.a(s_lib_ver.o)
 .pdr           0x00000000        0x0 /opt/microchip/mplabc32/v2.02/bin/../lib/gcc/pic32mx/4.5.1/../../../../pic32mx/lib/speed/libm.a(s_lib_ver.o)
 .reginfo       0x00000000       0x18 /opt/microchip/mplabc32/v2.02/bin/../lib/gcc/pic32mx/4.5.1/../../../../pic32mx/lib/speed/libm.a(log32.o)
 .pdr           0x00000000        0x0 /opt/microchip/mplabc32/v2.02/bin/../lib/gcc/pic32mx/4.5.1/../../../../pic32mx/lib/speed/libm.a(log32.o)
 .reginfo       0x00000000       0x18 /opt/microchip/mplabc32/v2.02/bin/../lib/gcc/pic32mx/4.5.1/../../../../pic32mx/lib/speed/libm.a(func32.o)
 .pdr           0x00000000        0x0 /opt/microchip/mplabc32/v2.02/bin/../lib/gcc/pic32mx/4.5.1/../../../../pic32mx/lib/speed/libm.a(func32.o)
 .reginfo       0x00000000       0x18 /opt/microchip/mplabc32/v2.02/bin/../lib/gcc/pic32mx/4.5.1/../../../../pic32mx/lib/speed/libe.a(_strtod.o)
 .pdr           0x00000000       0x20 /opt/microchip/mplabc32/v2.02/bin/../lib/gcc/pic32mx/4.5.1/../../../../pic32mx/lib/speed/libe.a(_strtod.o)
 .reginfo       0x00000000       0x18 /opt/microchip/mplabc32/v2.02/bin/../lib/gcc/pic32mx/4.5.1/../../../../pic32mx/lib/speed/libe.a(_strtof.o)
 .pdr           0x00000000       0x20 /opt/microchip/mplabc32/v2.02/bin/../lib/gcc/pic32mx/4.5.1/../../../../pic32mx/lib/speed/libe.a(_strtof.o)
 .reginfo       0x00000000       0x18 /opt/microchip/mplabc32/v2.02/bin/../lib/gcc/pic32mx/4.5.1/../../../../pic32mx/lib/speed/libe.a(_ldexp.o)
 .pdr           0x00000000       0x20 /opt/microchip/mplabc32/v2.02/bin/../lib/gcc/pic32mx/4.5.1/../../../../pic32mx/lib/speed/libe.a(_ldexp.o)
 .reginfo       0x00000000       0x18 /opt/microchip/mplabc32/v2.02/bin/../lib/gcc/pic32mx/4.5.1/../../../../pic32mx/lib/speed/libe.a(_ldexpf.o)
 .pdr           0x00000000       0x20 /opt/microchip/mplabc32/v2.02/bin/../lib/gcc/pic32mx/4.5.1/../../../../pic32mx/lib/speed/libe.a(_ldexpf.o)
 .reginfo       0x00000000       0x18 /opt/microchip/mplabc32/v2.02/bin/../lib/gcc/pic32mx/4.5.1/../../../../pic32mx/lib/speed/libmchp_peripheral.a(read_core_timer_lib.o)
 .pdr           0x00000000       0x20 /opt/microchip/mplabc32/v2.02/bin/../lib/gcc/pic32mx/4.5.1/../../../../pic32mx/lib/speed/libmchp_peripheral.a(read_core_timer_lib.o)
 .reginfo       0x00000000       0x18 /opt/microchip/mplabc32/v2.02/bin/../lib/gcc/pic32mx/4.5.1/../../../../pic32mx/lib/speed/libmchp_peripheral_32MX795F512L.a(eth_ack_packet_lib.o)
 .pdr           0x00000000       0xc0 /opt/microchip/mplabc32/v2.02/bin/../lib/gcc/pic32mx/4.5.1/../../../../pic32mx/lib/speed/libmchp_peripheral_32MX795F512L.a(eth_ack_packet_lib.o)
 .reginfo       0x00000000       0x18 /opt/microchip/mplabc32/v2.02/bin/../lib/gcc/pic32mx/4.5.1/../../../../pic32mx/lib/speed/libmchp_peripheral_32MX795F512L.a(eth_descriptors_add_lib.o)
 .pdr           0x00000000       0x40 /opt/microchip/mplabc32/v2.02/bin/../lib/gcc/pic32mx/4.5.1/../../../../pic32mx/lib/speed/libmchp_peripheral_32MX795F512L.a(eth_descriptors_add_lib.o)
 .reginfo       0x00000000       0x18 /opt/microchip/mplabc32/v2.02/bin/../lib/gcc/pic32mx/4.5.1/../../../../pic32mx/lib/speed/libmchp_peripheral_32MX795F512L.a(eth_init_lib.o)
 .pdr           0x00000000       0x20 /opt/microchip/mplabc32/v2.02/bin/../lib/gcc/pic32mx/4.5.1/../../../../pic32mx/lib/speed/libmchp_peripheral_32MX795F512L.a(eth_init_lib.o)
 .reginfo       0x00000000       0x18 /opt/microchip/mplabc32/v2.02/bin/../lib/gcc/pic32mx/4.5.1/../../../../pic32mx/lib/speed/libmchp_peripheral_32MX795F512L.a(eth_mac_open_lib.o)
 .pdr           0x00000000       0x20 /opt/microchip/mplabc32/v2.02/bin/../lib/gcc/pic32mx/4.5.1/../../../../pic32mx/lib/speed/libmchp_peripheral_32MX795F512L.a(eth_mac_open_lib.o)
 .reginfo       0x00000000       0x18 /opt/microchip/mplabc32/v2.02/bin/../lib/gcc/pic32mx/4.5.1/../../../../pic32mx/lib/speed/libmchp_peripheral_32MX795F512L.a(eth_mac_set_address_max_lib.o)
 .pdr           0x00000000       0x60 /opt/microchip/mplabc32/v2.02/bin/../lib/gcc/pic32mx/4.5.1/../../../../pic32mx/lib/speed/libmchp_peripheral_32MX795F512L.a(eth_mac_set_address_max_lib.o)
 .reginfo       0x00000000       0x18 /opt/microchip/mplabc32/v2.02/bin/../lib/gcc/pic32mx/4.5.1/../../../../pic32mx/lib/speed/libmchp_peripheral_32MX795F512L.a(eth_rx_buffers_append_lib.o)
 .pdr           0x00000000       0x20 /opt/microchip/mplabc32/v2.02/bin/../lib/gcc/pic32mx/4.5.1/../../../../pic32mx/lib/speed/libmchp_peripheral_32MX795F512L.a(eth_rx_buffers_append_lib.o)
 .reginfo       0x00000000       0x18 /opt/microchip/mplabc32/v2.02/bin/../lib/gcc/pic32mx/4.5.1/../../../../pic32mx/lib/speed/libmchp_peripheral_32MX795F512L.a(eth_rx_filters_lib.o)
 .pdr           0x00000000       0xc0 /opt/microchip/mplabc32/v2.02/bin/../lib/gcc/pic32mx/4.5.1/../../../../pic32mx/lib/speed/libmchp_peripheral_32MX795F512L.a(eth_rx_filters_lib.o)
 .reginfo       0x00000000       0x18 /opt/microchip/mplabc32/v2.02/bin/../lib/gcc/pic32mx/4.5.1/../../../../pic32mx/lib/speed/libmchp_peripheral_32MX795F512L.a(eth_rx_get_packet_lib.o)
 .pdr           0x00000000       0x40 /opt/microchip/mplabc32/v2.02/bin/../lib/gcc/pic32mx/4.5.1/../../../../pic32mx/lib/speed/libmchp_peripheral_32MX795F512L.a(eth_rx_get_packet_lib.o)
 .reginfo       0x00000000       0x18 /opt/microchip/mplabc32/v2.02/bin/../lib/gcc/pic32mx/4.5.1/../../../../pic32mx/lib/speed/libmchp_peripheral_32MX795F512L.a(eth_rx_set_buffer_size_lib.o)
 .pdr           0x00000000       0x20 /opt/microchip/mplabc32/v2.02/bin/../lib/gcc/pic32mx/4.5.1/../../../../pic32mx/lib/speed/libmchp_peripheral_32MX795F512L.a(eth_rx_set_buffer_size_lib.o)
 .reginfo       0x00000000       0x18 /opt/microchip/mplabc32/v2.02/bin/../lib/gcc/pic32mx/4.5.1/../../../../pic32mx/lib/speed/libmchp_peripheral_32MX795F512L.a(eth_tx_packet_lib.o)
 .pdr           0x00000000       0x80 /opt/microchip/mplabc32/v2.02/bin/../lib/gcc/pic32mx/4.5.1/../../../../pic32mx/lib/speed/libmchp_peripheral_32MX795F512L.a(eth_tx_packet_lib.o)
 .reginfo       0x00000000       0x18 /opt/microchip/mplabc32/v2.02/bin/../lib/gcc/pic32mx/4.5.1/../../../../pic32mx/lib/speed/libmchp_peripheral_32MX795F512L.a(_eth_append_busy_list_lib.o)
 .pdr           0x00000000       0x20 /opt/microchip/mplabc32/v2.02/bin/../lib/gcc/pic32mx/4.5.1/../../../../pic32mx/lib/speed/libmchp_peripheral_32MX795F512L.a(_eth_append_busy_list_lib.o)
 .reginfo       0x00000000       0x18 /opt/microchip/mplabc32/v2.02/bin/../lib/gcc/pic32mx/4.5.1/../../../../pic32mx/lib/speed/libmchp_peripheral_32MX795F512L.a(eth_miim_access.o)
 .pdr           0x00000000       0xc0 /opt/microchip/mplabc32/v2.02/bin/../lib/gcc/pic32mx/4.5.1/../../../../pic32mx/lib/speed/libmchp_peripheral_32MX795F512L.a(eth_miim_access.o)
 .reginfo       0x00000000       0x18 /opt/microchip/mplabc32/v2.02/bin/../lib/gcc/pic32mx/4.5.1/../../../../pic32mx/lib/speed/libmchp_peripheral_32MX795F512L.a(soft_reset_lib.o)
 .pdr           0x00000000       0x20 /opt/microchip/mplabc32/v2.02/bin/../lib/gcc/pic32mx/4.5.1/../../../../pic32mx/lib/speed/libmchp_peripheral_32MX795F512L.a(soft_reset_lib.o)
 .reginfo       0x00000000       0x18 /opt/microchip/mplabc32/v2.02/bin/../lib/gcc/pic32mx/4.5.1/../../../../pic32mx/lib/speed/libmchp_peripheral_32MX795F512L.a(pcache.o)
 .pdr           0x00000000       0x40 /opt/microchip/mplabc32/v2.02/bin/../lib/gcc/pic32mx/4.5.1/../../../../pic32mx/lib/speed/libmchp_peripheral_32MX795F512L.a(pcache.o)
 .reginfo       0x00000000       0x18 /opt/microchip/mplabc32/v2.02/bin/../lib/gcc/pic32mx/4.5.1/../../../../pic32mx/lib/speed/libmchp_peripheral_32MX795F512L.a(int_disable_interrupts_lib.o)
 .pdr           0x00000000       0x20 /opt/microchip/mplabc32/v2.02/bin/../lib/gcc/pic32mx/4.5.1/../../../../pic32mx/lib/speed/libmchp_peripheral_32MX795F512L.a(int_disable_interrupts_lib.o)
 .reginfo       0x00000000       0x18 /opt/microchip/mplabc32/v2.02/bin/../lib/gcc/pic32mx/4.5.1/../../../../pic32mx/lib/speed/libmchp_peripheral_32MX795F512L.a(int_restore_interrupts_lib.o)
 .pdr           0x00000000       0x20 /opt/microchip/mplabc32/v2.02/bin/../lib/gcc/pic32mx/4.5.1/../../../../pic32mx/lib/speed/libmchp_peripheral_32MX795F512L.a(int_restore_interrupts_lib.o)
 .reginfo       0x00000000       0x18 /opt/microchip/mplabc32/v2.02/bin/../lib/gcc/pic32mx/4.5.1/../../../../pic32mx/lib/speed/libmchp_peripheral_32MX795F512L.a(int_enable_mv_int_lib.o)
 .pdr           0x00000000       0x20 /opt/microchip/mplabc32/v2.02/bin/../lib/gcc/pic32mx/4.5.1/../../../../pic32mx/lib/speed/libmchp_peripheral_32MX795F512L.a(int_enable_mv_int_lib.o)
 .reginfo       0x00000000       0x18 /opt/microchip/mplabc32/v2.02/bin/../lib/gcc/pic32mx/4.5.1/../../../../pic32mx/lib/speed/libmchp_peripheral_32MX795F512L.a(int_tbl_lib.o)
 .pdr           0x00000000      0x120 /opt/microchip/mplabc32/v2.02/bin/../lib/gcc/pic32mx/4.5.1/../../../../pic32mx/lib/speed/libmchp_peripheral_32MX795F512L.a(int_tbl_lib.o)
 .reginfo       0x00000000       0x18 /opt/microchip/mplabc32/v2.02/bin/../lib/gcc/pic32mx/4.5.1/../../../../pic32mx/lib/speed/libmchp_peripheral_32MX795F512L.a(port_set_pins_digital_in_lib.o)
 .pdr           0x00000000       0x20 /opt/microchip/mplabc32/v2.02/bin/../lib/gcc/pic32mx/4.5.1/../../../../pic32mx/lib/speed/libmchp_peripheral_32MX795F512L.a(port_set_pins_digital_in_lib.o)
 .reginfo       0x00000000       0x18 /opt/microchip/mplabc32/v2.02/bin/../lib/gcc/pic32mx/4.5.1/../../../../pic32mx/lib/speed/libmchp_peripheral_32MX795F512L.a(port_set_pins_digital_out_lib.o)
 .pdr           0x00000000       0x20 /opt/microchip/mplabc32/v2.02/bin/../lib/gcc/pic32mx/4.5.1/../../../../pic32mx/lib/speed/libmchp_peripheral_32MX795F512L.a(port_set_pins_digital_out_lib.o)
 .reginfo       0x00000000       0x18 /opt/microchip/mplabc32/v2.02/bin/../lib/gcc/pic32mx/4.5.1/../../../../pic32mx/lib/speed/libmchp_peripheral_32MX795F512L.a(_ports_tbl_libp.o)
 .pdr           0x00000000        0x0 /opt/microchip/mplabc32/v2.02/bin/../lib/gcc/pic32mx/4.5.1/../../../../pic32mx/lib/speed/libmchp_peripheral_32MX795F512L.a(_ports_tbl_libp.o)
 .reginfo       0x00000000       0x18 /opt/microchip/mplabc32/v2.02/bin/../lib/gcc/pic32mx/4.5.1/../../../../pic32mx/lib/speed/libmchp_peripheral_32MX795F512L.a(uart_lib.o)
 .pdr           0x00000000      0x100 /opt/microchip/mplabc32/v2.02/bin/../lib/gcc/pic32mx/4.5.1/../../../../pic32mx/lib/speed/libmchp_peripheral_32MX795F512L.a(uart_lib.o)
 .reginfo       0x00000000       0x18 /opt/microchip/mplabc32/v2.02/bin/../lib/gcc/pic32mx/4.5.1/../../../../pic32mx/lib/speed/libmchp_peripheral_32MX795F512L.a(int_enable_interrupts_lib.o)
 .pdr           0x00000000       0x20 /opt/microchip/mplabc32/v2.02/bin/../lib/gcc/pic32mx/4.5.1/../../../../pic32mx/lib/speed/libmchp_peripheral_32MX795F512L.a(int_enable_interrupts_lib.o)
 .reginfo       0x00000000       0x18 /opt/microchip/mplabc32/v2.02/bin/../lib/gcc/pic32mx/4.5.1/../../../../pic32mx/lib/speed/liblega-c.a(isinf.o)
 .pdr           0x00000000       0xc0 /opt/microchip/mplabc32/v2.02/bin/../lib/gcc/pic32mx/4.5.1/../../../../pic32mx/lib/speed/liblega-c.a(isinf.o)
 .reginfo       0x00000000       0x18 /opt/microchip/mplabc32/v2.02/bin/../lib/gcc/pic32mx/4.5.1/../../../../pic32mx/lib/speed/libe.a(_unorddf2.o)
 .pdr           0x00000000       0x20 /opt/microchip/mplabc32/v2.02/bin/../lib/gcc/pic32mx/4.5.1/../../../../pic32mx/lib/speed/libe.a(_unorddf2.o)
 .reginfo       0x00000000       0x18 /opt/microchip/mplabc32/v2.02/bin/../lib/gcc/pic32mx/4.5.1/speed/libgcc.a(_lshrdi3.o)
 .pdr           0x00000000       0x20 /opt/microchip/mplabc32/v2.02/bin/../lib/gcc/pic32mx/4.5.1/speed/libgcc.a(_lshrdi3.o)
 .reginfo       0x00000000       0x18 /opt/microchip/mplabc32/v2.02/bin/../lib/gcc/pic32mx/4.5.1/speed/libgcc.a(_ashldi3.o)
 .pdr           0x00000000       0x20 /opt/microchip/mplabc32/v2.02/bin/../lib/gcc/pic32mx/4.5.1/speed/libgcc.a(_ashldi3.o)
 .reginfo       0x00000000       0x18 /opt/microchip/mplabc32/v2.02/bin/../lib/gcc/pic32mx/4.5.1/speed/libgcc.a(_divdi3.o)
 .pdr           0x00000000       0x20 /opt/microchip/mplabc32/v2.02/bin/../lib/gcc/pic32mx/4.5.1/speed/libgcc.a(_divdi3.o)
 .reginfo       0x00000000       0x18 /opt/microchip/mplabc32/v2.02/bin/../lib/gcc/pic32mx/4.5.1/speed/libgcc.a(_umoddi3.o)
 .pdr           0x00000000       0x20 /opt/microchip/mplabc32/v2.02/bin/../lib/gcc/pic32mx/4.5.1/speed/libgcc.a(_umoddi3.o)
 .reginfo       0x00000000       0x18 /opt/microchip/mplabc32/v2.02/bin/../lib/gcc/pic32mx/4.5.1/../../../../pic32mx/lib/./proc/32MX795F512L/processor.o
 .pdr           0x00000000        0x0 /opt/microchip/mplabc32/v2.02/bin/../lib/gcc/pic32mx/4.5.1/../../../../pic32mx/lib/./proc/32MX795F512L/processor.o

Memory Configuration

Name             Origin             Length             Attributes
kseg0_program_mem 0x9d000000         0x00080000         xr
kseg0_boot_mem   0x9fc00490         0x00000970
exception_mem    0x9fc01000         0x00001000
kseg1_boot_mem   0xbfc00000         0x00000490
debug_exec_mem   0xbfc02000         0x00000ff0
config3          0xbfc02ff0         0x00000004
config2          0xbfc02ff4         0x00000004
config1          0xbfc02ff8         0x00000004
config0          0xbfc02ffc         0x00000004
kseg1_data_mem   0xa0000000         0x00020000         w !x
sfrs             0xbf800000         0x00100000
configsfrs       0xbfc02ff0         0x00000010
*default*        0x00000000         0xffffffff

Linker script and memory map

LOAD /opt/microchip/mplabc32/v2.02/bin/../lib/gcc/pic32mx/4.5.1/../../../../pic32mx/lib/speed/crt0.o
LOAD build/default/production/_ext/1472/BerkeleyTCPClientDemo.o
LOAD build/default/production/_ext/1472/BerkeleyTCPServerDemo.o
LOAD build/default/production/_ext/1472/BerkeleyUDPClientDemo.o
LOAD build/default/production/_ext/1472/GenericTCPClient.o
LOAD build/default/production/_ext/1472/GenericTCPServer.o
LOAD build/default/production/_ext/1472/LegacyHTTPApp.o
LOAD build/default/production/_ext/1472/PingDemo.o
LOAD build/default/production/_ext/1472/SMTPDemo.o
LOAD build/default/production/_ext/1472/UARTConfig.o
LOAD build/default/production/_ext/1295770447/Announce.o
LOAD build/default/production/_ext/1295770447/ARCFOUR.o
LOAD build/default/production/_ext/1295770447/ARP.o
LOAD build/default/production/_ext/1295770447/AutoIP.o
LOAD build/default/production/_ext/1295770447/BerkeleyAPI.o
LOAD build/default/production/_ext/1295770447/BigInt.o
LOAD build/default/production/_ext/1295770447/Delay.o
LOAD build/default/production/_ext/1295770447/DHCP.o
LOAD build/default/production/_ext/1295770447/DHCPs.o
LOAD build/default/production/_ext/1295770447/DNS.o
LOAD build/default/production/_ext/1295770447/DNSs.o
LOAD build/default/production/_ext/1295770447/DynDNS.o
LOAD build/default/production/_ext/1295770447/ENC28J60.o
LOAD build/default/production/_ext/1295770447/ENCX24J600.o
LOAD build/default/production/_ext/1295770447/ETHPIC32ExtPhy.o
LOAD build/default/production/_ext/1295770447/ETHPIC32ExtPhyDP83848.o
LOAD build/default/production/_ext/1295770447/ETHPIC32IntMac.o
LOAD build/default/production/_ext/1295770447/FileSystem.o
LOAD build/default/production/_ext/1295770447/FTP.o
LOAD build/default/production/_ext/1295770447/Hashes.o
LOAD build/default/production/_ext/1295770447/Helpers.o
LOAD build/default/production/_ext/1295770447/HTTP2.o
LOAD build/default/production/_ext/1295770447/HTTP.o
LOAD build/default/production/_ext/1295770447/ICMP.o
LOAD build/default/production/_ext/1295770447/IP.o
LOAD build/default/production/_ext/1295770447/LCDBlocking.o
LOAD build/default/production/_ext/1295770447/MPFS2.o
LOAD build/default/production/_ext/1295770447/MPFS.o
LOAD build/default/production/_ext/1295770447/NBNS.o
LOAD build/default/production/_ext/1295770447/Random.o
LOAD build/default/production/_ext/1295770447/Reboot.o
LOAD build/default/production/_ext/1295770447/RSA.o
LOAD build/default/production/_ext/1295770447/SMTP.o
LOAD build/default/production/_ext/1295770447/SNMP.o
LOAD build/default/production/_ext/1295770447/SNMPv3.o
LOAD build/default/production/_ext/1295770447/SNMPv3USM.o
LOAD build/default/production/_ext/1295770447/SNTP.o
LOAD build/default/production/_ext/1295770447/SPIEEPROM.o
LOAD build/default/production/_ext/1295770447/SPIFlash.o
LOAD build/default/production/_ext/1295770447/SPIRAM.o
LOAD build/default/production/_ext/1295770447/SSL.o
LOAD build/default/production/_ext/1295770447/StackTsk.o
LOAD build/default/production/_ext/1295770447/TCP.o
LOAD build/default/production/_ext/1295770447/TCPPerformanceTest.o
LOAD build/default/production/_ext/1295770447/Telnet.o
LOAD build/default/production/_ext/1295770447/TFTPc.o
LOAD build/default/production/_ext/1295770447/Tick.o
LOAD build/default/production/_ext/1295770447/UART2TCPBridge.o
LOAD build/default/production/_ext/1295770447/UART.o
LOAD build/default/production/_ext/1295770447/UDP.o
LOAD build/default/production/_ext/1295770447/UDPPerformanceTest.o
LOAD build/default/production/_ext/1295770447/ZeroconfHelper.o
LOAD build/default/production/_ext/1295770447/ZeroconfLinkLocal.o
LOAD build/default/production/_ext/1295770447/ZeroconfMulticastDNS.o
LOAD build/default/production/_ext/1472/MPFSImg2.o
LOAD build/default/production/_ext/1472/MPFSImg.o
LOAD build/default/production/_ext/1295770447/BigInt_helper_C32.o
LOAD build/default/production/_ext/1472/CustomHTTPApp.o
LOAD build/default/production/_ext/1472/CustomSNMPApp.o
LOAD build/default/production/_ext/1472/CustomSSLCert.o
LOAD build/default/production/_ext/1472/MainDemo.o
LOAD build/default/production/_ext/1472/mbmc.o
LOAD build/default/production/_ext/1472/crc8_fast.o
LOAD ../../Microchip/Crypto/AES_PIC32MX.a
                0x00000001                __MPLAB_BUILD = 0x1
                0x00003e80                _min_heap_size = 0x3e80
                0x00000800                _min_stack_size = 0x800
LOAD /opt/microchip/mplabc32/v2.02/bin/../lib/gcc/pic32mx/4.5.1/speed/libgcc.a
START GROUP
LOAD /opt/microchip/mplabc32/v2.02/bin/../lib/gcc/pic32mx/4.5.1/../../../../pic32mx/lib/speed/libdebug.a
LOAD /opt/microchip/mplabc32/v2.02/bin/../lib/gcc/pic32mx/4.5.1/../../../../pic32mx/lib/speed/liblega-c.a
LOAD /opt/microchip/mplabc32/v2.02/bin/../lib/gcc/pic32mx/4.5.1/../../../../pic32mx/lib/speed/libm.a
LOAD /opt/microchip/mplabc32/v2.02/bin/../lib/gcc/pic32mx/4.5.1/../../../../pic32mx/lib/speed/libe.a
LOAD /opt/microchip/mplabc32/v2.02/bin/../lib/gcc/pic32mx/4.5.1/../../../../pic32mx/lib/speed/libdsp.a
LOAD /opt/microchip/mplabc32/v2.02/bin/../lib/gcc/pic32mx/4.5.1/../../../../pic32mx/lib/speed/libmchp_peripheral.a
LOAD /opt/microchip/mplabc32/v2.02/bin/../lib/gcc/pic32mx/4.5.1/../../../../pic32mx/lib/speed/libmchp_peripheral_32MX795F512L.a
END GROUP
LOAD /opt/microchip/mplabc32/v2.02/bin/../lib/gcc/pic32mx/4.5.1/speed/libgcc.a
                0x00000400                PROVIDE (_min_stack_size, 0x400)
                0x00000000                PROVIDE (_min_heap_size, 0x0)
LOAD /opt/microchip/mplabc32/v2.02/bin/../lib/gcc/pic32mx/4.5.1/../../../../pic32mx/lib/./proc/32MX795F512L/processor.o
                0x00000001                PROVIDE (_vector_spacing, 0x1)
                0x9fc01000                _ebase_address = 0x9fc01000
                0xbfc00000                _RESET_ADDR = 0xbfc00000
                0xbfc00380                _BEV_EXCPT_ADDR = 0xbfc00380
                0xbfc00480                _DBG_EXCPT_ADDR = 0xbfc00480
                0xbfc02000                _DBG_CODE_ADDR = 0xbfc02000
                0x00000ff0                _DBG_CODE_SIZE = 0xff0
                0x9fc01180                _GEN_EXCPT_ADDR = (_ebase_address + 0x180)

.config_BFC02FF0
                0xbfc02ff0        0x4
 *(.config_BFC02FF0)
 .config_BFC02FF0
                0xbfc02ff0        0x4 build/default/production/_ext/1472/MainDemo.o

.config_BFC02FF4
                0xbfc02ff4        0x4
 *(.config_BFC02FF4)
 .config_BFC02FF4
                0xbfc02ff4        0x4 build/default/production/_ext/1472/MainDemo.o

.config_BFC02FF8
                0xbfc02ff8        0x4
 *(.config_BFC02FF8)
 .config_BFC02FF8
                0xbfc02ff8        0x4 build/default/production/_ext/1472/MainDemo.o

.config_BFC02FFC
                0xbfc02ffc        0x4
 *(.config_BFC02FFC)
 .config_BFC02FFC
                0xbfc02ffc        0x4 build/default/production/_ext/1472/MainDemo.o
                0xbfc02000                PROVIDE (_DBG_CODE_ADDR, 0xbfc02000)
                0x00000ff0                PROVIDE (_DBG_CODE_SIZE, 0xff0)

.reset          0xbfc00000      0x1f4
 *(.reset)
 .reset         0xbfc00000       0x10 /opt/microchip/mplabc32/v2.02/bin/../lib/gcc/pic32mx/4.5.1/../../../../pic32mx/lib/speed/crt0.o
                0xbfc00000                _reset
 *(.reset.startup)
 .reset.startup
                0xbfc00010      0x1e4 /opt/microchip/mplabc32/v2.02/bin/../lib/gcc/pic32mx/4.5.1/../../../../pic32mx/lib/speed/crt0.o

.bev_excpt      0xbfc00380       0x10
 *(.bev_handler)
 .bev_handler   0xbfc00380       0x10 /opt/microchip/mplabc32/v2.02/bin/../lib/gcc/pic32mx/4.5.1/../../../../pic32mx/lib/speed/crt0.o

.dbg_excpt      0xbfc00480        0x0
                0xbfc00480                . = (. + DEFINED (_DEBUGGER)?0x8:0x0)

.dbg_code       0xbfc02000        0x0
                0xbfc02000                . = (. + DEFINED (_DEBUGGER)?_DBG_CODE_SIZE:0x0)

.app_excpt      0x9fc01180       0x10
 *(.gen_handler)
 .gen_handler   0x9fc01180       0x10 /opt/microchip/mplabc32/v2.02/bin/../lib/gcc/pic32mx/4.5.1/../../../../pic32mx/lib/speed/crt0.o

.vector_0       0x9fc01200        0x0
 *(.vector_0)
                0x00000001                ASSERT (((_vector_spacing == 0x0) || (SIZEOF (.vector_0) <= (_vector_spacing << 0x5))), function at exception vector 0 too large)

.vector_1       0x9fc01220        0x0
 *(.vector_1)
                0x00000001                ASSERT (((_vector_spacing == 0x0) || (SIZEOF (.vector_1) <= (_vector_spacing << 0x5))), function at exception vector 1 too large)

.vector_2       0x9fc01240        0x0
 *(.vector_2)
                0x00000001                ASSERT (((_vector_spacing == 0x0) || (SIZEOF (.vector_2) <= (_vector_spacing << 0x5))), function at exception vector 2 too large)

.vector_3       0x9fc01260        0x0
 *(.vector_3)
                0x00000001                ASSERT (((_vector_spacing == 0x0) || (SIZEOF (.vector_3) <= (_vector_spacing << 0x5))), function at exception vector 3 too large)

.vector_4       0x9fc01280        0x8
 *(.vector_4)
 .vector_4      0x9fc01280        0x8 build/default/production/_ext/1295770447/Tick.o
                0x00000001                ASSERT (((_vector_spacing == 0x0) || (SIZEOF (.vector_4) <= (_vector_spacing << 0x5))), function at exception vector 4 too large)

.vector_5       0x9fc012a0        0x0
 *(.vector_5)
                0x00000001                ASSERT (((_vector_spacing == 0x0) || (SIZEOF (.vector_5) <= (_vector_spacing << 0x5))), function at exception vector 5 too large)

.vector_6       0x9fc012c0        0x0
 *(.vector_6)
                0x00000001                ASSERT (((_vector_spacing == 0x0) || (SIZEOF (.vector_6) <= (_vector_spacing << 0x5))), function at exception vector 6 too large)

.vector_7       0x9fc012e0        0x0
 *(.vector_7)
                0x00000001                ASSERT (((_vector_spacing == 0x0) || (SIZEOF (.vector_7) <= (_vector_spacing << 0x5))), function at exception vector 7 too large)

.vector_8       0x9fc01300        0x0
 *(.vector_8)
                0x00000001                ASSERT (((_vector_spacing == 0x0) || (SIZEOF (.vector_8) <= (_vector_spacing << 0x5))), function at exception vector 8 too large)

.vector_9       0x9fc01320        0x0
 *(.vector_9)
                0x00000001                ASSERT (((_vector_spacing == 0x0) || (SIZEOF (.vector_9) <= (_vector_spacing << 0x5))), function at exception vector 9 too large)

.vector_10      0x9fc01340        0x0
 *(.vector_10)
                0x00000001                ASSERT (((_vector_spacing == 0x0) || (SIZEOF (.vector_10) <= (_vector_spacing << 0x5))), function at exception vector 10 too large)

.vector_11      0x9fc01360        0x0
 *(.vector_11)
                0x00000001                ASSERT (((_vector_spacing == 0x0) || (SIZEOF (.vector_11) <= (_vector_spacing << 0x5))), function at exception vector 11 too large)

.vector_12      0x9fc01380        0x0
 *(.vector_12)
                0x00000001                ASSERT (((_vector_spacing == 0x0) || (SIZEOF (.vector_12) <= (_vector_spacing << 0x5))), function at exception vector 12 too large)

.vector_13      0x9fc013a0        0x0
 *(.vector_13)
                0x00000001                ASSERT (((_vector_spacing == 0x0) || (SIZEOF (.vector_13) <= (_vector_spacing << 0x5))), function at exception vector 13 too large)

.vector_14      0x9fc013c0        0x0
 *(.vector_14)
                0x00000001                ASSERT (((_vector_spacing == 0x0) || (SIZEOF (.vector_14) <= (_vector_spacing << 0x5))), function at exception vector 14 too large)

.vector_15      0x9fc013e0        0x0
 *(.vector_15)
                0x00000001                ASSERT (((_vector_spacing == 0x0) || (SIZEOF (.vector_15) <= (_vector_spacing << 0x5))), function at exception vector 15 too large)

.vector_16      0x9fc01400        0x0
 *(.vector_16)
                0x00000001                ASSERT (((_vector_spacing == 0x0) || (SIZEOF (.vector_16) <= (_vector_spacing << 0x5))), function at exception vector 16 too large)

.vector_17      0x9fc01420        0x0
 *(.vector_17)
                0x00000001                ASSERT (((_vector_spacing == 0x0) || (SIZEOF (.vector_17) <= (_vector_spacing << 0x5))), function at exception vector 17 too large)

.vector_18      0x9fc01440        0x0
 *(.vector_18)
                0x00000001                ASSERT (((_vector_spacing == 0x0) || (SIZEOF (.vector_18) <= (_vector_spacing << 0x5))), function at exception vector 18 too large)

.vector_19      0x9fc01460        0x0
 *(.vector_19)
                0x00000001                ASSERT (((_vector_spacing == 0x0) || (SIZEOF (.vector_19) <= (_vector_spacing << 0x5))), function at exception vector 19 too large)

.vector_20      0x9fc01480        0x0
 *(.vector_20)
                0x00000001                ASSERT (((_vector_spacing == 0x0) || (SIZEOF (.vector_20) <= (_vector_spacing << 0x5))), function at exception vector 20 too large)

.vector_21      0x9fc014a0        0x0
 *(.vector_21)
                0x00000001                ASSERT (((_vector_spacing == 0x0) || (SIZEOF (.vector_21) <= (_vector_spacing << 0x5))), function at exception vector 21 too large)

.vector_22      0x9fc014c0        0x0
 *(.vector_22)
                0x00000001                ASSERT (((_vector_spacing == 0x0) || (SIZEOF (.vector_22) <= (_vector_spacing << 0x5))), function at exception vector 22 too large)

.vector_23      0x9fc014e0        0x0
 *(.vector_23)
                0x00000001                ASSERT (((_vector_spacing == 0x0) || (SIZEOF (.vector_23) <= (_vector_spacing << 0x5))), function at exception vector 23 too large)

.vector_24      0x9fc01500        0x8
 *(.vector_24)
 .vector_24     0x9fc01500        0x8 build/default/production/_ext/1472/mbmc.o
                0x00000001                ASSERT (((_vector_spacing == 0x0) || (SIZEOF (.vector_24) <= (_vector_spacing << 0x5))), function at exception vector 24 too large)

.vector_25      0x9fc01520        0x0
 *(.vector_25)
                0x00000001                ASSERT (((_vector_spacing == 0x0) || (SIZEOF (.vector_25) <= (_vector_spacing << 0x5))), function at exception vector 25 too large)

.vector_26      0x9fc01540        0x0
 *(.vector_26)
                0x00000001                ASSERT (((_vector_spacing == 0x0) || (SIZEOF (.vector_26) <= (_vector_spacing << 0x5))), function at exception vector 26 too large)

.vector_27      0x9fc01560        0x0
 *(.vector_27)
                0x00000001                ASSERT (((_vector_spacing == 0x0) || (SIZEOF (.vector_27) <= (_vector_spacing << 0x5))), function at exception vector 27 too large)

.vector_28      0x9fc01580        0x0
 *(.vector_28)
                0x00000001                ASSERT (((_vector_spacing == 0x0) || (SIZEOF (.vector_28) <= (_vector_spacing << 0x5))), function at exception vector 28 too large)

.vector_29      0x9fc015a0        0x0
 *(.vector_29)
                0x00000001                ASSERT (((_vector_spacing == 0x0) || (SIZEOF (.vector_29) <= (_vector_spacing << 0x5))), function at exception vector 29 too large)

.vector_30      0x9fc015c0        0x0
 *(.vector_30)
                0x00000001                ASSERT (((_vector_spacing == 0x0) || (SIZEOF (.vector_30) <= (_vector_spacing << 0x5))), function at exception vector 30 too large)

.vector_31      0x9fc015e0        0x0
 *(.vector_31)
                0x00000001                ASSERT (((_vector_spacing == 0x0) || (SIZEOF (.vector_31) <= (_vector_spacing << 0x5))), function at exception vector 31 too large)

.vector_32      0x9fc01600        0x8
 *(.vector_32)
 .vector_32     0x9fc01600        0x8 build/default/production/_ext/1472/mbmc.o
                0x00000001                ASSERT (((_vector_spacing == 0x0) || (SIZEOF (.vector_32) <= (_vector_spacing << 0x5))), function at exception vector 32 too large)

.vector_33      0x9fc01620        0x0
 *(.vector_33)
                0x00000001                ASSERT (((_vector_spacing == 0x0) || (SIZEOF (.vector_33) <= (_vector_spacing << 0x5))), function at exception vector 33 too large)

.vector_34      0x9fc01640        0x0
 *(.vector_34)
                0x00000001                ASSERT (((_vector_spacing == 0x0) || (SIZEOF (.vector_34) <= (_vector_spacing << 0x5))), function at exception vector 34 too large)

.vector_35      0x9fc01660        0x0
 *(.vector_35)
                0x00000001                ASSERT (((_vector_spacing == 0x0) || (SIZEOF (.vector_35) <= (_vector_spacing << 0x5))), function at exception vector 35 too large)

.vector_36      0x9fc01680        0x0
 *(.vector_36)
                0x00000001                ASSERT (((_vector_spacing == 0x0) || (SIZEOF (.vector_36) <= (_vector_spacing << 0x5))), function at exception vector 36 too large)

.vector_37      0x9fc016a0        0x0
 *(.vector_37)
                0x00000001                ASSERT (((_vector_spacing == 0x0) || (SIZEOF (.vector_37) <= (_vector_spacing << 0x5))), function at exception vector 37 too large)

.vector_38      0x9fc016c0        0x0
 *(.vector_38)
                0x00000001                ASSERT (((_vector_spacing == 0x0) || (SIZEOF (.vector_38) <= (_vector_spacing << 0x5))), function at exception vector 38 too large)

.vector_39      0x9fc016e0        0x0
 *(.vector_39)
                0x00000001                ASSERT (((_vector_spacing == 0x0) || (SIZEOF (.vector_39) <= (_vector_spacing << 0x5))), function at exception vector 39 too large)

.vector_40      0x9fc01700        0x0
 *(.vector_40)
                0x00000001                ASSERT (((_vector_spacing == 0x0) || (SIZEOF (.vector_40) <= (_vector_spacing << 0x5))), function at exception vector 40 too large)

.vector_41      0x9fc01720        0x0
 *(.vector_41)
                0x00000001                ASSERT (((_vector_spacing == 0x0) || (SIZEOF (.vector_41) <= (_vector_spacing << 0x5))), function at exception vector 41 too large)

.vector_42      0x9fc01740        0x0
 *(.vector_42)
                0x00000001                ASSERT (((_vector_spacing == 0x0) || (SIZEOF (.vector_42) <= (_vector_spacing << 0x5))), function at exception vector 42 too large)

.vector_43      0x9fc01760        0x0
 *(.vector_43)
                0x00000001                ASSERT (((_vector_spacing == 0x0) || (SIZEOF (.vector_43) <= (_vector_spacing << 0x5))), function at exception vector 43 too large)

.vector_44      0x9fc01780        0x0
 *(.vector_44)
                0x00000001                ASSERT (((_vector_spacing == 0x0) || (SIZEOF (.vector_44) <= (_vector_spacing << 0x5))), function at exception vector 44 too large)

.vector_45      0x9fc017a0        0x0
 *(.vector_45)
                0x00000001                ASSERT (((_vector_spacing == 0x0) || (SIZEOF (.vector_45) <= (_vector_spacing << 0x5))), function at exception vector 45 too large)

.vector_46      0x9fc017c0        0x0
 *(.vector_46)
                0x00000001                ASSERT (((_vector_spacing == 0x0) || (SIZEOF (.vector_46) <= (_vector_spacing << 0x5))), function at exception vector 46 too large)

.vector_47      0x9fc017e0        0x0
 *(.vector_47)
                0x00000001                ASSERT (((_vector_spacing == 0x0) || (SIZEOF (.vector_47) <= (_vector_spacing << 0x5))), function at exception vector 47 too large)

.vector_48      0x9fc01800        0x0
 *(.vector_48)
                0x00000001                ASSERT (((_vector_spacing == 0x0) || (SIZEOF (.vector_48) <= (_vector_spacing << 0x5))), function at exception vector 48 too large)

.vector_49      0x9fc01820        0x0
 *(.vector_49)
                0x00000001                ASSERT (((_vector_spacing == 0x0) || (SIZEOF (.vector_49) <= (_vector_spacing << 0x5))), function at exception vector 49 too large)

.vector_50      0x9fc01840        0x0
 *(.vector_50)
                0x00000001                ASSERT (((_vector_spacing == 0x0) || (SIZEOF (.vector_50) <= (_vector_spacing << 0x5))), function at exception vector 50 too large)

.vector_51      0x9fc01860        0x0
 *(.vector_51)
                0x00000001                ASSERT (((_vector_spacing == 0x0) || (SIZEOF (.vector_51) <= (_vector_spacing << 0x5))), function at exception vector 51 too large)

.vector_52      0x9fc01880        0x0
 *(.vector_52)
                0x00000001                ASSERT (((_vector_spacing == 0x0) || (SIZEOF (.vector_52) <= (_vector_spacing << 0x5))), function at exception vector 52 too large)

.vector_53      0x9fc018a0        0x0
 *(.vector_53)
                0x00000001                ASSERT (((_vector_spacing == 0x0) || (SIZEOF (.vector_53) <= (_vector_spacing << 0x5))), function at exception vector 53 too large)

.vector_54      0x9fc018c0        0x0
 *(.vector_54)
                0x00000001                ASSERT (((_vector_spacing == 0x0) || (SIZEOF (.vector_54) <= (_vector_spacing << 0x5))), function at exception vector 54 too large)

.vector_55      0x9fc018e0        0x0
 *(.vector_55)
                0x00000001                ASSERT (((_vector_spacing == 0x0) || (SIZEOF (.vector_55) <= (_vector_spacing << 0x5))), function at exception vector 55 too large)

.vector_56      0x9fc01900        0x0
 *(.vector_56)
                0x00000001                ASSERT (((_vector_spacing == 0x0) || (SIZEOF (.vector_56) <= (_vector_spacing << 0x5))), function at exception vector 56 too large)

.vector_57      0x9fc01920        0x0
 *(.vector_57)
                0x00000001                ASSERT (((_vector_spacing == 0x0) || (SIZEOF (.vector_57) <= (_vector_spacing << 0x5))), function at exception vector 57 too large)

.vector_58      0x9fc01940        0x0
 *(.vector_58)
                0x00000001                ASSERT (((_vector_spacing == 0x0) || (SIZEOF (.vector_58) <= (_vector_spacing << 0x5))), function at exception vector 58 too large)

.vector_59      0x9fc01960        0x0
 *(.vector_59)
                0x00000001                ASSERT (((_vector_spacing == 0x0) || (SIZEOF (.vector_59) <= (_vector_spacing << 0x5))), function at exception vector 59 too large)

.vector_60      0x9fc01980        0x0
 *(.vector_60)
                0x00000001                ASSERT (((_vector_spacing == 0x0) || (SIZEOF (.vector_60) <= (_vector_spacing << 0x5))), function at exception vector 60 too large)

.vector_61      0x9fc019a0        0x0
 *(.vector_61)
                0x00000001                ASSERT (((_vector_spacing == 0x0) || (SIZEOF (.vector_61) <= (_vector_spacing << 0x5))), function at exception vector 61 too large)

.vector_62      0x9fc019c0        0x0
 *(.vector_62)
                0x00000001                ASSERT (((_vector_spacing == 0x0) || (SIZEOF (.vector_62) <= (_vector_spacing << 0x5))), function at exception vector 62 too large)

.vector_63      0x9fc019e0        0x0
 *(.vector_63)
                0x00000001                ASSERT (((_vector_spacing == 0x0) || (SIZEOF (.vector_63) <= (_vector_spacing << 0x5))), function at exception vector 63 too large)

.startup
 *(.startup)

.text
 *(.stub .gnu.linkonce.t.*)
 *(.text.*personality*)
 *(.mips16.fn.*)
 *(.mips16.call.*)
 *(.gnu.warning)

.rodata         0x9d000000       0x60
 *(.rodata.* .gnu.linkonce.r.*)
 .rodata.f5pow  0x9d000000       0x48 /opt/microchip/mplabc32/v2.02/bin/../lib/gcc/pic32mx/4.5.1/../../../../pic32mx/lib/speed/libe.a(_strtod.o)
 .rodata.f5pow  0x9d000048       0x18 /opt/microchip/mplabc32/v2.02/bin/../lib/gcc/pic32mx/4.5.1/../../../../pic32mx/lib/speed/libe.a(_strtof.o)
 *(.rodata1)
                0x9d000060                . = ALIGN (0x4)

.sdata2         0x9d000060        0x0
 *(.sdata2 .sdata2.* .gnu.linkonce.s2.*)
                0x9d000060                . = ALIGN (0x4)

.sbss2          0x9d000060        0x0
 *(.sbss2 .sbss2.* .gnu.linkonce.sb2.*)
                0x9d000060                . = ALIGN (0x4)

.eh_frame_hdr
 *(.eh_frame_hdr)

.eh_frame
 *(.eh_frame)

.dbg_data       0xa0000000        0x0
                0xa0000000                . = (. + DEFINED (_DEBUGGER)?0x200:0x0)

.persist        0xa0000000        0x0
                0xa0000000                _persist_begin = .
 *(.persist .persist.*)
                0xa0000000                . = ALIGN (0x4)
                0xa0000000                _persist_end = .

.eh_frame       0xa0000000       0x50
 *(.eh_frame)
 .eh_frame      0xa0000000       0x28 /opt/microchip/mplabc32/v2.02/bin/../lib/gcc/pic32mx/4.5.1/speed/libgcc.a(_udivdi3.o)
 .eh_frame      0xa0000028       0x14 /opt/microchip/mplabc32/v2.02/bin/../lib/gcc/pic32mx/4.5.1/speed/libgcc.a(_divdi3.o)
                                 0x28 (size before relaxing)
 .eh_frame      0xa000003c       0x14 /opt/microchip/mplabc32/v2.02/bin/../lib/gcc/pic32mx/4.5.1/speed/libgcc.a(_umoddi3.o)
                                 0x28 (size before relaxing)
                0xa0000050                . = .
                0xa0008040                _gp = (ALIGN (0x10) + 0x7ff0)

.got
 *(.got.plt)
 *(.got)

.sdata          0xa0000050       0x3c
                0xa0000050                _sdata_begin = .
 *(.sdata .sdata.* .gnu.linkonce.s.*)
 .sdata         0xa0000050        0x4 build/default/production/_ext/1472/BerkeleyTCPClientDemo.o
 .sdata         0xa0000054        0x8 build/default/production/_ext/1472/GenericTCPClient.o
 .sdata         0xa000005c        0x2 build/default/production/_ext/1295770447/BerkeleyAPI.o
 *fill*         0xa000005e        0x2 00
 .sdata         0xa0000060        0x4 build/default/production/_ext/1295770447/DHCPs.o
                0xa0000060                bDHCPServerEnabled
 .sdata         0xa0000064        0x8 build/default/production/_ext/1295770447/DNS.o
 .sdata         0xa000006c        0x1 build/default/production/_ext/1295770447/DynDNS.o
 *fill*         0xa000006d        0x3 00
 .sdata         0xa0000070        0x4 build/default/production/_ext/1295770447/Helpers.o
 .sdata         0xa0000074        0x1 build/default/production/_ext/1295770447/Reboot.o
 .sdata         0xa0000075        0x1 build/default/production/_ext/1295770447/SMTP.o
 .sdata         0xa0000076        0x2 build/default/production/_ext/1295770447/TCP.o
 .sdata         0xa0000078        0x2 build/default/production/_ext/1295770447/TCPPerformanceTest.o
 .sdata         0xa000007a        0x2 build/default/production/_ext/1295770447/UDP.o
 .sdata         0xa000007c        0x4 build/default/production/_ext/1472/MainDemo.o
 .sdata         0xa0000080        0x8 /opt/microchip/mplabc32/v2.02/bin/../lib/gcc/pic32mx/4.5.1/../../../../pic32mx/lib/speed/liblega-c.a(malloc.o)
                0xa0000080                malloc_trim_threshold
                0xa0000084                malloc_sbrk_base
 .sdata         0xa0000088        0x4 /opt/microchip/mplabc32/v2.02/bin/../lib/gcc/pic32mx/4.5.1/../../../../pic32mx/lib/speed/liblega-c.a(_iobdata.o)
                0xa0000088                _libc_data
                0xa000008c                _sdata_end = .

.lit8
 *(.lit8)

.lit4
 *(.lit4)
                0xa000008c                . = ALIGN (0x4)
                0xa000008c                _data_end = .
                0xa000008c                _bss_begin = .

.sbss           0xa000008c      0x270
                0xa000008c                _sbss_begin = .
 *(.dynsbss)
 *(.sbss .sbss.* .gnu.linkonce.sb.*)
 .sbss          0xa000008c        0x1 build/default/production/_ext/1472/BerkeleyTCPClientDemo.o
 *fill*         0xa000008d        0x3 00
 .sbss          0xa0000090        0x8 build/default/production/_ext/1472/BerkeleyTCPServerDemo.o
 .sbss          0xa0000098       0x18 build/default/production/_ext/1472/BerkeleyUDPClientDemo.o
 .sbss          0xa00000b0        0x4 build/default/production/_ext/1472/GenericTCPClient.o
 .sbss          0xa00000b4        0x8 build/default/production/_ext/1472/GenericTCPServer.o
 .sbss          0xa00000bc        0x8 build/default/production/_ext/1472/PingDemo.o
 .sbss          0xa00000c4        0x8 build/default/production/_ext/1472/SMTPDemo.o
 .sbss          0xa00000cc        0x8 build/default/production/_ext/1295770447/Announce.o
 .sbss          0xa00000d4        0x4 build/default/production/_ext/1295770447/ARP.o
 .sbss          0xa00000d8        0x4 build/default/production/_ext/1295770447/BerkeleyAPI.o
 .sbss          0xa00000dc        0x4 build/default/production/_ext/1295770447/DHCP.o
                0xa00000dc                DHCPClientInitializedOnce
 .sbss          0xa00000e0        0xc build/default/production/_ext/1295770447/DHCPs.o
 .sbss          0xa00000ec       0x18 build/default/production/_ext/1295770447/DNS.o
 .sbss          0xa0000104       0x24 build/default/production/_ext/1295770447/DynDNS.o
 .sbss          0xa0000128       0x40 build/default/production/_ext/1295770447/ETHPIC32IntMac.o
                0xa0000128                _stackMgrRxOkPkts
                0xa000012c                _stackMgrRxBadPkts
                0xa0000130                _stackMgrInGetHdr
                0xa0000134                _stackMgrRxDiscarded
                0xa0000138                _stackMgrTxNotReady
 .sbss          0xa0000168       0x10 build/default/production/_ext/1295770447/ICMP.o
 .sbss          0xa0000178        0x4 build/default/production/_ext/1295770447/IP.o
 .sbss          0xa000017c        0x8 build/default/production/_ext/1295770447/MPFS2.o
 .sbss          0xa0000184        0x8 build/default/production/_ext/1295770447/NBNS.o
 .sbss          0xa000018c       0x38 build/default/production/_ext/1295770447/SMTP.o
 .sbss          0xa00001c4       0x14 build/default/production/_ext/1295770447/SNTP.o
 .sbss          0xa00001d8        0x8 build/default/production/_ext/1295770447/StackTsk.o
 .sbss          0xa00001e0        0x2 build/default/production/_ext/1295770447/TCP.o
 *fill*         0xa00001e2        0x2 00
 .sbss          0xa00001e4       0x14 build/default/production/_ext/1295770447/TCPPerformanceTest.o
 .sbss          0xa00001f8        0xc build/default/production/_ext/1295770447/Telnet.o
 .sbss          0xa0000204        0xc build/default/production/_ext/1295770447/Tick.o
 .sbss          0xa0000210        0x8 build/default/production/_ext/1295770447/UDP.o
 .sbss          0xa0000218       0x30 build/default/production/_ext/1472/CustomHTTPApp.o
 .sbss          0xa0000248        0xc build/default/production/_ext/1472/MainDemo.o
 .sbss          0xa0000254       0x20 build/default/production/_ext/1472/mbmc.o
                0xa0000254                TIi
                0xa0000258                MIi
                0xa000025c                HRi
                0xa0000260                time_outs
                0xa0000264                crc_errors
 .sbss          0xa0000274        0x4 /opt/microchip/mplabc32/v2.02/bin/../lib/gcc/pic32mx/4.5.1/../../../../pic32mx/lib/speed/liblega-c.a(stubs.o)
                0xa0000274                __isthreaded
 .sbss          0xa0000278        0xc /opt/microchip/mplabc32/v2.02/bin/../lib/gcc/pic32mx/4.5.1/../../../../pic32mx/lib/speed/liblega-c.a(malloc.o)
                0xa0000278                malloc_top_pad
                0xa000027c                malloc_max_sbrked_mem
                0xa0000280                malloc_max_total_mem
 .sbss          0xa0000284        0x4 /opt/microchip/mplabc32/v2.02/bin/../lib/gcc/pic32mx/4.5.1/../../../../pic32mx/lib/speed/liblega-c.a(errno.o)
                0xa0000284                errno
 .sbss          0xa0000288        0xc /opt/microchip/mplabc32/v2.02/bin/../lib/gcc/pic32mx/4.5.1/../../../../pic32mx/lib/speed/liblega-c.a(sbrk.o)
                0xa0000288                _minbrk
                0xa000028c                _maxbrk
 .sbss          0xa0000294        0x4 /opt/microchip/mplabc32/v2.02/bin/../lib/gcc/pic32mx/4.5.1/../../../../pic32mx/lib/speed/liblega-c.a(_cleanup.o)
                0xa0000294                __cleanup
 .sbss          0xa0000298       0x20 /opt/microchip/mplabc32/v2.02/bin/../lib/gcc/pic32mx/4.5.1/../../../../pic32mx/lib/speed/libmchp_peripheral_32MX795F512L.a(eth_descriptors_add_lib.o)
                0xa0000298                _EthTxFreeList
                0xa00002a0                _EthTxBusyList
                0xa00002a8                _EthRxFreeList
                0xa00002b0                _EthRxBusyList
 *(.scommon)
 .scommon       0xa00002b8        0x4 build/default/production/_ext/1295770447/ETHPIC32ExtPhy.o
                0xa00002b8                _PhyAdd
 .scommon       0xa00002bc        0x1 build/default/production/_ext/1295770447/HTTP2.o
                0xa00002bc                curHTTPID
 *fill*         0xa00002bd        0x1 00
 .scommon       0xa00002be        0x6 build/default/production/_ext/1295770447/UDP.o
                0xa00002be                activeUDPSocket
                0xa00002c0                UDPTxCount
                0xa00002c2                UDPRxCount
 .scommon       0xa00002c4        0x8 build/default/production/_ext/1472/MainDemo.o
                0xa00002c4                AN0String
 .scommon       0xa00002cc       0x30 build/default/production/_ext/1472/mbmc.o
                0xa00002cc                Tail
                0xa00002d0                utc_time
                0xa00002d4                mbmc_crc
                0xa00002d8                mbmccmd
                0xa00002dc                ltime
                0xa00002e0                CCEFF
                0xa00002e4                alarms
                0xa00002e8                PVEFF
                0xa00002ec                TOTEFF
                0xa00002f0                mbmctime
                0xa00002f4                Head
                0xa00002f8                dd
                0xa00002fc                _sbss_end = .

.bss            0xa00002fc     0x3f6c
 *(.dynbss)
 *(COMMON)
 COMMON         0xa00002fc       0x20 build/default/production/_ext/1295770447/DynDNS.o
                0xa00002fc                DDNSClient
 COMMON         0xa000031c       0x40 build/default/production/_ext/1295770447/Hashes.o
                0xa000031c                lastBlock
 COMMON         0xa000035c      0x138 build/default/production/_ext/1295770447/HTTP2.o
                0xa000035c                curHTTP
                0xa0000484                httpStubs
 COMMON         0xa0000494       0x2c build/default/production/_ext/1295770447/SMTP.o
                0xa0000494                SMTPClient
 COMMON         0xa00004c0        0xa build/default/production/_ext/1295770447/StackTsk.o
                0xa00004c0                remoteNode
 *fill*         0xa00004ca        0x2 00
 COMMON         0xa00004cc       0x8c build/default/production/_ext/1295770447/UDP.o
                0xa00004cc                UDPSocketInfo
 COMMON         0xa0000558       0x33 build/default/production/_ext/1472/MainDemo.o
                0xa0000558                AppConfig
 *fill*         0xa000058b        0x1 00
 COMMON         0xa000058c     0x3cdc build/default/production/_ext/1472/mbmc.o
                0xa000058c                hist
                0xa00007d0                chart
                0xa0003fa0                mbmc_buffer
                0xa0004034                cell
                0xa00040fc                hoststat
                0xa0004118                remote_daq
                0xa0004148                sdc0
                0xa00041c0                cbuf
                0xa0004240                mbmcflag
                0xa0004268                . = ALIGN (0x4)
                0xa0004268                . = ALIGN (0x4)
                0xa0004268                _end = .
                0xa0004268                _bss_end = .
                0x00020000                _bmxdudba_address = 0x20000
                0x00020000                _bmxdupba_address = 0x20000

/DISCARD/
 *(.pdr)
 *(.reginfo)
 *(.rel.dyn)
 *(.note.GNU-stack)
 *(.note.GNU-stack)
 *(.gnu_debuglink)
 *(.gnu.lto_*)
 *(.discard)

.stab
 *(.stab)

.stabstr
 *(.stabstr)

.stab.excl
 *(.stab.excl)

.stab.exclstr
 *(.stab.exclstr)

.stab.index
 *(.stab.index)

.stab.indexstr
 *(.stab.indexstr)

.comment        0x00000000      0xdea
 *(.comment)
 .comment       0x00000000       0x51 build/default/production/_ext/1472/BerkeleyTCPClientDemo.o
                                 0x52 (size before relaxing)
 .comment       0x00000000       0x52 build/default/production/_ext/1472/BerkeleyTCPServerDemo.o
 .comment       0x00000000       0x52 build/default/production/_ext/1472/BerkeleyUDPClientDemo.o
 .comment       0x00000000       0x52 build/default/production/_ext/1472/GenericTCPClient.o
 .comment       0x00000000       0x52 build/default/production/_ext/1472/GenericTCPServer.o
 .comment       0x00000000       0x52 build/default/production/_ext/1472/LegacyHTTPApp.o
 .comment       0x00000000       0x52 build/default/production/_ext/1472/PingDemo.o
 .comment       0x00000000       0x52 build/default/production/_ext/1472/SMTPDemo.o
 .comment       0x00000000       0x52 build/default/production/_ext/1472/UARTConfig.o
 .comment       0x00000000       0x52 build/default/production/_ext/1295770447/Announce.o
 .comment       0x00000000       0x52 build/default/production/_ext/1295770447/ARCFOUR.o
 .comment       0x00000000       0x52 build/default/production/_ext/1295770447/ARP.o
 .comment       0x00000000       0x52 build/default/production/_ext/1295770447/AutoIP.o
 .comment       0x00000000       0x52 build/default/production/_ext/1295770447/BerkeleyAPI.o
 .comment       0x00000000       0x52 build/default/production/_ext/1295770447/BigInt.o
 .comment       0x00000000       0x52 build/default/production/_ext/1295770447/Delay.o
 .comment       0x00000000       0x52 build/default/production/_ext/1295770447/DHCP.o
 .comment       0x00000000       0x52 build/default/production/_ext/1295770447/DHCPs.o
 .comment       0x00000000       0x52 build/default/production/_ext/1295770447/DNS.o
 .comment       0x00000000       0x52 build/default/production/_ext/1295770447/DNSs.o
 .comment       0x00000000       0x52 build/default/production/_ext/1295770447/DynDNS.o
 .comment       0x00000000       0x52 build/default/production/_ext/1295770447/ENC28J60.o
 .comment       0x00000000       0x52 build/default/production/_ext/1295770447/ENCX24J600.o
 .comment       0x00000000       0x52 build/default/production/_ext/1295770447/ETHPIC32ExtPhy.o
 .comment       0x00000000       0x52 build/default/production/_ext/1295770447/ETHPIC32ExtPhyDP83848.o
 .comment       0x00000000       0x52 build/default/production/_ext/1295770447/ETHPIC32IntMac.o
 .comment       0x00000000       0x52 build/default/production/_ext/1295770447/FileSystem.o
 .comment       0x00000000       0x52 build/default/production/_ext/1295770447/FTP.o
 .comment       0x00000000       0x52 build/default/production/_ext/1295770447/Hashes.o
 .comment       0x00000000       0x52 build/default/production/_ext/1295770447/Helpers.o
 .comment       0x00000000       0x52 build/default/production/_ext/1295770447/HTTP2.o
 .comment       0x00000000       0x52 build/default/production/_ext/1295770447/HTTP.o
 .comment       0x00000000       0x52 build/default/production/_ext/1295770447/ICMP.o
 .comment       0x00000000       0x52 build/default/production/_ext/1295770447/IP.o
 .comment       0x00000000       0x52 build/default/production/_ext/1295770447/LCDBlocking.o
 .comment       0x00000000       0x52 build/default/production/_ext/1295770447/MPFS2.o
 .comment       0x00000000       0x52 build/default/production/_ext/1295770447/MPFS.o
 .comment       0x00000000       0x52 build/default/production/_ext/1295770447/NBNS.o
 .comment       0x00000000       0x52 build/default/production/_ext/1295770447/Random.o
 .comment       0x00000000       0x52 build/default/production/_ext/1295770447/Reboot.o
 .comment       0x00000000       0x52 build/default/production/_ext/1295770447/RSA.o
 .comment       0x00000000       0x52 build/default/production/_ext/1295770447/SMTP.o
 .comment       0x00000000       0x52 build/default/production/_ext/1295770447/SNMP.o
 .comment       0x00000000       0x52 build/default/production/_ext/1295770447/SNMPv3.o
 .comment       0x00000000       0x52 build/default/production/_ext/1295770447/SNMPv3USM.o
 .comment       0x00000000       0x52 build/default/production/_ext/1295770447/SNTP.o
 .comment       0x00000000       0x52 build/default/production/_ext/1295770447/SPIEEPROM.o
 .comment       0x00000000       0x52 build/default/production/_ext/1295770447/SPIFlash.o
 .comment       0x00000000       0x52 build/default/production/_ext/1295770447/SPIRAM.o
 .comment       0x00000000       0x52 build/default/production/_ext/1295770447/SSL.o
 .comment       0x00000000       0x52 build/default/production/_ext/1295770447/StackTsk.o
 .comment       0x00000000       0x52 build/default/production/_ext/1295770447/TCP.o
 .comment       0x00000000       0x52 build/default/production/_ext/1295770447/TCPPerformanceTest.o
 .comment       0x00000000       0x52 build/default/production/_ext/1295770447/Telnet.o
 .comment       0x00000000       0x52 build/default/production/_ext/1295770447/TFTPc.o
 .comment       0x00000000       0x52 build/default/production/_ext/1295770447/Tick.o
 .comment       0x00000000       0x52 build/default/production/_ext/1295770447/UART2TCPBridge.o
 .comment       0x00000000       0x52 build/default/production/_ext/1295770447/UART.o
 .comment       0x00000000       0x52 build/default/production/_ext/1295770447/UDP.o
 .comment       0x00000000       0x52 build/default/production/_ext/1295770447/UDPPerformanceTest.o
 .comment       0x00000000       0x52 build/default/production/_ext/1295770447/ZeroconfHelper.o
 .comment       0x00000000       0x52 build/default/production/_ext/1295770447/ZeroconfLinkLocal.o
 .comment       0x00000000       0x52 build/default/production/_ext/1295770447/ZeroconfMulticastDNS.o
 .comment       0x00000000       0x52 build/default/production/_ext/1472/MPFSImg2.o
 .comment       0x00000000       0x52 build/default/production/_ext/1472/MPFSImg.o
 .comment       0x00000000       0x52 build/default/production/_ext/1472/CustomHTTPApp.o
 .comment       0x00000000       0x52 build/default/production/_ext/1472/CustomSNMPApp.o
 .comment       0x00000000       0x52 build/default/production/_ext/1472/CustomSSLCert.o
 .comment       0x00000000       0x52 build/default/production/_ext/1472/MainDemo.o
 .comment       0x00000000       0x52 build/default/production/_ext/1472/mbmc.o
 .comment       0x00000000       0x52 build/default/production/_ext/1472/crc8_fast.o
 .comment       0x00000000       0x52 /opt/microchip/mplabc32/v2.02/bin/../lib/gcc/pic32mx/4.5.1/speed/libgcc.a(_udivdi3.o)
 .comment       0x00000000       0x52 /opt/microchip/mplabc32/v2.02/bin/../lib/gcc/pic32mx/4.5.1/speed/libgcc.a(floatunsisf.o)
 .comment       0x00000051       0x55 /opt/microchip/mplabc32/v2.02/bin/../lib/gcc/pic32mx/4.5.1/../../../../pic32mx/lib/speed/liblega-c.a(memcmp.o)
                                 0x56 (size before relaxing)
 .comment       0x000000a6       0x55 /opt/microchip/mplabc32/v2.02/bin/../lib/gcc/pic32mx/4.5.1/../../../../pic32mx/lib/speed/liblega-c.a(memset.o)
                                 0x56 (size before relaxing)
 .comment       0x000000fb       0x55 /opt/microchip/mplabc32/v2.02/bin/../lib/gcc/pic32mx/4.5.1/../../../../pic32mx/lib/speed/liblega-c.a(strcmp.o)
                                 0x56 (size before relaxing)
 .comment       0x00000150       0x55 /opt/microchip/mplabc32/v2.02/bin/../lib/gcc/pic32mx/4.5.1/../../../../pic32mx/lib/speed/liblega-c.a(strcpy.o)
                                 0x56 (size before relaxing)
 .comment       0x000001a5       0x55 /opt/microchip/mplabc32/v2.02/bin/../lib/gcc/pic32mx/4.5.1/../../../../pic32mx/lib/speed/liblega-c.a(strlen.o)
                                 0x56 (size before relaxing)
 .comment       0x000001fa       0x4f /opt/microchip/mplabc32/v2.02/bin/../lib/gcc/pic32mx/4.5.1/../../../../pic32mx/lib/speed/liblega-c.a(strcat.o)
                                 0xa1 (size before relaxing)
 .comment       0x00000249       0x50 /opt/microchip/mplabc32/v2.02/bin/../lib/gcc/pic32mx/4.5.1/../../../../pic32mx/lib/speed/liblega-c.a(strncat.o)
                                 0xa2 (size before relaxing)
 .comment       0x00000299       0x4f /opt/microchip/mplabc32/v2.02/bin/../lib/gcc/pic32mx/4.5.1/../../../../pic32mx/lib/speed/liblega-c.a(strchr.o)
                                 0xa1 (size before relaxing)
 .comment       0x000002e8       0x4f /opt/microchip/mplabc32/v2.02/bin/../lib/gcc/pic32mx/4.5.1/../../../../pic32mx/lib/speed/liblega-c.a(strstr.o)
                                 0xa1 (size before relaxing)
 .comment       0x00000000       0x52 /opt/microchip/mplabc32/v2.02/bin/../lib/gcc/pic32mx/4.5.1/../../../../pic32mx/lib/speed/liblega-c.a(malloc_calloc.o)
 .comment       0x00000337       0x4f /opt/microchip/mplabc32/v2.02/bin/../lib/gcc/pic32mx/4.5.1/../../../../pic32mx/lib/speed/liblega-c.a(strtol.o)
                                 0xa1 (size before relaxing)
 .comment       0x00000386       0x52 /opt/microchip/mplabc32/v2.02/bin/../lib/gcc/pic32mx/4.5.1/../../../../pic32mx/lib/speed/liblega-c.a(sprintf.o)
                                 0xa4 (size before relaxing)
 .comment       0x000003d8       0x51 /opt/microchip/mplabc32/v2.02/bin/../lib/gcc/pic32mx/4.5.1/../../../../pic32mx/lib/speed/liblega-c.a(sscanf.o)
                                 0xa3 (size before relaxing)
 .comment       0x00000429       0x52 /opt/microchip/mplabc32/v2.02/bin/../lib/gcc/pic32mx/4.5.1/../../../../pic32mx/lib/speed/liblega-c.a(vsscanf.o)
                                 0xa4 (size before relaxing)
 .comment       0x0000047b       0x56 /opt/microchip/mplabc32/v2.02/bin/../lib/gcc/pic32mx/4.5.1/../../../../pic32mx/lib/speed/liblega-c.a(__vsnprintf.o)
                                 0xa8 (size before relaxing)
 .comment       0x00000000       0x52 /opt/microchip/mplabc32/v2.02/bin/../lib/gcc/pic32mx/4.5.1/../../../../pic32mx/lib/speed/liblega-c.a(gmtime.o)
 .comment       0x00000000       0x52 /opt/microchip/mplabc32/v2.02/bin/../lib/gcc/pic32mx/4.5.1/../../../../pic32mx/lib/speed/liblega-c.a(offtime.o)
 .comment       0x000004d1       0x51 /opt/microchip/mplabc32/v2.02/bin/../lib/gcc/pic32mx/4.5.1/../../../../pic32mx/lib/speed/liblega-c.a(asctime.o)
                                 0xa3 (size before relaxing)
 .comment       0x00000522       0x4e /opt/microchip/mplabc32/v2.02/bin/../lib/gcc/pic32mx/4.5.1/../../../../pic32mx/lib/speed/liblega-c.a(stubs.o)
                                 0xa0 (size before relaxing)
 .comment       0x00000000       0x52 /opt/microchip/mplabc32/v2.02/bin/../lib/gcc/pic32mx/4.5.1/../../../../pic32mx/lib/speed/liblega-c.a(default-bootstrap-exception-handler.o)
 .comment       0x00000000       0x52 /opt/microchip/mplabc32/v2.02/bin/../lib/gcc/pic32mx/4.5.1/../../../../pic32mx/lib/speed/liblega-c.a(default-on-reset.o)
 .comment       0x00000000       0x52 /opt/microchip/mplabc32/v2.02/bin/../lib/gcc/pic32mx/4.5.1/../../../../pic32mx/lib/speed/liblega-c.a(default-on-bootstrap.o)
 .comment       0x00000570       0x4e /opt/microchip/mplabc32/v2.02/bin/../lib/gcc/pic32mx/4.5.1/../../../../pic32mx/lib/speed/liblega-c.a(ctype.o)
                                 0xa0 (size before relaxing)
 .comment       0x00000000       0x52 /opt/microchip/mplabc32/v2.02/bin/../lib/gcc/pic32mx/4.5.1/../../../../pic32mx/lib/speed/liblega-c.a(malloc.o)
 .comment       0x000005be       0x4e /opt/microchip/mplabc32/v2.02/bin/../lib/gcc/pic32mx/4.5.1/../../../../pic32mx/lib/speed/liblega-c.a(errno.o)
                                 0xa0 (size before relaxing)
 .comment       0x0000060c       0x52 /opt/microchip/mplabc32/v2.02/bin/../lib/gcc/pic32mx/4.5.1/../../../../pic32mx/lib/speed/liblega-c.a(_doprnt.o)
                                 0xa4 (size before relaxing)
 .comment       0x0000065e       0x52 /opt/microchip/mplabc32/v2.02/bin/../lib/gcc/pic32mx/4.5.1/../../../../pic32mx/lib/speed/liblega-c.a(_doscan.o)
                                 0xa4 (size before relaxing)
 .comment       0x000006b0       0x53 /opt/microchip/mplabc32/v2.02/bin/../lib/gcc/pic32mx/4.5.1/../../../../pic32mx/lib/speed/liblega-c.a(_iobdata.o)
                                 0xa5 (size before relaxing)
 .comment       0x00000703       0x54 /opt/microchip/mplabc32/v2.02/bin/../lib/gcc/pic32mx/4.5.1/../../../../pic32mx/lib/speed/liblega-c.a(_iobfuncs.o)
                                 0xa6 (size before relaxing)
 .comment       0x00000757       0x55 /opt/microchip/mplabc32/v2.02/bin/../lib/gcc/pic32mx/4.5.1/../../../../pic32mx/lib/speed/liblega-c.a(_iobstring.o)
                                 0xa7 (size before relaxing)
 .comment       0x000007ac       0x50 /opt/microchip/mplabc32/v2.02/bin/../lib/gcc/pic32mx/4.5.1/../../../../pic32mx/lib/speed/liblega-c.a(fgetc.o)
                                 0xa2 (size before relaxing)
 .comment       0x000007fc       0x50 /opt/microchip/mplabc32/v2.02/bin/../lib/gcc/pic32mx/4.5.1/../../../../pic32mx/lib/speed/liblega-c.a(fputc.o)
                                 0xa2 (size before relaxing)
 .comment       0x0000084c       0x51 /opt/microchip/mplabc32/v2.02/bin/../lib/gcc/pic32mx/4.5.1/../../../../pic32mx/lib/speed/liblega-c.a(ungetc.o)
                                 0xa3 (size before relaxing)
 .comment       0x0000089d       0x4b /opt/microchip/mplabc32/v2.02/bin/../lib/gcc/pic32mx/4.5.1/../../../../pic32mx/lib/speed/liblega-c.a(sbrk.o)
                                 0x9d (size before relaxing)
 .comment       0x00000000       0x52 /opt/microchip/mplabc32/v2.02/bin/../lib/gcc/pic32mx/4.5.1/../../../../pic32mx/lib/speed/liblega-c.a(_mon_getc.o)
 .comment       0x00000000       0x52 /opt/microchip/mplabc32/v2.02/bin/../lib/gcc/pic32mx/4.5.1/../../../../pic32mx/lib/speed/liblega-c.a(_mon_write.o)
 .comment       0x00000000       0x52 /opt/microchip/mplabc32/v2.02/bin/../lib/gcc/pic32mx/4.5.1/../../../../pic32mx/lib/speed/liblega-c.a(malloc_realloc.o)
 .comment       0x000008e8       0x50 /opt/microchip/mplabc32/v2.02/bin/../lib/gcc/pic32mx/4.5.1/../../../../pic32mx/lib/speed/liblega-c.a(strtoul.o)
                                 0xa2 (size before relaxing)
 .comment       0x00000938       0x50 /opt/microchip/mplabc32/v2.02/bin/../lib/gcc/pic32mx/4.5.1/../../../../pic32mx/lib/speed/liblega-c.a(strtoll.o)
                                 0xa2 (size before relaxing)
 .comment       0x00000988       0x51 /opt/microchip/mplabc32/v2.02/bin/../lib/gcc/pic32mx/4.5.1/../../../../pic32mx/lib/speed/liblega-c.a(strtoull.o)
                                 0xa3 (size before relaxing)
 .comment       0x000009d9       0x4f /opt/microchip/mplabc32/v2.02/bin/../lib/gcc/pic32mx/4.5.1/../../../../pic32mx/lib/speed/liblega-c.a(strtod.o)
                                 0xa1 (size before relaxing)
 .comment       0x00000000       0xa1 /opt/microchip/mplabc32/v2.02/bin/../lib/gcc/pic32mx/4.5.1/../../../../pic32mx/lib/speed/liblega-c.a(strtof.o)
 .comment       0x00000a28       0x51 /opt/microchip/mplabc32/v2.02/bin/../lib/gcc/pic32mx/4.5.1/../../../../pic32mx/lib/speed/liblega-c.a(fullexit.o)
                                 0xa3 (size before relaxing)
 .comment       0x00000a79       0x52 /opt/microchip/mplabc32/v2.02/bin/../lib/gcc/pic32mx/4.5.1/../../../../pic32mx/lib/speed/liblega-c.a(_ioinit.o)
                                 0xa4 (size before relaxing)
 .comment       0x00000acb       0x51 /opt/microchip/mplabc32/v2.02/bin/../lib/gcc/pic32mx/4.5.1/../../../../pic32mx/lib/speed/liblega-c.a(_cleanup.o)
                                 0xa3 (size before relaxing)
 .comment       0x00000000       0x52 /opt/microchip/mplabc32/v2.02/bin/../lib/gcc/pic32mx/4.5.1/../../../../pic32mx/lib/speed/liblega-c.a(_exit.o)
 .comment       0x00000b1c       0x4e /opt/microchip/mplabc32/v2.02/bin/../lib/gcc/pic32mx/4.5.1/../../../../pic32mx/lib/speed/liblega-c.a(isatty.o)
                                 0xa0 (size before relaxing)
 .comment       0x00000000       0x52 /opt/microchip/mplabc32/v2.02/bin/../lib/gcc/pic32mx/4.5.1/../../../../pic32mx/lib/speed/liblega-c.a(_mon_putc.o)
 .comment       0x00000b6a       0x50 /opt/microchip/mplabc32/v2.02/bin/../lib/gcc/pic32mx/4.5.1/../../../../pic32mx/lib/speed/liblega-c.a(memmove.o)
                                 0xa2 (size before relaxing)
 .comment       0x00000bba       0x53 /opt/microchip/mplabc32/v2.02/bin/../lib/gcc/pic32mx/4.5.1/../../../../pic32mx/lib/speed/liblega-c.a(_bufproc.o)
                                 0xa5 (size before relaxing)
 .comment       0x00000000       0x52 /opt/microchip/mplabc32/v2.02/bin/../lib/gcc/pic32mx/4.5.1/../../../../pic32mx/lib/speed/libm.a(w_log10.o)
 .comment       0x00000000       0x52 /opt/microchip/mplabc32/v2.02/bin/../lib/gcc/pic32mx/4.5.1/../../../../pic32mx/lib/speed/libm.a(s_lib_ver.o)
 .comment       0x00000c0d       0x9d /opt/microchip/mplabc32/v2.02/bin/../lib/gcc/pic32mx/4.5.1/../../../../pic32mx/lib/speed/libe.a(_strtod.o)
                                 0xef (size before relaxing)
 .comment       0x00000caa       0x4f /opt/microchip/mplabc32/v2.02/bin/../lib/gcc/pic32mx/4.5.1/../../../../pic32mx/lib/speed/libe.a(_strtof.o)
                                 0xef (size before relaxing)
 .comment       0x00000cf9       0x50 /opt/microchip/mplabc32/v2.02/bin/../lib/gcc/pic32mx/4.5.1/../../../../pic32mx/lib/speed/libe.a(_ldexp.o)
                                 0xf0 (size before relaxing)
 .comment       0x00000d49       0x50 /opt/microchip/mplabc32/v2.02/bin/../lib/gcc/pic32mx/4.5.1/../../../../pic32mx/lib/speed/libe.a(_ldexpf.o)
                                 0xf0 (size before relaxing)
 .comment       0x00000d99       0x51 /opt/microchip/mplabc32/v2.02/bin/../lib/gcc/pic32mx/4.5.1/../../../../pic32mx/lib/speed/libmchp_peripheral.a(read_core_timer_lib.o)
                                 0x52 (size before relaxing)
 .comment       0x00000000       0x52 /opt/microchip/mplabc32/v2.02/bin/../lib/gcc/pic32mx/4.5.1/../../../../pic32mx/lib/speed/libmchp_peripheral_32MX795F512L.a(eth_ack_packet_lib.o)
 .comment       0x00000000       0x52 /opt/microchip/mplabc32/v2.02/bin/../lib/gcc/pic32mx/4.5.1/../../../../pic32mx/lib/speed/libmchp_peripheral_32MX795F512L.a(eth_descriptors_add_lib.o)
 .comment       0x00000000       0x52 /opt/microchip/mplabc32/v2.02/bin/../lib/gcc/pic32mx/4.5.1/../../../../pic32mx/lib/speed/libmchp_peripheral_32MX795F512L.a(eth_init_lib.o)
 .comment       0x00000000       0x52 /opt/microchip/mplabc32/v2.02/bin/../lib/gcc/pic32mx/4.5.1/../../../../pic32mx/lib/speed/libmchp_peripheral_32MX795F512L.a(eth_mac_open_lib.o)
 .comment       0x00000000       0x52 /opt/microchip/mplabc32/v2.02/bin/../lib/gcc/pic32mx/4.5.1/../../../../pic32mx/lib/speed/libmchp_peripheral_32MX795F512L.a(eth_mac_set_address_max_lib.o)
 .comment       0x00000000       0x52 /opt/microchip/mplabc32/v2.02/bin/../lib/gcc/pic32mx/4.5.1/../../../../pic32mx/lib/speed/libmchp_peripheral_32MX795F512L.a(eth_rx_buffers_append_lib.o)
 .comment       0x00000000       0x52 /opt/microchip/mplabc32/v2.02/bin/../lib/gcc/pic32mx/4.5.1/../../../../pic32mx/lib/speed/libmchp_peripheral_32MX795F512L.a(eth_rx_filters_lib.o)
 .comment       0x00000000       0x52 /opt/microchip/mplabc32/v2.02/bin/../lib/gcc/pic32mx/4.5.1/../../../../pic32mx/lib/speed/libmchp_peripheral_32MX795F512L.a(eth_rx_get_packet_lib.o)
 .comment       0x00000000       0x52 /opt/microchip/mplabc32/v2.02/bin/../lib/gcc/pic32mx/4.5.1/../../../../pic32mx/lib/speed/libmchp_peripheral_32MX795F512L.a(eth_rx_set_buffer_size_lib.o)
 .comment       0x00000000       0x52 /opt/microchip/mplabc32/v2.02/bin/../lib/gcc/pic32mx/4.5.1/../../../../pic32mx/lib/speed/libmchp_peripheral_32MX795F512L.a(eth_tx_packet_lib.o)
 .comment       0x00000000       0x52 /opt/microchip/mplabc32/v2.02/bin/../lib/gcc/pic32mx/4.5.1/../../../../pic32mx/lib/speed/libmchp_peripheral_32MX795F512L.a(_eth_append_busy_list_lib.o)
 .comment       0x00000000       0x52 /opt/microchip/mplabc32/v2.02/bin/../lib/gcc/pic32mx/4.5.1/../../../../pic32mx/lib/speed/libmchp_peripheral_32MX795F512L.a(eth_miim_access.o)
 .comment       0x00000000       0x52 /opt/microchip/mplabc32/v2.02/bin/../lib/gcc/pic32mx/4.5.1/../../../../pic32mx/lib/speed/libmchp_peripheral_32MX795F512L.a(soft_reset_lib.o)
 .comment       0x00000000       0x52 /opt/microchip/mplabc32/v2.02/bin/../lib/gcc/pic32mx/4.5.1/../../../../pic32mx/lib/speed/libmchp_peripheral_32MX795F512L.a(pcache.o)
 .comment       0x00000000       0x52 /opt/microchip/mplabc32/v2.02/bin/../lib/gcc/pic32mx/4.5.1/../../../../pic32mx/lib/speed/libmchp_peripheral_32MX795F512L.a(int_disable_interrupts_lib.o)
 .comment       0x00000000       0x52 /opt/microchip/mplabc32/v2.02/bin/../lib/gcc/pic32mx/4.5.1/../../../../pic32mx/lib/speed/libmchp_peripheral_32MX795F512L.a(int_restore_interrupts_lib.o)
 .comment       0x00000000       0x52 /opt/microchip/mplabc32/v2.02/bin/../lib/gcc/pic32mx/4.5.1/../../../../pic32mx/lib/speed/libmchp_peripheral_32MX795F512L.a(int_enable_mv_int_lib.o)
 .comment       0x00000000       0x52 /opt/microchip/mplabc32/v2.02/bin/../lib/gcc/pic32mx/4.5.1/../../../../pic32mx/lib/speed/libmchp_peripheral_32MX795F512L.a(int_tbl_lib.o)
 .comment       0x00000000       0x52 /opt/microchip/mplabc32/v2.02/bin/../lib/gcc/pic32mx/4.5.1/../../../../pic32mx/lib/speed/libmchp_peripheral_32MX795F512L.a(port_set_pins_digital_in_lib.o)
 .comment       0x00000000       0x52 /opt/microchip/mplabc32/v2.02/bin/../lib/gcc/pic32mx/4.5.1/../../../../pic32mx/lib/speed/libmchp_peripheral_32MX795F512L.a(port_set_pins_digital_out_lib.o)
 .comment       0x00000000       0x52 /opt/microchip/mplabc32/v2.02/bin/../lib/gcc/pic32mx/4.5.1/../../../../pic32mx/lib/speed/libmchp_peripheral_32MX795F512L.a(_ports_tbl_libp.o)
 .comment       0x00000000       0x52 /opt/microchip/mplabc32/v2.02/bin/../lib/gcc/pic32mx/4.5.1/../../../../pic32mx/lib/speed/libmchp_peripheral_32MX795F512L.a(uart_lib.o)
 .comment       0x00000000       0x52 /opt/microchip/mplabc32/v2.02/bin/../lib/gcc/pic32mx/4.5.1/../../../../pic32mx/lib/speed/libmchp_peripheral_32MX795F512L.a(int_enable_interrupts_lib.o)
 .comment       0x00000000       0x52 /opt/microchip/mplabc32/v2.02/bin/../lib/gcc/pic32mx/4.5.1/../../../../pic32mx/lib/speed/liblega-c.a(isinf.o)
 .comment       0x00000000       0xa0 /opt/microchip/mplabc32/v2.02/bin/../lib/gcc/pic32mx/4.5.1/../../../../pic32mx/lib/speed/libe.a(_unorddf2.o)
 .comment       0x00000000       0x52 /opt/microchip/mplabc32/v2.02/bin/../lib/gcc/pic32mx/4.5.1/speed/libgcc.a(_lshrdi3.o)
 .comment       0x00000000       0x52 /opt/microchip/mplabc32/v2.02/bin/../lib/gcc/pic32mx/4.5.1/speed/libgcc.a(_ashldi3.o)
 .comment       0x00000000       0x52 /opt/microchip/mplabc32/v2.02/bin/../lib/gcc/pic32mx/4.5.1/speed/libgcc.a(_divdi3.o)
 .comment       0x00000000       0x52 /opt/microchip/mplabc32/v2.02/bin/../lib/gcc/pic32mx/4.5.1/speed/libgcc.a(_umoddi3.o)

.debug
 *(.debug)

.line
 *(.line)

.debug_srcinfo
 *(.debug_srcinfo)

.debug_sfnames
 *(.debug_sfnames)

.debug_aranges  0x00000000      0x590
 *(.debug_aranges)
 .debug_aranges
                0x00000000       0x20 /opt/microchip/mplabc32/v2.02/bin/../lib/gcc/pic32mx/4.5.1/speed/libgcc.a(_udivdi3.o)
 .debug_aranges
                0x00000020       0x20 /opt/microchip/mplabc32/v2.02/bin/../lib/gcc/pic32mx/4.5.1/speed/libgcc.a(floatunsisf.o)
 .debug_aranges
                0x00000040       0x20 /opt/microchip/mplabc32/v2.02/bin/../lib/gcc/pic32mx/4.5.1/../../../../pic32mx/lib/speed/libm.a(w_log10.o)
 .debug_aranges
                0x00000060       0x20 /opt/microchip/mplabc32/v2.02/bin/../lib/gcc/pic32mx/4.5.1/../../../../pic32mx/lib/speed/libe.a(_strtod.o)
 .debug_aranges
                0x00000080       0x20 /opt/microchip/mplabc32/v2.02/bin/../lib/gcc/pic32mx/4.5.1/../../../../pic32mx/lib/speed/libe.a(_strtof.o)
 .debug_aranges
                0x000000a0       0x20 /opt/microchip/mplabc32/v2.02/bin/../lib/gcc/pic32mx/4.5.1/../../../../pic32mx/lib/speed/libe.a(_ldexp.o)
 .debug_aranges
                0x000000c0       0x20 /opt/microchip/mplabc32/v2.02/bin/../lib/gcc/pic32mx/4.5.1/../../../../pic32mx/lib/speed/libe.a(_ldexpf.o)
 .debug_aranges
                0x000000e0       0x20 /opt/microchip/mplabc32/v2.02/bin/../lib/gcc/pic32mx/4.5.1/../../../../pic32mx/lib/speed/libmchp_peripheral.a(read_core_timer_lib.o)
 .debug_aranges
                0x00000100       0x48 /opt/microchip/mplabc32/v2.02/bin/../lib/gcc/pic32mx/4.5.1/../../../../pic32mx/lib/speed/libmchp_peripheral_32MX795F512L.a(eth_ack_packet_lib.o)
 .debug_aranges
                0x00000148       0x28 /opt/microchip/mplabc32/v2.02/bin/../lib/gcc/pic32mx/4.5.1/../../../../pic32mx/lib/speed/libmchp_peripheral_32MX795F512L.a(eth_descriptors_add_lib.o)
 .debug_aranges
                0x00000170       0x20 /opt/microchip/mplabc32/v2.02/bin/../lib/gcc/pic32mx/4.5.1/../../../../pic32mx/lib/speed/libmchp_peripheral_32MX795F512L.a(eth_init_lib.o)
 .debug_aranges
                0x00000190       0x20 /opt/microchip/mplabc32/v2.02/bin/../lib/gcc/pic32mx/4.5.1/../../../../pic32mx/lib/speed/libmchp_peripheral_32MX795F512L.a(eth_mac_open_lib.o)
 .debug_aranges
                0x000001b0       0x30 /opt/microchip/mplabc32/v2.02/bin/../lib/gcc/pic32mx/4.5.1/../../../../pic32mx/lib/speed/libmchp_peripheral_32MX795F512L.a(eth_mac_set_address_max_lib.o)
 .debug_aranges
                0x000001e0       0x20 /opt/microchip/mplabc32/v2.02/bin/../lib/gcc/pic32mx/4.5.1/../../../../pic32mx/lib/speed/libmchp_peripheral_32MX795F512L.a(eth_rx_buffers_append_lib.o)
 .debug_aranges
                0x00000200       0x48 /opt/microchip/mplabc32/v2.02/bin/../lib/gcc/pic32mx/4.5.1/../../../../pic32mx/lib/speed/libmchp_peripheral_32MX795F512L.a(eth_rx_filters_lib.o)
 .debug_aranges
                0x00000248       0x28 /opt/microchip/mplabc32/v2.02/bin/../lib/gcc/pic32mx/4.5.1/../../../../pic32mx/lib/speed/libmchp_peripheral_32MX795F512L.a(eth_rx_get_packet_lib.o)
 .debug_aranges
                0x00000270       0x20 /opt/microchip/mplabc32/v2.02/bin/../lib/gcc/pic32mx/4.5.1/../../../../pic32mx/lib/speed/libmchp_peripheral_32MX795F512L.a(eth_rx_set_buffer_size_lib.o)
 .debug_aranges
                0x00000290       0x38 /opt/microchip/mplabc32/v2.02/bin/../lib/gcc/pic32mx/4.5.1/../../../../pic32mx/lib/speed/libmchp_peripheral_32MX795F512L.a(eth_tx_packet_lib.o)
 .debug_aranges
                0x000002c8       0x20 /opt/microchip/mplabc32/v2.02/bin/../lib/gcc/pic32mx/4.5.1/../../../../pic32mx/lib/speed/libmchp_peripheral_32MX795F512L.a(_eth_append_busy_list_lib.o)
 .debug_aranges
                0x000002e8       0x48 /opt/microchip/mplabc32/v2.02/bin/../lib/gcc/pic32mx/4.5.1/../../../../pic32mx/lib/speed/libmchp_peripheral_32MX795F512L.a(eth_miim_access.o)
 .debug_aranges
                0x00000330       0x20 /opt/microchip/mplabc32/v2.02/bin/../lib/gcc/pic32mx/4.5.1/../../../../pic32mx/lib/speed/libmchp_peripheral_32MX795F512L.a(soft_reset_lib.o)
 .debug_aranges
                0x00000350       0x28 /opt/microchip/mplabc32/v2.02/bin/../lib/gcc/pic32mx/4.5.1/../../../../pic32mx/lib/speed/libmchp_peripheral_32MX795F512L.a(pcache.o)
 .debug_aranges
                0x00000378       0x20 /opt/microchip/mplabc32/v2.02/bin/../lib/gcc/pic32mx/4.5.1/../../../../pic32mx/lib/speed/libmchp_peripheral_32MX795F512L.a(int_disable_interrupts_lib.o)
 .debug_aranges
                0x00000398       0x20 /opt/microchip/mplabc32/v2.02/bin/../lib/gcc/pic32mx/4.5.1/../../../../pic32mx/lib/speed/libmchp_peripheral_32MX795F512L.a(int_restore_interrupts_lib.o)
 .debug_aranges
                0x000003b8       0x20 /opt/microchip/mplabc32/v2.02/bin/../lib/gcc/pic32mx/4.5.1/../../../../pic32mx/lib/speed/libmchp_peripheral_32MX795F512L.a(int_enable_mv_int_lib.o)
 .debug_aranges
                0x000003d8       0x60 /opt/microchip/mplabc32/v2.02/bin/../lib/gcc/pic32mx/4.5.1/../../../../pic32mx/lib/speed/libmchp_peripheral_32MX795F512L.a(int_tbl_lib.o)
 .debug_aranges
                0x00000438       0x20 /opt/microchip/mplabc32/v2.02/bin/../lib/gcc/pic32mx/4.5.1/../../../../pic32mx/lib/speed/libmchp_peripheral_32MX795F512L.a(port_set_pins_digital_in_lib.o)
 .debug_aranges
                0x00000458       0x20 /opt/microchip/mplabc32/v2.02/bin/../lib/gcc/pic32mx/4.5.1/../../../../pic32mx/lib/speed/libmchp_peripheral_32MX795F512L.a(port_set_pins_digital_out_lib.o)
 .debug_aranges
                0x00000478       0x58 /opt/microchip/mplabc32/v2.02/bin/../lib/gcc/pic32mx/4.5.1/../../../../pic32mx/lib/speed/libmchp_peripheral_32MX795F512L.a(uart_lib.o)
 .debug_aranges
                0x000004d0       0x20 /opt/microchip/mplabc32/v2.02/bin/../lib/gcc/pic32mx/4.5.1/../../../../pic32mx/lib/speed/libmchp_peripheral_32MX795F512L.a(int_enable_interrupts_lib.o)
 .debug_aranges
                0x000004f0       0x20 /opt/microchip/mplabc32/v2.02/bin/../lib/gcc/pic32mx/4.5.1/../../../../pic32mx/lib/speed/libe.a(_unorddf2.o)
 .debug_aranges
                0x00000510       0x20 /opt/microchip/mplabc32/v2.02/bin/../lib/gcc/pic32mx/4.5.1/speed/libgcc.a(_lshrdi3.o)
 .debug_aranges
                0x00000530       0x20 /opt/microchip/mplabc32/v2.02/bin/../lib/gcc/pic32mx/4.5.1/speed/libgcc.a(_ashldi3.o)
 .debug_aranges
                0x00000550       0x20 /opt/microchip/mplabc32/v2.02/bin/../lib/gcc/pic32mx/4.5.1/speed/libgcc.a(_divdi3.o)
 .debug_aranges
                0x00000570       0x20 /opt/microchip/mplabc32/v2.02/bin/../lib/gcc/pic32mx/4.5.1/speed/libgcc.a(_umoddi3.o)

.debug_pubnames
                0x00000000      0x810
 *(.debug_pubnames)
 .debug_pubnames
                0x00000000       0x20 /opt/microchip/mplabc32/v2.02/bin/../lib/gcc/pic32mx/4.5.1/speed/libgcc.a(_udivdi3.o)
 .debug_pubnames
                0x00000020       0x24 /opt/microchip/mplabc32/v2.02/bin/../lib/gcc/pic32mx/4.5.1/speed/libgcc.a(floatunsisf.o)
 .debug_pubnames
                0x00000044       0x1c /opt/microchip/mplabc32/v2.02/bin/../lib/gcc/pic32mx/4.5.1/../../../../pic32mx/lib/speed/libm.a(w_log10.o)
 .debug_pubnames
                0x00000060       0x1f /opt/microchip/mplabc32/v2.02/bin/../lib/gcc/pic32mx/4.5.1/../../../../pic32mx/lib/speed/libe.a(_strtod.o)
 .debug_pubnames
                0x0000007f       0x1f /opt/microchip/mplabc32/v2.02/bin/../lib/gcc/pic32mx/4.5.1/../../../../pic32mx/lib/speed/libe.a(_strtof.o)
 .debug_pubnames
                0x0000009e       0x1e /opt/microchip/mplabc32/v2.02/bin/../lib/gcc/pic32mx/4.5.1/../../../../pic32mx/lib/speed/libe.a(_ldexp.o)
 .debug_pubnames
                0x000000bc       0x1f /opt/microchip/mplabc32/v2.02/bin/../lib/gcc/pic32mx/4.5.1/../../../../pic32mx/lib/speed/libe.a(_ldexpf.o)
 .debug_pubnames
                0x000000db       0x24 /opt/microchip/mplabc32/v2.02/bin/../lib/gcc/pic32mx/4.5.1/../../../../pic32mx/lib/speed/libmchp_peripheral.a(read_core_timer_lib.o)
 .debug_pubnames
                0x000000ff       0x80 /opt/microchip/mplabc32/v2.02/bin/../lib/gcc/pic32mx/4.5.1/../../../../pic32mx/lib/speed/libmchp_peripheral_32MX795F512L.a(eth_ack_packet_lib.o)
 .debug_pubnames
                0x0000017f       0x42 /opt/microchip/mplabc32/v2.02/bin/../lib/gcc/pic32mx/4.5.1/../../../../pic32mx/lib/speed/libmchp_peripheral_32MX795F512L.a(eth_descriptors_add_lib.o)
 .debug_pubnames
                0x000001c1       0x1e /opt/microchip/mplabc32/v2.02/bin/../lib/gcc/pic32mx/4.5.1/../../../../pic32mx/lib/speed/libmchp_peripheral_32MX795F512L.a(eth_init_lib.o)
 .debug_pubnames
                0x000001df       0x21 /opt/microchip/mplabc32/v2.02/bin/../lib/gcc/pic32mx/4.5.1/../../../../pic32mx/lib/speed/libmchp_peripheral_32MX795F512L.a(eth_mac_open_lib.o)
 .debug_pubnames
                0x00000200       0x52 /opt/microchip/mplabc32/v2.02/bin/../lib/gcc/pic32mx/4.5.1/../../../../pic32mx/lib/speed/libmchp_peripheral_32MX795F512L.a(eth_mac_set_address_max_lib.o)
 .debug_pubnames
                0x00000252       0x29 /opt/microchip/mplabc32/v2.02/bin/../lib/gcc/pic32mx/4.5.1/../../../../pic32mx/lib/speed/libmchp_peripheral_32MX795F512L.a(eth_rx_buffers_append_lib.o)
 .debug_pubnames
                0x0000027b       0x92 /opt/microchip/mplabc32/v2.02/bin/../lib/gcc/pic32mx/4.5.1/../../../../pic32mx/lib/speed/libmchp_peripheral_32MX795F512L.a(eth_rx_filters_lib.o)
 .debug_pubnames
                0x0000030d       0x38 /opt/microchip/mplabc32/v2.02/bin/../lib/gcc/pic32mx/4.5.1/../../../../pic32mx/lib/speed/libmchp_peripheral_32MX795F512L.a(eth_rx_get_packet_lib.o)
 .debug_pubnames
                0x00000345       0x29 /opt/microchip/mplabc32/v2.02/bin/../lib/gcc/pic32mx/4.5.1/../../../../pic32mx/lib/speed/libmchp_peripheral_32MX795F512L.a(eth_rx_set_buffer_size_lib.o)
 .debug_pubnames
                0x0000036e       0x66 /opt/microchip/mplabc32/v2.02/bin/../lib/gcc/pic32mx/4.5.1/../../../../pic32mx/lib/speed/libmchp_peripheral_32MX795F512L.a(eth_tx_packet_lib.o)
 .debug_pubnames
                0x000003d4       0x29 /opt/microchip/mplabc32/v2.02/bin/../lib/gcc/pic32mx/4.5.1/../../../../pic32mx/lib/speed/libmchp_peripheral_32MX795F512L.a(_eth_append_busy_list_lib.o)
 .debug_pubnames
                0x000003fd       0x90 /opt/microchip/mplabc32/v2.02/bin/../lib/gcc/pic32mx/4.5.1/../../../../pic32mx/lib/speed/libmchp_peripheral_32MX795F512L.a(eth_miim_access.o)
 .debug_pubnames
                0x0000048d       0x20 /opt/microchip/mplabc32/v2.02/bin/../lib/gcc/pic32mx/4.5.1/../../../../pic32mx/lib/speed/libmchp_peripheral_32MX795F512L.a(soft_reset_lib.o)
 .debug_pubnames
                0x000004ad       0x3b /opt/microchip/mplabc32/v2.02/bin/../lib/gcc/pic32mx/4.5.1/../../../../pic32mx/lib/speed/libmchp_peripheral_32MX795F512L.a(pcache.o)
 .debug_pubnames
                0x000004e8       0x2b /opt/microchip/mplabc32/v2.02/bin/../lib/gcc/pic32mx/4.5.1/../../../../pic32mx/lib/speed/libmchp_peripheral_32MX795F512L.a(int_disable_interrupts_lib.o)
 .debug_pubnames
                0x00000513       0x2b /opt/microchip/mplabc32/v2.02/bin/../lib/gcc/pic32mx/4.5.1/../../../../pic32mx/lib/speed/libmchp_peripheral_32MX795F512L.a(int_restore_interrupts_lib.o)
 .debug_pubnames
                0x0000053e       0x36 /opt/microchip/mplabc32/v2.02/bin/../lib/gcc/pic32mx/4.5.1/../../../../pic32mx/lib/speed/libmchp_peripheral_32MX795F512L.a(int_enable_mv_int_lib.o)
 .debug_pubnames
                0x00000574       0xca /opt/microchip/mplabc32/v2.02/bin/../lib/gcc/pic32mx/4.5.1/../../../../pic32mx/lib/speed/libmchp_peripheral_32MX795F512L.a(int_tbl_lib.o)
 .debug_pubnames
                0x0000063e       0x2b /opt/microchip/mplabc32/v2.02/bin/../lib/gcc/pic32mx/4.5.1/../../../../pic32mx/lib/speed/libmchp_peripheral_32MX795F512L.a(port_set_pins_digital_in_lib.o)
 .debug_pubnames
                0x00000669       0x2c /opt/microchip/mplabc32/v2.02/bin/../lib/gcc/pic32mx/4.5.1/../../../../pic32mx/lib/speed/libmchp_peripheral_32MX795F512L.a(port_set_pins_digital_out_lib.o)
 .debug_pubnames
                0x00000695       0xb1 /opt/microchip/mplabc32/v2.02/bin/../lib/gcc/pic32mx/4.5.1/../../../../pic32mx/lib/speed/libmchp_peripheral_32MX795F512L.a(uart_lib.o)
 .debug_pubnames
                0x00000746       0x2a /opt/microchip/mplabc32/v2.02/bin/../lib/gcc/pic32mx/4.5.1/../../../../pic32mx/lib/speed/libmchp_peripheral_32MX795F512L.a(int_enable_interrupts_lib.o)
 .debug_pubnames
                0x00000770       0x21 /opt/microchip/mplabc32/v2.02/bin/../lib/gcc/pic32mx/4.5.1/../../../../pic32mx/lib/speed/libe.a(_unorddf2.o)
 .debug_pubnames
                0x00000791       0x20 /opt/microchip/mplabc32/v2.02/bin/../lib/gcc/pic32mx/4.5.1/speed/libgcc.a(_lshrdi3.o)
 .debug_pubnames
                0x000007b1       0x20 /opt/microchip/mplabc32/v2.02/bin/../lib/gcc/pic32mx/4.5.1/speed/libgcc.a(_ashldi3.o)
 .debug_pubnames
                0x000007d1       0x1f /opt/microchip/mplabc32/v2.02/bin/../lib/gcc/pic32mx/4.5.1/speed/libgcc.a(_divdi3.o)
 .debug_pubnames
                0x000007f0       0x20 /opt/microchip/mplabc32/v2.02/bin/../lib/gcc/pic32mx/4.5.1/speed/libgcc.a(_umoddi3.o)

.debug_info     0x00000000     0x3be3
 *(.debug_info .gnu.linkonce.wi.*)
 .debug_info    0x00000000      0x78c /opt/microchip/mplabc32/v2.02/bin/../lib/gcc/pic32mx/4.5.1/speed/libgcc.a(_udivdi3.o)
 .debug_info    0x0000078c      0x191 /opt/microchip/mplabc32/v2.02/bin/../lib/gcc/pic32mx/4.5.1/speed/libgcc.a(floatunsisf.o)
 .debug_info    0x0000091d       0xdb /opt/microchip/mplabc32/v2.02/bin/../lib/gcc/pic32mx/4.5.1/../../../../pic32mx/lib/speed/libm.a(w_log10.o)
 .debug_info    0x000009f8        0x0 /opt/microchip/mplabc32/v2.02/bin/../lib/gcc/pic32mx/4.5.1/../../../../pic32mx/lib/speed/libm.a(s_lib_ver.o)
 .debug_info    0x000009f8       0xe3 /opt/microchip/mplabc32/v2.02/bin/../lib/gcc/pic32mx/4.5.1/../../../../pic32mx/lib/speed/libe.a(_strtod.o)
 .debug_info    0x00000adb       0xe3 /opt/microchip/mplabc32/v2.02/bin/../lib/gcc/pic32mx/4.5.1/../../../../pic32mx/lib/speed/libe.a(_strtof.o)
 .debug_info    0x00000bbe       0xef /opt/microchip/mplabc32/v2.02/bin/../lib/gcc/pic32mx/4.5.1/../../../../pic32mx/lib/speed/libe.a(_ldexp.o)
 .debug_info    0x00000cad       0xf0 /opt/microchip/mplabc32/v2.02/bin/../lib/gcc/pic32mx/4.5.1/../../../../pic32mx/lib/speed/libe.a(_ldexpf.o)
 .debug_info    0x00000d9d       0xbf /opt/microchip/mplabc32/v2.02/bin/../lib/gcc/pic32mx/4.5.1/../../../../pic32mx/lib/speed/libmchp_peripheral.a(read_core_timer_lib.o)
 .debug_info    0x00000e5c      0x180 /opt/microchip/mplabc32/v2.02/bin/../lib/gcc/pic32mx/4.5.1/../../../../pic32mx/lib/speed/libmchp_peripheral_32MX795F512L.a(eth_ack_packet_lib.o)
 .debug_info    0x00000fdc      0x107 /opt/microchip/mplabc32/v2.02/bin/../lib/gcc/pic32mx/4.5.1/../../../../pic32mx/lib/speed/libmchp_peripheral_32MX795F512L.a(eth_descriptors_add_lib.o)
 .debug_info    0x000010e3       0xd3 /opt/microchip/mplabc32/v2.02/bin/../lib/gcc/pic32mx/4.5.1/../../../../pic32mx/lib/speed/libmchp_peripheral_32MX795F512L.a(eth_init_lib.o)
 .debug_info    0x000011b6       0xb7 /opt/microchip/mplabc32/v2.02/bin/../lib/gcc/pic32mx/4.5.1/../../../../pic32mx/lib/speed/libmchp_peripheral_32MX795F512L.a(eth_mac_open_lib.o)
 .debug_info    0x0000126d      0x107 /opt/microchip/mplabc32/v2.02/bin/../lib/gcc/pic32mx/4.5.1/../../../../pic32mx/lib/speed/libmchp_peripheral_32MX795F512L.a(eth_mac_set_address_max_lib.o)
 .debug_info    0x00001374       0xfb /opt/microchip/mplabc32/v2.02/bin/../lib/gcc/pic32mx/4.5.1/../../../../pic32mx/lib/speed/libmchp_peripheral_32MX795F512L.a(eth_rx_buffers_append_lib.o)
 .debug_info    0x0000146f      0x15c /opt/microchip/mplabc32/v2.02/bin/../lib/gcc/pic32mx/4.5.1/../../../../pic32mx/lib/speed/libmchp_peripheral_32MX795F512L.a(eth_rx_filters_lib.o)
 .debug_info    0x000015cb       0xdd /opt/microchip/mplabc32/v2.02/bin/../lib/gcc/pic32mx/4.5.1/../../../../pic32mx/lib/speed/libmchp_peripheral_32MX795F512L.a(eth_rx_get_packet_lib.o)
 .debug_info    0x000016a8       0xc9 /opt/microchip/mplabc32/v2.02/bin/../lib/gcc/pic32mx/4.5.1/../../../../pic32mx/lib/speed/libmchp_peripheral_32MX795F512L.a(eth_rx_set_buffer_size_lib.o)
 .debug_info    0x00001771      0x17f /opt/microchip/mplabc32/v2.02/bin/../lib/gcc/pic32mx/4.5.1/../../../../pic32mx/lib/speed/libmchp_peripheral_32MX795F512L.a(eth_tx_packet_lib.o)
 .debug_info    0x000018f0       0xe9 /opt/microchip/mplabc32/v2.02/bin/../lib/gcc/pic32mx/4.5.1/../../../../pic32mx/lib/speed/libmchp_peripheral_32MX795F512L.a(_eth_append_busy_list_lib.o)
 .debug_info    0x000019d9      0x158 /opt/microchip/mplabc32/v2.02/bin/../lib/gcc/pic32mx/4.5.1/../../../../pic32mx/lib/speed/libmchp_peripheral_32MX795F512L.a(eth_miim_access.o)
 .debug_info    0x00001b31       0xc7 /opt/microchip/mplabc32/v2.02/bin/../lib/gcc/pic32mx/4.5.1/../../../../pic32mx/lib/speed/libmchp_peripheral_32MX795F512L.a(soft_reset_lib.o)
 .debug_info    0x00001bf8       0xd4 /opt/microchip/mplabc32/v2.02/bin/../lib/gcc/pic32mx/4.5.1/../../../../pic32mx/lib/speed/libmchp_peripheral_32MX795F512L.a(pcache.o)
 .debug_info    0x00001ccc       0xcb /opt/microchip/mplabc32/v2.02/bin/../lib/gcc/pic32mx/4.5.1/../../../../pic32mx/lib/speed/libmchp_peripheral_32MX795F512L.a(int_disable_interrupts_lib.o)
 .debug_info    0x00001d97       0xcb /opt/microchip/mplabc32/v2.02/bin/../lib/gcc/pic32mx/4.5.1/../../../../pic32mx/lib/speed/libmchp_peripheral_32MX795F512L.a(int_restore_interrupts_lib.o)
 .debug_info    0x00001e62       0xd1 /opt/microchip/mplabc32/v2.02/bin/../lib/gcc/pic32mx/4.5.1/../../../../pic32mx/lib/speed/libmchp_peripheral_32MX795F512L.a(int_enable_mv_int_lib.o)
 .debug_info    0x00001f33      0x1ab /opt/microchip/mplabc32/v2.02/bin/../lib/gcc/pic32mx/4.5.1/../../../../pic32mx/lib/speed/libmchp_peripheral_32MX795F512L.a(int_tbl_lib.o)
 .debug_info    0x000020de       0xcf /opt/microchip/mplabc32/v2.02/bin/../lib/gcc/pic32mx/4.5.1/../../../../pic32mx/lib/speed/libmchp_peripheral_32MX795F512L.a(port_set_pins_digital_in_lib.o)
 .debug_info    0x000021ad       0xd1 /opt/microchip/mplabc32/v2.02/bin/../lib/gcc/pic32mx/4.5.1/../../../../pic32mx/lib/speed/libmchp_peripheral_32MX795F512L.a(port_set_pins_digital_out_lib.o)
 .debug_info    0x0000227e        0x0 /opt/microchip/mplabc32/v2.02/bin/../lib/gcc/pic32mx/4.5.1/../../../../pic32mx/lib/speed/libmchp_peripheral_32MX795F512L.a(_ports_tbl_libp.o)
 .debug_info    0x0000227e      0x18a /opt/microchip/mplabc32/v2.02/bin/../lib/gcc/pic32mx/4.5.1/../../../../pic32mx/lib/speed/libmchp_peripheral_32MX795F512L.a(uart_lib.o)
 .debug_info    0x00002408       0xc9 /opt/microchip/mplabc32/v2.02/bin/../lib/gcc/pic32mx/4.5.1/../../../../pic32mx/lib/speed/libmchp_peripheral_32MX795F512L.a(int_enable_interrupts_lib.o)
 .debug_info    0x000024d1       0xe5 /opt/microchip/mplabc32/v2.02/bin/../lib/gcc/pic32mx/4.5.1/../../../../pic32mx/lib/speed/libe.a(_unorddf2.o)
 .debug_info    0x000025b6      0x352 /opt/microchip/mplabc32/v2.02/bin/../lib/gcc/pic32mx/4.5.1/speed/libgcc.a(_lshrdi3.o)
 .debug_info    0x00002908      0x34e /opt/microchip/mplabc32/v2.02/bin/../lib/gcc/pic32mx/4.5.1/speed/libgcc.a(_ashldi3.o)
 .debug_info    0x00002c56      0x7c4 /opt/microchip/mplabc32/v2.02/bin/../lib/gcc/pic32mx/4.5.1/speed/libgcc.a(_divdi3.o)
 .debug_info    0x0000341a      0x7c9 /opt/microchip/mplabc32/v2.02/bin/../lib/gcc/pic32mx/4.5.1/speed/libgcc.a(_umoddi3.o)

.debug_abbrev   0x00000000      0xb5c
 *(.debug_abbrev)
 .debug_abbrev  0x00000000      0x13d /opt/microchip/mplabc32/v2.02/bin/../lib/gcc/pic32mx/4.5.1/speed/libgcc.a(_udivdi3.o)
 .debug_abbrev  0x0000013d       0x61 /opt/microchip/mplabc32/v2.02/bin/../lib/gcc/pic32mx/4.5.1/speed/libgcc.a(floatunsisf.o)
 .debug_abbrev  0x0000019e       0x25 /opt/microchip/mplabc32/v2.02/bin/../lib/gcc/pic32mx/4.5.1/../../../../pic32mx/lib/speed/libm.a(w_log10.o)
 .debug_abbrev  0x000001c3        0x1 /opt/microchip/mplabc32/v2.02/bin/../lib/gcc/pic32mx/4.5.1/../../../../pic32mx/lib/speed/libm.a(s_lib_ver.o)
 .debug_abbrev  0x000001c4       0x32 /opt/microchip/mplabc32/v2.02/bin/../lib/gcc/pic32mx/4.5.1/../../../../pic32mx/lib/speed/libe.a(_strtod.o)
 .debug_abbrev  0x000001f6       0x32 /opt/microchip/mplabc32/v2.02/bin/../lib/gcc/pic32mx/4.5.1/../../../../pic32mx/lib/speed/libe.a(_strtof.o)
 .debug_abbrev  0x00000228       0x32 /opt/microchip/mplabc32/v2.02/bin/../lib/gcc/pic32mx/4.5.1/../../../../pic32mx/lib/speed/libe.a(_ldexp.o)
 .debug_abbrev  0x0000025a       0x32 /opt/microchip/mplabc32/v2.02/bin/../lib/gcc/pic32mx/4.5.1/../../../../pic32mx/lib/speed/libe.a(_ldexpf.o)
 .debug_abbrev  0x0000028c       0x25 /opt/microchip/mplabc32/v2.02/bin/../lib/gcc/pic32mx/4.5.1/../../../../pic32mx/lib/speed/libmchp_peripheral.a(read_core_timer_lib.o)
 .debug_abbrev  0x000002b1       0x58 /opt/microchip/mplabc32/v2.02/bin/../lib/gcc/pic32mx/4.5.1/../../../../pic32mx/lib/speed/libmchp_peripheral_32MX795F512L.a(eth_ack_packet_lib.o)
 .debug_abbrev  0x00000309       0x34 /opt/microchip/mplabc32/v2.02/bin/../lib/gcc/pic32mx/4.5.1/../../../../pic32mx/lib/speed/libmchp_peripheral_32MX795F512L.a(eth_descriptors_add_lib.o)
 .debug_abbrev  0x0000033d       0x34 /opt/microchip/mplabc32/v2.02/bin/../lib/gcc/pic32mx/4.5.1/../../../../pic32mx/lib/speed/libmchp_peripheral_32MX795F512L.a(eth_init_lib.o)
 .debug_abbrev  0x00000371       0x25 /opt/microchip/mplabc32/v2.02/bin/../lib/gcc/pic32mx/4.5.1/../../../../pic32mx/lib/speed/libmchp_peripheral_32MX795F512L.a(eth_mac_open_lib.o)
 .debug_abbrev  0x00000396       0x25 /opt/microchip/mplabc32/v2.02/bin/../lib/gcc/pic32mx/4.5.1/../../../../pic32mx/lib/speed/libmchp_peripheral_32MX795F512L.a(eth_mac_set_address_max_lib.o)
 .debug_abbrev  0x000003bb       0x34 /opt/microchip/mplabc32/v2.02/bin/../lib/gcc/pic32mx/4.5.1/../../../../pic32mx/lib/speed/libmchp_peripheral_32MX795F512L.a(eth_rx_buffers_append_lib.o)
 .debug_abbrev  0x000003ef       0x25 /opt/microchip/mplabc32/v2.02/bin/../lib/gcc/pic32mx/4.5.1/../../../../pic32mx/lib/speed/libmchp_peripheral_32MX795F512L.a(eth_rx_filters_lib.o)
 .debug_abbrev  0x00000414       0x25 /opt/microchip/mplabc32/v2.02/bin/../lib/gcc/pic32mx/4.5.1/../../../../pic32mx/lib/speed/libmchp_peripheral_32MX795F512L.a(eth_rx_get_packet_lib.o)
 .debug_abbrev  0x00000439       0x25 /opt/microchip/mplabc32/v2.02/bin/../lib/gcc/pic32mx/4.5.1/../../../../pic32mx/lib/speed/libmchp_peripheral_32MX795F512L.a(eth_rx_set_buffer_size_lib.o)
 .debug_abbrev  0x0000045e       0x5d /opt/microchip/mplabc32/v2.02/bin/../lib/gcc/pic32mx/4.5.1/../../../../pic32mx/lib/speed/libmchp_peripheral_32MX795F512L.a(eth_tx_packet_lib.o)
 .debug_abbrev  0x000004bb       0x34 /opt/microchip/mplabc32/v2.02/bin/../lib/gcc/pic32mx/4.5.1/../../../../pic32mx/lib/speed/libmchp_peripheral_32MX795F512L.a(_eth_append_busy_list_lib.o)
 .debug_abbrev  0x000004ef       0x38 /opt/microchip/mplabc32/v2.02/bin/../lib/gcc/pic32mx/4.5.1/../../../../pic32mx/lib/speed/libmchp_peripheral_32MX795F512L.a(eth_miim_access.o)
 .debug_abbrev  0x00000527       0x34 /opt/microchip/mplabc32/v2.02/bin/../lib/gcc/pic32mx/4.5.1/../../../../pic32mx/lib/speed/libmchp_peripheral_32MX795F512L.a(soft_reset_lib.o)
 .debug_abbrev  0x0000055b       0x25 /opt/microchip/mplabc32/v2.02/bin/../lib/gcc/pic32mx/4.5.1/../../../../pic32mx/lib/speed/libmchp_peripheral_32MX795F512L.a(pcache.o)
 .debug_abbrev  0x00000580       0x25 /opt/microchip/mplabc32/v2.02/bin/../lib/gcc/pic32mx/4.5.1/../../../../pic32mx/lib/speed/libmchp_peripheral_32MX795F512L.a(int_disable_interrupts_lib.o)
 .debug_abbrev  0x000005a5       0x25 /opt/microchip/mplabc32/v2.02/bin/../lib/gcc/pic32mx/4.5.1/../../../../pic32mx/lib/speed/libmchp_peripheral_32MX795F512L.a(int_restore_interrupts_lib.o)
 .debug_abbrev  0x000005ca       0x25 /opt/microchip/mplabc32/v2.02/bin/../lib/gcc/pic32mx/4.5.1/../../../../pic32mx/lib/speed/libmchp_peripheral_32MX795F512L.a(int_enable_mv_int_lib.o)
 .debug_abbrev  0x000005ef       0x25 /opt/microchip/mplabc32/v2.02/bin/../lib/gcc/pic32mx/4.5.1/../../../../pic32mx/lib/speed/libmchp_peripheral_32MX795F512L.a(int_tbl_lib.o)
 .debug_abbrev  0x00000614       0x25 /opt/microchip/mplabc32/v2.02/bin/../lib/gcc/pic32mx/4.5.1/../../../../pic32mx/lib/speed/libmchp_peripheral_32MX795F512L.a(port_set_pins_digital_in_lib.o)
 .debug_abbrev  0x00000639       0x25 /opt/microchip/mplabc32/v2.02/bin/../lib/gcc/pic32mx/4.5.1/../../../../pic32mx/lib/speed/libmchp_peripheral_32MX795F512L.a(port_set_pins_digital_out_lib.o)
 .debug_abbrev  0x0000065e        0x1 /opt/microchip/mplabc32/v2.02/bin/../lib/gcc/pic32mx/4.5.1/../../../../pic32mx/lib/speed/libmchp_peripheral_32MX795F512L.a(_ports_tbl_libp.o)
 .debug_abbrev  0x0000065f       0x38 /opt/microchip/mplabc32/v2.02/bin/../lib/gcc/pic32mx/4.5.1/../../../../pic32mx/lib/speed/libmchp_peripheral_32MX795F512L.a(uart_lib.o)
 .debug_abbrev  0x00000697       0x25 /opt/microchip/mplabc32/v2.02/bin/../lib/gcc/pic32mx/4.5.1/../../../../pic32mx/lib/speed/libmchp_peripheral_32MX795F512L.a(int_enable_interrupts_lib.o)
 .debug_abbrev  0x000006bc       0x32 /opt/microchip/mplabc32/v2.02/bin/../lib/gcc/pic32mx/4.5.1/../../../../pic32mx/lib/speed/libe.a(_unorddf2.o)
 .debug_abbrev  0x000006ee       0xe3 /opt/microchip/mplabc32/v2.02/bin/../lib/gcc/pic32mx/4.5.1/speed/libgcc.a(_lshrdi3.o)
 .debug_abbrev  0x000007d1       0xe3 /opt/microchip/mplabc32/v2.02/bin/../lib/gcc/pic32mx/4.5.1/speed/libgcc.a(_ashldi3.o)
 .debug_abbrev  0x000008b4      0x14c /opt/microchip/mplabc32/v2.02/bin/../lib/gcc/pic32mx/4.5.1/speed/libgcc.a(_divdi3.o)
 .debug_abbrev  0x00000a00      0x15c /opt/microchip/mplabc32/v2.02/bin/../lib/gcc/pic32mx/4.5.1/speed/libgcc.a(_umoddi3.o)

.debug_line     0x00000000     0x138d
 *(.debug_line)
 .debug_line    0x00000000      0x118 /opt/microchip/mplabc32/v2.02/bin/../lib/gcc/pic32mx/4.5.1/speed/libgcc.a(_udivdi3.o)
 .debug_line    0x00000118       0x70 /opt/microchip/mplabc32/v2.02/bin/../lib/gcc/pic32mx/4.5.1/speed/libgcc.a(floatunsisf.o)
 .debug_line    0x00000188       0x92 /opt/microchip/mplabc32/v2.02/bin/../lib/gcc/pic32mx/4.5.1/../../../../pic32mx/lib/speed/libm.a(w_log10.o)
 .debug_line    0x0000021a        0x0 /opt/microchip/mplabc32/v2.02/bin/../lib/gcc/pic32mx/4.5.1/../../../../pic32mx/lib/speed/libm.a(s_lib_ver.o)
 .debug_line    0x0000021a       0x93 /opt/microchip/mplabc32/v2.02/bin/../lib/gcc/pic32mx/4.5.1/../../../../pic32mx/lib/speed/libe.a(_strtod.o)
 .debug_line    0x000002ad       0x93 /opt/microchip/mplabc32/v2.02/bin/../lib/gcc/pic32mx/4.5.1/../../../../pic32mx/lib/speed/libe.a(_strtof.o)
 .debug_line    0x00000340       0xa6 /opt/microchip/mplabc32/v2.02/bin/../lib/gcc/pic32mx/4.5.1/../../../../pic32mx/lib/speed/libe.a(_ldexp.o)
 .debug_line    0x000003e6       0xa6 /opt/microchip/mplabc32/v2.02/bin/../lib/gcc/pic32mx/4.5.1/../../../../pic32mx/lib/speed/libe.a(_ldexpf.o)
 .debug_line    0x0000048c       0x6e /opt/microchip/mplabc32/v2.02/bin/../lib/gcc/pic32mx/4.5.1/../../../../pic32mx/lib/speed/libmchp_peripheral.a(read_core_timer_lib.o)
 .debug_line    0x000004fa       0x80 /opt/microchip/mplabc32/v2.02/bin/../lib/gcc/pic32mx/4.5.1/../../../../pic32mx/lib/speed/libmchp_peripheral_32MX795F512L.a(eth_ack_packet_lib.o)
 .debug_line    0x0000057a       0x85 /opt/microchip/mplabc32/v2.02/bin/../lib/gcc/pic32mx/4.5.1/../../../../pic32mx/lib/speed/libmchp_peripheral_32MX795F512L.a(eth_descriptors_add_lib.o)
 .debug_line    0x000005ff       0x77 /opt/microchip/mplabc32/v2.02/bin/../lib/gcc/pic32mx/4.5.1/../../../../pic32mx/lib/speed/libmchp_peripheral_32MX795F512L.a(eth_init_lib.o)
 .debug_line    0x00000676       0x69 /opt/microchip/mplabc32/v2.02/bin/../lib/gcc/pic32mx/4.5.1/../../../../pic32mx/lib/speed/libmchp_peripheral_32MX795F512L.a(eth_mac_open_lib.o)
 .debug_line    0x000006df       0x74 /opt/microchip/mplabc32/v2.02/bin/../lib/gcc/pic32mx/4.5.1/../../../../pic32mx/lib/speed/libmchp_peripheral_32MX795F512L.a(eth_mac_set_address_max_lib.o)
 .debug_line    0x00000753       0x87 /opt/microchip/mplabc32/v2.02/bin/../lib/gcc/pic32mx/4.5.1/../../../../pic32mx/lib/speed/libmchp_peripheral_32MX795F512L.a(eth_rx_buffers_append_lib.o)
 .debug_line    0x000007da       0x6b /opt/microchip/mplabc32/v2.02/bin/../lib/gcc/pic32mx/4.5.1/../../../../pic32mx/lib/speed/libmchp_peripheral_32MX795F512L.a(eth_rx_filters_lib.o)
 .debug_line    0x00000845       0x6e /opt/microchip/mplabc32/v2.02/bin/../lib/gcc/pic32mx/4.5.1/../../../../pic32mx/lib/speed/libmchp_peripheral_32MX795F512L.a(eth_rx_get_packet_lib.o)
 .debug_line    0x000008b3       0x73 /opt/microchip/mplabc32/v2.02/bin/../lib/gcc/pic32mx/4.5.1/../../../../pic32mx/lib/speed/libmchp_peripheral_32MX795F512L.a(eth_rx_set_buffer_size_lib.o)
 .debug_line    0x00000926       0x7f /opt/microchip/mplabc32/v2.02/bin/../lib/gcc/pic32mx/4.5.1/../../../../pic32mx/lib/speed/libmchp_peripheral_32MX795F512L.a(eth_tx_packet_lib.o)
 .debug_line    0x000009a5       0x87 /opt/microchip/mplabc32/v2.02/bin/../lib/gcc/pic32mx/4.5.1/../../../../pic32mx/lib/speed/libmchp_peripheral_32MX795F512L.a(_eth_append_busy_list_lib.o)
 .debug_line    0x00000a2c       0x68 /opt/microchip/mplabc32/v2.02/bin/../lib/gcc/pic32mx/4.5.1/../../../../pic32mx/lib/speed/libmchp_peripheral_32MX795F512L.a(eth_miim_access.o)
 .debug_line    0x00000a94       0xbf /opt/microchip/mplabc32/v2.02/bin/../lib/gcc/pic32mx/4.5.1/../../../../pic32mx/lib/speed/libmchp_peripheral_32MX795F512L.a(soft_reset_lib.o)
 .debug_line    0x00000b53       0x62 /opt/microchip/mplabc32/v2.02/bin/../lib/gcc/pic32mx/4.5.1/../../../../pic32mx/lib/speed/libmchp_peripheral_32MX795F512L.a(pcache.o)
 .debug_line    0x00000bb5       0x73 /opt/microchip/mplabc32/v2.02/bin/../lib/gcc/pic32mx/4.5.1/../../../../pic32mx/lib/speed/libmchp_peripheral_32MX795F512L.a(int_disable_interrupts_lib.o)
 .debug_line    0x00000c28       0x73 /opt/microchip/mplabc32/v2.02/bin/../lib/gcc/pic32mx/4.5.1/../../../../pic32mx/lib/speed/libmchp_peripheral_32MX795F512L.a(int_restore_interrupts_lib.o)
 .debug_line    0x00000c9b       0x6e /opt/microchip/mplabc32/v2.02/bin/../lib/gcc/pic32mx/4.5.1/../../../../pic32mx/lib/speed/libmchp_peripheral_32MX795F512L.a(int_enable_mv_int_lib.o)
 .debug_line    0x00000d09       0x64 /opt/microchip/mplabc32/v2.02/bin/../lib/gcc/pic32mx/4.5.1/../../../../pic32mx/lib/speed/libmchp_peripheral_32MX795F512L.a(int_tbl_lib.o)
 .debug_line    0x00000d6d       0x77 /opt/microchip/mplabc32/v2.02/bin/../lib/gcc/pic32mx/4.5.1/../../../../pic32mx/lib/speed/libmchp_peripheral_32MX795F512L.a(port_set_pins_digital_in_lib.o)
 .debug_line    0x00000de4       0x78 /opt/microchip/mplabc32/v2.02/bin/../lib/gcc/pic32mx/4.5.1/../../../../pic32mx/lib/speed/libmchp_peripheral_32MX795F512L.a(port_set_pins_digital_out_lib.o)
 .debug_line    0x00000e5c        0x0 /opt/microchip/mplabc32/v2.02/bin/../lib/gcc/pic32mx/4.5.1/../../../../pic32mx/lib/speed/libmchp_peripheral_32MX795F512L.a(_ports_tbl_libp.o)
 .debug_line    0x00000e5c       0x62 /opt/microchip/mplabc32/v2.02/bin/../lib/gcc/pic32mx/4.5.1/../../../../pic32mx/lib/speed/libmchp_peripheral_32MX795F512L.a(uart_lib.o)
 .debug_line    0x00000ebe       0x72 /opt/microchip/mplabc32/v2.02/bin/../lib/gcc/pic32mx/4.5.1/../../../../pic32mx/lib/speed/libmchp_peripheral_32MX795F512L.a(int_enable_interrupts_lib.o)
 .debug_line    0x00000f30       0x92 /opt/microchip/mplabc32/v2.02/bin/../lib/gcc/pic32mx/4.5.1/../../../../pic32mx/lib/speed/libe.a(_unorddf2.o)
 .debug_line    0x00000fc2       0xbe /opt/microchip/mplabc32/v2.02/bin/../lib/gcc/pic32mx/4.5.1/speed/libgcc.a(_lshrdi3.o)
 .debug_line    0x00001080       0xc0 /opt/microchip/mplabc32/v2.02/bin/../lib/gcc/pic32mx/4.5.1/speed/libgcc.a(_ashldi3.o)
 .debug_line    0x00001140      0x11f /opt/microchip/mplabc32/v2.02/bin/../lib/gcc/pic32mx/4.5.1/speed/libgcc.a(_divdi3.o)
 .debug_line    0x0000125f      0x12e /opt/microchip/mplabc32/v2.02/bin/../lib/gcc/pic32mx/4.5.1/speed/libgcc.a(_umoddi3.o)

.debug_frame    0x00000000      0x774
 *(.debug_frame)
 .debug_frame   0x00000000       0x28 /opt/microchip/mplabc32/v2.02/bin/../lib/gcc/pic32mx/4.5.1/speed/libgcc.a(floatunsisf.o)
 .debug_frame   0x00000028       0x2c /opt/microchip/mplabc32/v2.02/bin/../lib/gcc/pic32mx/4.5.1/../../../../pic32mx/lib/speed/libm.a(w_log10.o)
 .debug_frame   0x00000054       0x38 /opt/microchip/mplabc32/v2.02/bin/../lib/gcc/pic32mx/4.5.1/../../../../pic32mx/lib/speed/libe.a(_strtod.o)
 .debug_frame   0x0000008c       0x38 /opt/microchip/mplabc32/v2.02/bin/../lib/gcc/pic32mx/4.5.1/../../../../pic32mx/lib/speed/libe.a(_strtof.o)
 .debug_frame   0x000000c4       0x34 /opt/microchip/mplabc32/v2.02/bin/../lib/gcc/pic32mx/4.5.1/../../../../pic32mx/lib/speed/libe.a(_ldexp.o)
 .debug_frame   0x000000f8       0x20 /opt/microchip/mplabc32/v2.02/bin/../lib/gcc/pic32mx/4.5.1/../../../../pic32mx/lib/speed/libe.a(_ldexpf.o)
 .debug_frame   0x00000118       0x20 /opt/microchip/mplabc32/v2.02/bin/../lib/gcc/pic32mx/4.5.1/../../../../pic32mx/lib/speed/libmchp_peripheral.a(read_core_timer_lib.o)
 .debug_frame   0x00000138       0xb8 /opt/microchip/mplabc32/v2.02/bin/../lib/gcc/pic32mx/4.5.1/../../../../pic32mx/lib/speed/libmchp_peripheral_32MX795F512L.a(eth_ack_packet_lib.o)
 .debug_frame   0x000001f0       0x54 /opt/microchip/mplabc32/v2.02/bin/../lib/gcc/pic32mx/4.5.1/../../../../pic32mx/lib/speed/libmchp_peripheral_32MX795F512L.a(eth_descriptors_add_lib.o)
 .debug_frame   0x00000244       0x28 /opt/microchip/mplabc32/v2.02/bin/../lib/gcc/pic32mx/4.5.1/../../../../pic32mx/lib/speed/libmchp_peripheral_32MX795F512L.a(eth_init_lib.o)
 .debug_frame   0x0000026c       0x20 /opt/microchip/mplabc32/v2.02/bin/../lib/gcc/pic32mx/4.5.1/../../../../pic32mx/lib/speed/libmchp_peripheral_32MX795F512L.a(eth_mac_open_lib.o)
 .debug_frame   0x0000028c       0x50 /opt/microchip/mplabc32/v2.02/bin/../lib/gcc/pic32mx/4.5.1/../../../../pic32mx/lib/speed/libmchp_peripheral_32MX795F512L.a(eth_mac_set_address_max_lib.o)
 .debug_frame   0x000002dc       0x2c /opt/microchip/mplabc32/v2.02/bin/../lib/gcc/pic32mx/4.5.1/../../../../pic32mx/lib/speed/libmchp_peripheral_32MX795F512L.a(eth_rx_buffers_append_lib.o)
 .debug_frame   0x00000308       0x70 /opt/microchip/mplabc32/v2.02/bin/../lib/gcc/pic32mx/4.5.1/../../../../pic32mx/lib/speed/libmchp_peripheral_32MX795F512L.a(eth_rx_filters_lib.o)
 .debug_frame   0x00000378       0x3c /opt/microchip/mplabc32/v2.02/bin/../lib/gcc/pic32mx/4.5.1/../../../../pic32mx/lib/speed/libmchp_peripheral_32MX795F512L.a(eth_rx_get_packet_lib.o)
 .debug_frame   0x000003b4       0x20 /opt/microchip/mplabc32/v2.02/bin/../lib/gcc/pic32mx/4.5.1/../../../../pic32mx/lib/speed/libmchp_peripheral_32MX795F512L.a(eth_rx_set_buffer_size_lib.o)
 .debug_frame   0x000003d4       0x60 /opt/microchip/mplabc32/v2.02/bin/../lib/gcc/pic32mx/4.5.1/../../../../pic32mx/lib/speed/libmchp_peripheral_32MX795F512L.a(eth_tx_packet_lib.o)
 .debug_frame   0x00000434       0x20 /opt/microchip/mplabc32/v2.02/bin/../lib/gcc/pic32mx/4.5.1/../../../../pic32mx/lib/speed/libmchp_peripheral_32MX795F512L.a(_eth_append_busy_list_lib.o)
 .debug_frame   0x00000454       0x70 /opt/microchip/mplabc32/v2.02/bin/../lib/gcc/pic32mx/4.5.1/../../../../pic32mx/lib/speed/libmchp_peripheral_32MX795F512L.a(eth_miim_access.o)
 .debug_frame   0x000004c4       0x28 /opt/microchip/mplabc32/v2.02/bin/../lib/gcc/pic32mx/4.5.1/../../../../pic32mx/lib/speed/libmchp_peripheral_32MX795F512L.a(soft_reset_lib.o)
 .debug_frame   0x000004ec       0x30 /opt/microchip/mplabc32/v2.02/bin/../lib/gcc/pic32mx/4.5.1/../../../../pic32mx/lib/speed/libmchp_peripheral_32MX795F512L.a(pcache.o)
 .debug_frame   0x0000051c       0x20 /opt/microchip/mplabc32/v2.02/bin/../lib/gcc/pic32mx/4.5.1/../../../../pic32mx/lib/speed/libmchp_peripheral_32MX795F512L.a(int_disable_interrupts_lib.o)
 .debug_frame   0x0000053c       0x20 /opt/microchip/mplabc32/v2.02/bin/../lib/gcc/pic32mx/4.5.1/../../../../pic32mx/lib/speed/libmchp_peripheral_32MX795F512L.a(int_restore_interrupts_lib.o)
 .debug_frame   0x0000055c       0x28 /opt/microchip/mplabc32/v2.02/bin/../lib/gcc/pic32mx/4.5.1/../../../../pic32mx/lib/speed/libmchp_peripheral_32MX795F512L.a(int_enable_mv_int_lib.o)
 .debug_frame   0x00000584       0xa0 /opt/microchip/mplabc32/v2.02/bin/../lib/gcc/pic32mx/4.5.1/../../../../pic32mx/lib/speed/libmchp_peripheral_32MX795F512L.a(int_tbl_lib.o)
 .debug_frame   0x00000624       0x20 /opt/microchip/mplabc32/v2.02/bin/../lib/gcc/pic32mx/4.5.1/../../../../pic32mx/lib/speed/libmchp_peripheral_32MX795F512L.a(port_set_pins_digital_in_lib.o)
 .debug_frame   0x00000644       0x20 /opt/microchip/mplabc32/v2.02/bin/../lib/gcc/pic32mx/4.5.1/../../../../pic32mx/lib/speed/libmchp_peripheral_32MX795F512L.a(port_set_pins_digital_out_lib.o)
 .debug_frame   0x00000664       0x90 /opt/microchip/mplabc32/v2.02/bin/../lib/gcc/pic32mx/4.5.1/../../../../pic32mx/lib/speed/libmchp_peripheral_32MX795F512L.a(uart_lib.o)
 .debug_frame   0x000006f4       0x20 /opt/microchip/mplabc32/v2.02/bin/../lib/gcc/pic32mx/4.5.1/../../../../pic32mx/lib/speed/libmchp_peripheral_32MX795F512L.a(int_enable_interrupts_lib.o)
 .debug_frame   0x00000714       0x20 /opt/microchip/mplabc32/v2.02/bin/../lib/gcc/pic32mx/4.5.1/../../../../pic32mx/lib/speed/libe.a(_unorddf2.o)
 .debug_frame   0x00000734       0x20 /opt/microchip/mplabc32/v2.02/bin/../lib/gcc/pic32mx/4.5.1/speed/libgcc.a(_lshrdi3.o)
 .debug_frame   0x00000754       0x20 /opt/microchip/mplabc32/v2.02/bin/../lib/gcc/pic32mx/4.5.1/speed/libgcc.a(_ashldi3.o)

.debug_str      0x00000000        0x0
 *(.debug_str)
 .debug_str     0x00000000        0x0 /opt/microchip/mplabc32/v2.02/bin/../lib/gcc/pic32mx/4.5.1/speed/libgcc.a(_udivdi3.o)
 .debug_str     0x00000000        0x0 /opt/microchip/mplabc32/v2.02/bin/../lib/gcc/pic32mx/4.5.1/speed/libgcc.a(floatunsisf.o)
 .debug_str     0x00000000        0x0 /opt/microchip/mplabc32/v2.02/bin/../lib/gcc/pic32mx/4.5.1/../../../../pic32mx/lib/speed/libm.a(w_log10.o)
 .debug_str     0x00000000        0x0 /opt/microchip/mplabc32/v2.02/bin/../lib/gcc/pic32mx/4.5.1/../../../../pic32mx/lib/speed/libm.a(s_lib_ver.o)
 .debug_str     0x00000000        0x0 /opt/microchip/mplabc32/v2.02/bin/../lib/gcc/pic32mx/4.5.1/../../../../pic32mx/lib/speed/libe.a(_strtod.o)
 .debug_str     0x00000000        0x0 /opt/microchip/mplabc32/v2.02/bin/../lib/gcc/pic32mx/4.5.1/../../../../pic32mx/lib/speed/libe.a(_strtof.o)
 .debug_str     0x00000000        0x0 /opt/microchip/mplabc32/v2.02/bin/../lib/gcc/pic32mx/4.5.1/../../../../pic32mx/lib/speed/libe.a(_ldexp.o)
 .debug_str     0x00000000        0x0 /opt/microchip/mplabc32/v2.02/bin/../lib/gcc/pic32mx/4.5.1/../../../../pic32mx/lib/speed/libe.a(_ldexpf.o)
 .debug_str     0x00000000        0x0 /opt/microchip/mplabc32/v2.02/bin/../lib/gcc/pic32mx/4.5.1/../../../../pic32mx/lib/speed/libmchp_peripheral.a(read_core_timer_lib.o)
 .debug_str     0x00000000        0x0 /opt/microchip/mplabc32/v2.02/bin/../lib/gcc/pic32mx/4.5.1/../../../../pic32mx/lib/speed/libmchp_peripheral_32MX795F512L.a(eth_ack_packet_lib.o)
 .debug_str     0x00000000        0x0 /opt/microchip/mplabc32/v2.02/bin/../lib/gcc/pic32mx/4.5.1/../../../../pic32mx/lib/speed/libmchp_peripheral_32MX795F512L.a(eth_descriptors_add_lib.o)
 .debug_str     0x00000000        0x0 /opt/microchip/mplabc32/v2.02/bin/../lib/gcc/pic32mx/4.5.1/../../../../pic32mx/lib/speed/libmchp_peripheral_32MX795F512L.a(eth_init_lib.o)
 .debug_str     0x00000000        0x0 /opt/microchip/mplabc32/v2.02/bin/../lib/gcc/pic32mx/4.5.1/../../../../pic32mx/lib/speed/libmchp_peripheral_32MX795F512L.a(eth_mac_open_lib.o)
 .debug_str     0x00000000        0x0 /opt/microchip/mplabc32/v2.02/bin/../lib/gcc/pic32mx/4.5.1/../../../../pic32mx/lib/speed/libmchp_peripheral_32MX795F512L.a(eth_mac_set_address_max_lib.o)
 .debug_str     0x00000000        0x0 /opt/microchip/mplabc32/v2.02/bin/../lib/gcc/pic32mx/4.5.1/../../../../pic32mx/lib/speed/libmchp_peripheral_32MX795F512L.a(eth_rx_buffers_append_lib.o)
 .debug_str     0x00000000        0x0 /opt/microchip/mplabc32/v2.02/bin/../lib/gcc/pic32mx/4.5.1/../../../../pic32mx/lib/speed/libmchp_peripheral_32MX795F512L.a(eth_rx_filters_lib.o)
 .debug_str     0x00000000        0x0 /opt/microchip/mplabc32/v2.02/bin/../lib/gcc/pic32mx/4.5.1/../../../../pic32mx/lib/speed/libmchp_peripheral_32MX795F512L.a(eth_rx_get_packet_lib.o)
 .debug_str     0x00000000        0x0 /opt/microchip/mplabc32/v2.02/bin/../lib/gcc/pic32mx/4.5.1/../../../../pic32mx/lib/speed/libmchp_peripheral_32MX795F512L.a(eth_rx_set_buffer_size_lib.o)
 .debug_str     0x00000000        0x0 /opt/microchip/mplabc32/v2.02/bin/../lib/gcc/pic32mx/4.5.1/../../../../pic32mx/lib/speed/libmchp_peripheral_32MX795F512L.a(eth_tx_packet_lib.o)
 .debug_str     0x00000000        0x0 /opt/microchip/mplabc32/v2.02/bin/../lib/gcc/pic32mx/4.5.1/../../../../pic32mx/lib/speed/libmchp_peripheral_32MX795F512L.a(_eth_append_busy_list_lib.o)
 .debug_str     0x00000000        0x0 /opt/microchip/mplabc32/v2.02/bin/../lib/gcc/pic32mx/4.5.1/../../../../pic32mx/lib/speed/libmchp_peripheral_32MX795F512L.a(eth_miim_access.o)
 .debug_str     0x00000000        0x0 /opt/microchip/mplabc32/v2.02/bin/../lib/gcc/pic32mx/4.5.1/../../../../pic32mx/lib/speed/libmchp_peripheral_32MX795F512L.a(soft_reset_lib.o)
 .debug_str     0x00000000        0x0 /opt/microchip/mplabc32/v2.02/bin/../lib/gcc/pic32mx/4.5.1/../../../../pic32mx/lib/speed/libmchp_peripheral_32MX795F512L.a(pcache.o)
 .debug_str     0x00000000        0x0 /opt/microchip/mplabc32/v2.02/bin/../lib/gcc/pic32mx/4.5.1/../../../../pic32mx/lib/speed/libmchp_peripheral_32MX795F512L.a(int_disable_interrupts_lib.o)
 .debug_str     0x00000000        0x0 /opt/microchip/mplabc32/v2.02/bin/../lib/gcc/pic32mx/4.5.1/../../../../pic32mx/lib/speed/libmchp_peripheral_32MX795F512L.a(int_restore_interrupts_lib.o)
 .debug_str     0x00000000        0x0 /opt/microchip/mplabc32/v2.02/bin/../lib/gcc/pic32mx/4.5.1/../../../../pic32mx/lib/speed/libmchp_peripheral_32MX795F512L.a(int_enable_mv_int_lib.o)
 .debug_str     0x00000000        0x0 /opt/microchip/mplabc32/v2.02/bin/../lib/gcc/pic32mx/4.5.1/../../../../pic32mx/lib/speed/libmchp_peripheral_32MX795F512L.a(int_tbl_lib.o)
 .debug_str     0x00000000        0x0 /opt/microchip/mplabc32/v2.02/bin/../lib/gcc/pic32mx/4.5.1/../../../../pic32mx/lib/speed/libmchp_peripheral_32MX795F512L.a(port_set_pins_digital_in_lib.o)
 .debug_str     0x00000000        0x0 /opt/microchip/mplabc32/v2.02/bin/../lib/gcc/pic32mx/4.5.1/../../../../pic32mx/lib/speed/libmchp_peripheral_32MX795F512L.a(port_set_pins_digital_out_lib.o)
 .debug_str     0x00000000        0x0 /opt/microchip/mplabc32/v2.02/bin/../lib/gcc/pic32mx/4.5.1/../../../../pic32mx/lib/speed/libmchp_peripheral_32MX795F512L.a(_ports_tbl_libp.o)
 .debug_str     0x00000000        0x0 /opt/microchip/mplabc32/v2.02/bin/../lib/gcc/pic32mx/4.5.1/../../../../pic32mx/lib/speed/libmchp_peripheral_32MX795F512L.a(uart_lib.o)
 .debug_str     0x00000000        0x0 /opt/microchip/mplabc32/v2.02/bin/../lib/gcc/pic32mx/4.5.1/../../../../pic32mx/lib/speed/libmchp_peripheral_32MX795F512L.a(int_enable_interrupts_lib.o)
 .debug_str     0x00000000        0x0 /opt/microchip/mplabc32/v2.02/bin/../lib/gcc/pic32mx/4.5.1/../../../../pic32mx/lib/speed/libe.a(_unorddf2.o)
 .debug_str     0x00000000        0x0 /opt/microchip/mplabc32/v2.02/bin/../lib/gcc/pic32mx/4.5.1/speed/libgcc.a(_lshrdi3.o)
 .debug_str     0x00000000        0x0 /opt/microchip/mplabc32/v2.02/bin/../lib/gcc/pic32mx/4.5.1/speed/libgcc.a(_ashldi3.o)
 .debug_str     0x00000000        0x0 /opt/microchip/mplabc32/v2.02/bin/../lib/gcc/pic32mx/4.5.1/speed/libgcc.a(_divdi3.o)
 .debug_str     0x00000000        0x0 /opt/microchip/mplabc32/v2.02/bin/../lib/gcc/pic32mx/4.5.1/speed/libgcc.a(_umoddi3.o)

.debug_loc      0x00000000     0x1fb7
 *(.debug_loc)
 .debug_loc     0x00000000      0xa47 /opt/microchip/mplabc32/v2.02/bin/../lib/gcc/pic32mx/4.5.1/speed/libgcc.a(_udivdi3.o)
 .debug_loc     0x00000a47       0x68 /opt/microchip/mplabc32/v2.02/bin/../lib/gcc/pic32mx/4.5.1/speed/libgcc.a(floatunsisf.o)
 .debug_loc     0x00000aaf       0x5f /opt/microchip/mplabc32/v2.02/bin/../lib/gcc/pic32mx/4.5.1/speed/libgcc.a(_lshrdi3.o)
 .debug_loc     0x00000b0e       0x3c /opt/microchip/mplabc32/v2.02/bin/../lib/gcc/pic32mx/4.5.1/speed/libgcc.a(_ashldi3.o)
 .debug_loc     0x00000b4a      0xa50 /opt/microchip/mplabc32/v2.02/bin/../lib/gcc/pic32mx/4.5.1/speed/libgcc.a(_divdi3.o)
 .debug_loc     0x0000159a      0xa1d /opt/microchip/mplabc32/v2.02/bin/../lib/gcc/pic32mx/4.5.1/speed/libgcc.a(_umoddi3.o)

.debug_macinfo
 *(.debug_macinfo)

.debug_weaknames
 *(.debug_weaknames)

.debug_funcnames
 *(.debug_funcnames)

.debug_typenames
 *(.debug_typenames)

.debug_varnames
 *(.debug_varnames)

.debug_pubtypes
                0x00000000      0x203
 *(.debug_pubtypes)
 .debug_pubtypes
                0x00000000       0x59 /opt/microchip/mplabc32/v2.02/bin/../lib/gcc/pic32mx/4.5.1/speed/libgcc.a(_udivdi3.o)
 .debug_pubtypes
                0x00000059       0x34 /opt/microchip/mplabc32/v2.02/bin/../lib/gcc/pic32mx/4.5.1/speed/libgcc.a(floatunsisf.o)
 .debug_pubtypes
                0x0000008d       0x62 /opt/microchip/mplabc32/v2.02/bin/../lib/gcc/pic32mx/4.5.1/speed/libgcc.a(_lshrdi3.o)
 .debug_pubtypes
                0x000000ef       0x62 /opt/microchip/mplabc32/v2.02/bin/../lib/gcc/pic32mx/4.5.1/speed/libgcc.a(_ashldi3.o)
 .debug_pubtypes
                0x00000151       0x59 /opt/microchip/mplabc32/v2.02/bin/../lib/gcc/pic32mx/4.5.1/speed/libgcc.a(_divdi3.o)
 .debug_pubtypes
                0x000001aa       0x59 /opt/microchip/mplabc32/v2.02/bin/../lib/gcc/pic32mx/4.5.1/speed/libgcc.a(_umoddi3.o)

.debug_ranges   0x00000000      0x548
 *(.debug_ranges)
 .debug_ranges  0x00000000       0xc0 /opt/microchip/mplabc32/v2.02/bin/../lib/gcc/pic32mx/4.5.1/speed/libgcc.a(_udivdi3.o)
 .debug_ranges  0x000000c0       0x10 /opt/microchip/mplabc32/v2.02/bin/../lib/gcc/pic32mx/4.5.1/../../../../pic32mx/lib/speed/libm.a(w_log10.o)
 .debug_ranges  0x000000d0       0x10 /opt/microchip/mplabc32/v2.02/bin/../lib/gcc/pic32mx/4.5.1/../../../../pic32mx/lib/speed/libe.a(_strtod.o)
 .debug_ranges  0x000000e0       0x10 /opt/microchip/mplabc32/v2.02/bin/../lib/gcc/pic32mx/4.5.1/../../../../pic32mx/lib/speed/libe.a(_strtof.o)
 .debug_ranges  0x000000f0       0x10 /opt/microchip/mplabc32/v2.02/bin/../lib/gcc/pic32mx/4.5.1/../../../../pic32mx/lib/speed/libe.a(_ldexp.o)
 .debug_ranges  0x00000100       0x10 /opt/microchip/mplabc32/v2.02/bin/../lib/gcc/pic32mx/4.5.1/../../../../pic32mx/lib/speed/libe.a(_ldexpf.o)
 .debug_ranges  0x00000110       0x10 /opt/microchip/mplabc32/v2.02/bin/../lib/gcc/pic32mx/4.5.1/../../../../pic32mx/lib/speed/libmchp_peripheral.a(read_core_timer_lib.o)
 .debug_ranges  0x00000120       0x38 /opt/microchip/mplabc32/v2.02/bin/../lib/gcc/pic32mx/4.5.1/../../../../pic32mx/lib/speed/libmchp_peripheral_32MX795F512L.a(eth_ack_packet_lib.o)
 .debug_ranges  0x00000158       0x18 /opt/microchip/mplabc32/v2.02/bin/../lib/gcc/pic32mx/4.5.1/../../../../pic32mx/lib/speed/libmchp_peripheral_32MX795F512L.a(eth_descriptors_add_lib.o)
 .debug_ranges  0x00000170       0x10 /opt/microchip/mplabc32/v2.02/bin/../lib/gcc/pic32mx/4.5.1/../../../../pic32mx/lib/speed/libmchp_peripheral_32MX795F512L.a(eth_init_lib.o)
 .debug_ranges  0x00000180       0x10 /opt/microchip/mplabc32/v2.02/bin/../lib/gcc/pic32mx/4.5.1/../../../../pic32mx/lib/speed/libmchp_peripheral_32MX795F512L.a(eth_mac_open_lib.o)
 .debug_ranges  0x00000190       0x20 /opt/microchip/mplabc32/v2.02/bin/../lib/gcc/pic32mx/4.5.1/../../../../pic32mx/lib/speed/libmchp_peripheral_32MX795F512L.a(eth_mac_set_address_max_lib.o)
 .debug_ranges  0x000001b0       0x10 /opt/microchip/mplabc32/v2.02/bin/../lib/gcc/pic32mx/4.5.1/../../../../pic32mx/lib/speed/libmchp_peripheral_32MX795F512L.a(eth_rx_buffers_append_lib.o)
 .debug_ranges  0x000001c0       0x38 /opt/microchip/mplabc32/v2.02/bin/../lib/gcc/pic32mx/4.5.1/../../../../pic32mx/lib/speed/libmchp_peripheral_32MX795F512L.a(eth_rx_filters_lib.o)
 .debug_ranges  0x000001f8       0x18 /opt/microchip/mplabc32/v2.02/bin/../lib/gcc/pic32mx/4.5.1/../../../../pic32mx/lib/speed/libmchp_peripheral_32MX795F512L.a(eth_rx_get_packet_lib.o)
 .debug_ranges  0x00000210       0x10 /opt/microchip/mplabc32/v2.02/bin/../lib/gcc/pic32mx/4.5.1/../../../../pic32mx/lib/speed/libmchp_peripheral_32MX795F512L.a(eth_rx_set_buffer_size_lib.o)
 .debug_ranges  0x00000220       0x28 /opt/microchip/mplabc32/v2.02/bin/../lib/gcc/pic32mx/4.5.1/../../../../pic32mx/lib/speed/libmchp_peripheral_32MX795F512L.a(eth_tx_packet_lib.o)
 .debug_ranges  0x00000248       0x10 /opt/microchip/mplabc32/v2.02/bin/../lib/gcc/pic32mx/4.5.1/../../../../pic32mx/lib/speed/libmchp_peripheral_32MX795F512L.a(_eth_append_busy_list_lib.o)
 .debug_ranges  0x00000258       0x38 /opt/microchip/mplabc32/v2.02/bin/../lib/gcc/pic32mx/4.5.1/../../../../pic32mx/lib/speed/libmchp_peripheral_32MX795F512L.a(eth_miim_access.o)
 .debug_ranges  0x00000290       0x10 /opt/microchip/mplabc32/v2.02/bin/../lib/gcc/pic32mx/4.5.1/../../../../pic32mx/lib/speed/libmchp_peripheral_32MX795F512L.a(soft_reset_lib.o)
 .debug_ranges  0x000002a0       0x18 /opt/microchip/mplabc32/v2.02/bin/../lib/gcc/pic32mx/4.5.1/../../../../pic32mx/lib/speed/libmchp_peripheral_32MX795F512L.a(pcache.o)
 .debug_ranges  0x000002b8       0x10 /opt/microchip/mplabc32/v2.02/bin/../lib/gcc/pic32mx/4.5.1/../../../../pic32mx/lib/speed/libmchp_peripheral_32MX795F512L.a(int_disable_interrupts_lib.o)
 .debug_ranges  0x000002c8       0x10 /opt/microchip/mplabc32/v2.02/bin/../lib/gcc/pic32mx/4.5.1/../../../../pic32mx/lib/speed/libmchp_peripheral_32MX795F512L.a(int_restore_interrupts_lib.o)
 .debug_ranges  0x000002d8       0x10 /opt/microchip/mplabc32/v2.02/bin/../lib/gcc/pic32mx/4.5.1/../../../../pic32mx/lib/speed/libmchp_peripheral_32MX795F512L.a(int_enable_mv_int_lib.o)
 .debug_ranges  0x000002e8       0x50 /opt/microchip/mplabc32/v2.02/bin/../lib/gcc/pic32mx/4.5.1/../../../../pic32mx/lib/speed/libmchp_peripheral_32MX795F512L.a(int_tbl_lib.o)
 .debug_ranges  0x00000338       0x10 /opt/microchip/mplabc32/v2.02/bin/../lib/gcc/pic32mx/4.5.1/../../../../pic32mx/lib/speed/libmchp_peripheral_32MX795F512L.a(port_set_pins_digital_in_lib.o)
 .debug_ranges  0x00000348       0x10 /opt/microchip/mplabc32/v2.02/bin/../lib/gcc/pic32mx/4.5.1/../../../../pic32mx/lib/speed/libmchp_peripheral_32MX795F512L.a(port_set_pins_digital_out_lib.o)
 .debug_ranges  0x00000358       0x48 /opt/microchip/mplabc32/v2.02/bin/../lib/gcc/pic32mx/4.5.1/../../../../pic32mx/lib/speed/libmchp_peripheral_32MX795F512L.a(uart_lib.o)
 .debug_ranges  0x000003a0       0x10 /opt/microchip/mplabc32/v2.02/bin/../lib/gcc/pic32mx/4.5.1/../../../../pic32mx/lib/speed/libmchp_peripheral_32MX795F512L.a(int_enable_interrupts_lib.o)
 .debug_ranges  0x000003b0       0x10 /opt/microchip/mplabc32/v2.02/bin/../lib/gcc/pic32mx/4.5.1/../../../../pic32mx/lib/speed/libe.a(_unorddf2.o)
 .debug_ranges  0x000003c0       0x90 /opt/microchip/mplabc32/v2.02/bin/../lib/gcc/pic32mx/4.5.1/speed/libgcc.a(_divdi3.o)
 .debug_ranges  0x00000450       0xf8 /opt/microchip/mplabc32/v2.02/bin/../lib/gcc/pic32mx/4.5.1/speed/libgcc.a(_umoddi3.o)

.gnu.attributes
                0x00000000       0x10
 *(.gnu.attributes)
 .gnu.attributes
                0x00000000       0x10 build/default/production/_ext/1472/BerkeleyTCPClientDemo.o
 .gnu.attributes
                0x00000010       0x10 build/default/production/_ext/1472/BerkeleyTCPServerDemo.o
 .gnu.attributes
                0x00000020       0x10 build/default/production/_ext/1472/BerkeleyUDPClientDemo.o
 .gnu.attributes
                0x00000030       0x10 build/default/production/_ext/1472/GenericTCPClient.o
 .gnu.attributes
                0x00000040       0x10 build/default/production/_ext/1472/GenericTCPServer.o
 .gnu.attributes
                0x00000050       0x10 build/default/production/_ext/1472/LegacyHTTPApp.o
 .gnu.attributes
                0x00000060       0x10 build/default/production/_ext/1472/PingDemo.o
 .gnu.attributes
                0x00000070       0x10 build/default/production/_ext/1472/SMTPDemo.o
 .gnu.attributes
                0x00000080       0x10 build/default/production/_ext/1472/UARTConfig.o
 .gnu.attributes
                0x00000090       0x10 build/default/production/_ext/1295770447/Announce.o
 .gnu.attributes
                0x000000a0       0x10 build/default/production/_ext/1295770447/ARCFOUR.o
 .gnu.attributes
                0x000000b0       0x10 build/default/production/_ext/1295770447/ARP.o
 .gnu.attributes
                0x000000c0       0x10 build/default/production/_ext/1295770447/AutoIP.o
 .gnu.attributes
                0x000000d0       0x10 build/default/production/_ext/1295770447/BerkeleyAPI.o
 .gnu.attributes
                0x000000e0       0x10 build/default/production/_ext/1295770447/BigInt.o
 .gnu.attributes
                0x000000f0       0x10 build/default/production/_ext/1295770447/Delay.o
 .gnu.attributes
                0x00000100       0x10 build/default/production/_ext/1295770447/DHCP.o
 .gnu.attributes
                0x00000110       0x10 build/default/production/_ext/1295770447/DHCPs.o
 .gnu.attributes
                0x00000120       0x10 build/default/production/_ext/1295770447/DNS.o
 .gnu.attributes
                0x00000130       0x10 build/default/production/_ext/1295770447/DNSs.o
 .gnu.attributes
                0x00000140       0x10 build/default/production/_ext/1295770447/DynDNS.o
 .gnu.attributes
                0x00000150       0x10 build/default/production/_ext/1295770447/ENC28J60.o
 .gnu.attributes
                0x00000160       0x10 build/default/production/_ext/1295770447/ENCX24J600.o
 .gnu.attributes
                0x00000170       0x10 build/default/production/_ext/1295770447/ETHPIC32ExtPhy.o
 .gnu.attributes
                0x00000180       0x10 build/default/production/_ext/1295770447/ETHPIC32ExtPhyDP83848.o
 .gnu.attributes
                0x00000190       0x10 build/default/production/_ext/1295770447/ETHPIC32IntMac.o
 .gnu.attributes
                0x000001a0       0x10 build/default/production/_ext/1295770447/FileSystem.o
 .gnu.attributes
                0x000001b0       0x10 build/default/production/_ext/1295770447/FTP.o
 .gnu.attributes
                0x000001c0       0x10 build/default/production/_ext/1295770447/Hashes.o
 .gnu.attributes
                0x000001d0       0x10 build/default/production/_ext/1295770447/Helpers.o
 .gnu.attributes
                0x000001e0       0x10 build/default/production/_ext/1295770447/HTTP2.o
 .gnu.attributes
                0x000001f0       0x10 build/default/production/_ext/1295770447/HTTP.o
 .gnu.attributes
                0x00000200       0x10 build/default/production/_ext/1295770447/ICMP.o
 .gnu.attributes
                0x00000210       0x10 build/default/production/_ext/1295770447/IP.o
 .gnu.attributes
                0x00000220       0x10 build/default/production/_ext/1295770447/LCDBlocking.o
 .gnu.attributes
                0x00000230       0x10 build/default/production/_ext/1295770447/MPFS2.o
 .gnu.attributes
                0x00000240       0x10 build/default/production/_ext/1295770447/MPFS.o
 .gnu.attributes
                0x00000250       0x10 build/default/production/_ext/1295770447/NBNS.o
 .gnu.attributes
                0x00000260       0x10 build/default/production/_ext/1295770447/Random.o
 .gnu.attributes
                0x00000270       0x10 build/default/production/_ext/1295770447/Reboot.o
 .gnu.attributes
                0x00000280       0x10 build/default/production/_ext/1295770447/RSA.o
 .gnu.attributes
                0x00000290       0x10 build/default/production/_ext/1295770447/SMTP.o
 .gnu.attributes
                0x000002a0       0x10 build/default/production/_ext/1295770447/SNMP.o
 .gnu.attributes
                0x000002b0       0x10 build/default/production/_ext/1295770447/SNMPv3.o
 .gnu.attributes
                0x000002c0       0x10 build/default/production/_ext/1295770447/SNMPv3USM.o
 .gnu.attributes
                0x000002d0       0x10 build/default/production/_ext/1295770447/SNTP.o
 .gnu.attributes
                0x000002e0       0x10 build/default/production/_ext/1295770447/SPIEEPROM.o
 .gnu.attributes
                0x000002f0       0x10 build/default/production/_ext/1295770447/SPIFlash.o
 .gnu.attributes
                0x00000300       0x10 build/default/production/_ext/1295770447/SPIRAM.o
 .gnu.attributes
                0x00000310       0x10 build/default/production/_ext/1295770447/SSL.o
 .gnu.attributes
                0x00000320       0x10 build/default/production/_ext/1295770447/StackTsk.o
 .gnu.attributes
                0x00000330       0x10 build/default/production/_ext/1295770447/TCP.o
 .gnu.attributes
                0x00000340       0x10 build/default/production/_ext/1295770447/TCPPerformanceTest.o
 .gnu.attributes
                0x00000350       0x10 build/default/production/_ext/1295770447/Telnet.o
 .gnu.attributes
                0x00000360       0x10 build/default/production/_ext/1295770447/TFTPc.o
 .gnu.attributes
                0x00000370       0x10 build/default/production/_ext/1295770447/Tick.o
 .gnu.attributes
                0x00000380       0x10 build/default/production/_ext/1295770447/UART2TCPBridge.o
 .gnu.attributes
                0x00000390       0x10 build/default/production/_ext/1295770447/UART.o
 .gnu.attributes
                0x000003a0       0x10 build/default/production/_ext/1295770447/UDP.o
 .gnu.attributes
                0x000003b0       0x10 build/default/production/_ext/1295770447/UDPPerformanceTest.o
 .gnu.attributes
                0x000003c0       0x10 build/default/production/_ext/1295770447/ZeroconfHelper.o
 .gnu.attributes
                0x000003d0       0x10 build/default/production/_ext/1295770447/ZeroconfLinkLocal.o
 .gnu.attributes
                0x000003e0       0x10 build/default/production/_ext/1295770447/ZeroconfMulticastDNS.o
 .gnu.attributes
                0x000003f0       0x10 build/default/production/_ext/1472/MPFSImg2.o
 .gnu.attributes
                0x00000400       0x10 build/default/production/_ext/1472/MPFSImg.o
 .gnu.attributes
                0x00000410       0x10 build/default/production/_ext/1472/CustomHTTPApp.o
 .gnu.attributes
                0x00000420       0x10 build/default/production/_ext/1472/CustomSNMPApp.o
 .gnu.attributes
                0x00000430       0x10 build/default/production/_ext/1472/CustomSSLCert.o
 .gnu.attributes
                0x00000440       0x10 build/default/production/_ext/1472/MainDemo.o
 .gnu.attributes
                0x00000450       0x10 build/default/production/_ext/1472/mbmc.o
 .gnu.attributes
                0x00000460       0x10 build/default/production/_ext/1472/crc8_fast.o
 .gnu.attributes
                0x00000470       0x10 /opt/microchip/mplabc32/v2.02/bin/../lib/gcc/pic32mx/4.5.1/speed/libgcc.a(_udivdi3.o)
 .gnu.attributes
                0x00000480       0x10 /opt/microchip/mplabc32/v2.02/bin/../lib/gcc/pic32mx/4.5.1/speed/libgcc.a(floatunsisf.o)
 .gnu.attributes
                0x00000490       0x10 /opt/microchip/mplabc32/v2.02/bin/../lib/gcc/pic32mx/4.5.1/../../../../pic32mx/lib/speed/liblega-c.a(strcat.o)
 .gnu.attributes
                0x000004a0       0x10 /opt/microchip/mplabc32/v2.02/bin/../lib/gcc/pic32mx/4.5.1/../../../../pic32mx/lib/speed/liblega-c.a(strncat.o)
 .gnu.attributes
                0x000004b0       0x10 /opt/microchip/mplabc32/v2.02/bin/../lib/gcc/pic32mx/4.5.1/../../../../pic32mx/lib/speed/liblega-c.a(strchr.o)
 .gnu.attributes
                0x000004c0       0x10 /opt/microchip/mplabc32/v2.02/bin/../lib/gcc/pic32mx/4.5.1/../../../../pic32mx/lib/speed/liblega-c.a(strstr.o)
 .gnu.attributes
                0x000004d0       0x10 /opt/microchip/mplabc32/v2.02/bin/../lib/gcc/pic32mx/4.5.1/../../../../pic32mx/lib/speed/liblega-c.a(malloc_calloc.o)
 .gnu.attributes
                0x000004e0       0x10 /opt/microchip/mplabc32/v2.02/bin/../lib/gcc/pic32mx/4.5.1/../../../../pic32mx/lib/speed/liblega-c.a(strtol.o)
 .gnu.attributes
                0x000004f0       0x10 /opt/microchip/mplabc32/v2.02/bin/../lib/gcc/pic32mx/4.5.1/../../../../pic32mx/lib/speed/liblega-c.a(sprintf.o)
 .gnu.attributes
                0x00000500       0x10 /opt/microchip/mplabc32/v2.02/bin/../lib/gcc/pic32mx/4.5.1/../../../../pic32mx/lib/speed/liblega-c.a(sscanf.o)
 .gnu.attributes
                0x00000510       0x10 /opt/microchip/mplabc32/v2.02/bin/../lib/gcc/pic32mx/4.5.1/../../../../pic32mx/lib/speed/liblega-c.a(vsscanf.o)
 .gnu.attributes
                0x00000520       0x10 /opt/microchip/mplabc32/v2.02/bin/../lib/gcc/pic32mx/4.5.1/../../../../pic32mx/lib/speed/liblega-c.a(__vsnprintf.o)
 .gnu.attributes
                0x00000530       0x10 /opt/microchip/mplabc32/v2.02/bin/../lib/gcc/pic32mx/4.5.1/../../../../pic32mx/lib/speed/liblega-c.a(gmtime.o)
 .gnu.attributes
                0x00000540       0x10 /opt/microchip/mplabc32/v2.02/bin/../lib/gcc/pic32mx/4.5.1/../../../../pic32mx/lib/speed/liblega-c.a(offtime.o)
 .gnu.attributes
                0x00000550       0x10 /opt/microchip/mplabc32/v2.02/bin/../lib/gcc/pic32mx/4.5.1/../../../../pic32mx/lib/speed/liblega-c.a(asctime.o)
 .gnu.attributes
                0x00000560       0x10 /opt/microchip/mplabc32/v2.02/bin/../lib/gcc/pic32mx/4.5.1/../../../../pic32mx/lib/speed/liblega-c.a(stubs.o)
 .gnu.attributes
                0x00000570       0x10 /opt/microchip/mplabc32/v2.02/bin/../lib/gcc/pic32mx/4.5.1/../../../../pic32mx/lib/speed/liblega-c.a(default-bootstrap-exception-handler.o)
 .gnu.attributes
                0x00000580       0x10 /opt/microchip/mplabc32/v2.02/bin/../lib/gcc/pic32mx/4.5.1/../../../../pic32mx/lib/speed/liblega-c.a(default-on-reset.o)
 .gnu.attributes
                0x00000590       0x10 /opt/microchip/mplabc32/v2.02/bin/../lib/gcc/pic32mx/4.5.1/../../../../pic32mx/lib/speed/liblega-c.a(default-on-bootstrap.o)
 .gnu.attributes
                0x000005a0       0x10 /opt/microchip/mplabc32/v2.02/bin/../lib/gcc/pic32mx/4.5.1/../../../../pic32mx/lib/speed/liblega-c.a(ctype.o)
 .gnu.attributes
                0x000005b0       0x10 /opt/microchip/mplabc32/v2.02/bin/../lib/gcc/pic32mx/4.5.1/../../../../pic32mx/lib/speed/liblega-c.a(malloc.o)
 .gnu.attributes
                0x000005c0       0x10 /opt/microchip/mplabc32/v2.02/bin/../lib/gcc/pic32mx/4.5.1/../../../../pic32mx/lib/speed/liblega-c.a(errno.o)
 .gnu.attributes
                0x000005d0       0x10 /opt/microchip/mplabc32/v2.02/bin/../lib/gcc/pic32mx/4.5.1/../../../../pic32mx/lib/speed/liblega-c.a(_doprnt.o)
 .gnu.attributes
                0x000005e0       0x10 /opt/microchip/mplabc32/v2.02/bin/../lib/gcc/pic32mx/4.5.1/../../../../pic32mx/lib/speed/liblega-c.a(_doscan.o)
 .gnu.attributes
                0x000005f0       0x10 /opt/microchip/mplabc32/v2.02/bin/../lib/gcc/pic32mx/4.5.1/../../../../pic32mx/lib/speed/liblega-c.a(_iobdata.o)
 .gnu.attributes
                0x00000600       0x10 /opt/microchip/mplabc32/v2.02/bin/../lib/gcc/pic32mx/4.5.1/../../../../pic32mx/lib/speed/liblega-c.a(_iobfuncs.o)
 .gnu.attributes
                0x00000610       0x10 /opt/microchip/mplabc32/v2.02/bin/../lib/gcc/pic32mx/4.5.1/../../../../pic32mx/lib/speed/liblega-c.a(_iobstring.o)
 .gnu.attributes
                0x00000620       0x10 /opt/microchip/mplabc32/v2.02/bin/../lib/gcc/pic32mx/4.5.1/../../../../pic32mx/lib/speed/liblega-c.a(fgetc.o)
 .gnu.attributes
                0x00000630       0x10 /opt/microchip/mplabc32/v2.02/bin/../lib/gcc/pic32mx/4.5.1/../../../../pic32mx/lib/speed/liblega-c.a(fputc.o)
 .gnu.attributes
                0x00000640       0x10 /opt/microchip/mplabc32/v2.02/bin/../lib/gcc/pic32mx/4.5.1/../../../../pic32mx/lib/speed/liblega-c.a(ungetc.o)
 .gnu.attributes
                0x00000650       0x10 /opt/microchip/mplabc32/v2.02/bin/../lib/gcc/pic32mx/4.5.1/../../../../pic32mx/lib/speed/liblega-c.a(sbrk.o)
 .gnu.attributes
                0x00000660       0x10 /opt/microchip/mplabc32/v2.02/bin/../lib/gcc/pic32mx/4.5.1/../../../../pic32mx/lib/speed/liblega-c.a(_mon_getc.o)
 .gnu.attributes
                0x00000670       0x10 /opt/microchip/mplabc32/v2.02/bin/../lib/gcc/pic32mx/4.5.1/../../../../pic32mx/lib/speed/liblega-c.a(_mon_write.o)
 .gnu.attributes
                0x00000680       0x10 /opt/microchip/mplabc32/v2.02/bin/../lib/gcc/pic32mx/4.5.1/../../../../pic32mx/lib/speed/liblega-c.a(malloc_realloc.o)
 .gnu.attributes
                0x00000690       0x10 /opt/microchip/mplabc32/v2.02/bin/../lib/gcc/pic32mx/4.5.1/../../../../pic32mx/lib/speed/liblega-c.a(strtoul.o)
 .gnu.attributes
                0x000006a0       0x10 /opt/microchip/mplabc32/v2.02/bin/../lib/gcc/pic32mx/4.5.1/../../../../pic32mx/lib/speed/liblega-c.a(strtoll.o)
 .gnu.attributes
                0x000006b0       0x10 /opt/microchip/mplabc32/v2.02/bin/../lib/gcc/pic32mx/4.5.1/../../../../pic32mx/lib/speed/liblega-c.a(strtoull.o)
 .gnu.attributes
                0x000006c0       0x10 /opt/microchip/mplabc32/v2.02/bin/../lib/gcc/pic32mx/4.5.1/../../../../pic32mx/lib/speed/liblega-c.a(strtod.o)
 .gnu.attributes
                0x000006d0       0x10 /opt/microchip/mplabc32/v2.02/bin/../lib/gcc/pic32mx/4.5.1/../../../../pic32mx/lib/speed/liblega-c.a(strtof.o)
 .gnu.attributes
                0x000006e0       0x10 /opt/microchip/mplabc32/v2.02/bin/../lib/gcc/pic32mx/4.5.1/../../../../pic32mx/lib/speed/liblega-c.a(fullexit.o)
 .gnu.attributes
                0x000006f0       0x10 /opt/microchip/mplabc32/v2.02/bin/../lib/gcc/pic32mx/4.5.1/../../../../pic32mx/lib/speed/liblega-c.a(_ioinit.o)
 .gnu.attributes
                0x00000700       0x10 /opt/microchip/mplabc32/v2.02/bin/../lib/gcc/pic32mx/4.5.1/../../../../pic32mx/lib/speed/liblega-c.a(_cleanup.o)
 .gnu.attributes
                0x00000710       0x10 /opt/microchip/mplabc32/v2.02/bin/../lib/gcc/pic32mx/4.5.1/../../../../pic32mx/lib/speed/liblega-c.a(_exit.o)
 .gnu.attributes
                0x00000720       0x10 /opt/microchip/mplabc32/v2.02/bin/../lib/gcc/pic32mx/4.5.1/../../../../pic32mx/lib/speed/liblega-c.a(isatty.o)
 .gnu.attributes
                0x00000730       0x10 /opt/microchip/mplabc32/v2.02/bin/../lib/gcc/pic32mx/4.5.1/../../../../pic32mx/lib/speed/liblega-c.a(_mon_putc.o)
 .gnu.attributes
                0x00000740       0x10 /opt/microchip/mplabc32/v2.02/bin/../lib/gcc/pic32mx/4.5.1/../../../../pic32mx/lib/speed/liblega-c.a(memmove.o)
 .gnu.attributes
                0x00000750       0x10 /opt/microchip/mplabc32/v2.02/bin/../lib/gcc/pic32mx/4.5.1/../../../../pic32mx/lib/speed/liblega-c.a(_bufproc.o)
 .gnu.attributes
                0x00000760       0x10 /opt/microchip/mplabc32/v2.02/bin/../lib/gcc/pic32mx/4.5.1/../../../../pic32mx/lib/speed/libm.a(w_log10.o)
 .gnu.attributes
                0x00000770       0x10 /opt/microchip/mplabc32/v2.02/bin/../lib/gcc/pic32mx/4.5.1/../../../../pic32mx/lib/speed/libm.a(s_lib_ver.o)
 .gnu.attributes
                0x00000780       0x10 /opt/microchip/mplabc32/v2.02/bin/../lib/gcc/pic32mx/4.5.1/../../../../pic32mx/lib/speed/libe.a(_strtod.o)
 .gnu.attributes
                0x00000790       0x10 /opt/microchip/mplabc32/v2.02/bin/../lib/gcc/pic32mx/4.5.1/../../../../pic32mx/lib/speed/libe.a(_strtof.o)
 .gnu.attributes
                0x000007a0       0x10 /opt/microchip/mplabc32/v2.02/bin/../lib/gcc/pic32mx/4.5.1/../../../../pic32mx/lib/speed/libe.a(_ldexp.o)
 .gnu.attributes
                0x000007b0       0x10 /opt/microchip/mplabc32/v2.02/bin/../lib/gcc/pic32mx/4.5.1/../../../../pic32mx/lib/speed/libe.a(_ldexpf.o)
 .gnu.attributes
                0x000007c0       0x10 /opt/microchip/mplabc32/v2.02/bin/../lib/gcc/pic32mx/4.5.1/../../../../pic32mx/lib/speed/libmchp_peripheral.a(read_core_timer_lib.o)
 .gnu.attributes
                0x000007d0       0x10 /opt/microchip/mplabc32/v2.02/bin/../lib/gcc/pic32mx/4.5.1/../../../../pic32mx/lib/speed/libmchp_peripheral_32MX795F512L.a(eth_ack_packet_lib.o)
 .gnu.attributes
                0x000007e0       0x10 /opt/microchip/mplabc32/v2.02/bin/../lib/gcc/pic32mx/4.5.1/../../../../pic32mx/lib/speed/libmchp_peripheral_32MX795F512L.a(eth_descriptors_add_lib.o)
 .gnu.attributes
                0x000007f0       0x10 /opt/microchip/mplabc32/v2.02/bin/../lib/gcc/pic32mx/4.5.1/../../../../pic32mx/lib/speed/libmchp_peripheral_32MX795F512L.a(eth_init_lib.o)
 .gnu.attributes
                0x00000800       0x10 /opt/microchip/mplabc32/v2.02/bin/../lib/gcc/pic32mx/4.5.1/../../../../pic32mx/lib/speed/libmchp_peripheral_32MX795F512L.a(eth_mac_open_lib.o)
 .gnu.attributes
                0x00000810       0x10 /opt/microchip/mplabc32/v2.02/bin/../lib/gcc/pic32mx/4.5.1/../../../../pic32mx/lib/speed/libmchp_peripheral_32MX795F512L.a(eth_mac_set_address_max_lib.o)
 .gnu.attributes
                0x00000820       0x10 /opt/microchip/mplabc32/v2.02/bin/../lib/gcc/pic32mx/4.5.1/../../../../pic32mx/lib/speed/libmchp_peripheral_32MX795F512L.a(eth_rx_buffers_append_lib.o)
 .gnu.attributes
                0x00000830       0x10 /opt/microchip/mplabc32/v2.02/bin/../lib/gcc/pic32mx/4.5.1/../../../../pic32mx/lib/speed/libmchp_peripheral_32MX795F512L.a(eth_rx_filters_lib.o)
 .gnu.attributes
                0x00000840       0x10 /opt/microchip/mplabc32/v2.02/bin/../lib/gcc/pic32mx/4.5.1/../../../../pic32mx/lib/speed/libmchp_peripheral_32MX795F512L.a(eth_rx_get_packet_lib.o)
 .gnu.attributes
                0x00000850       0x10 /opt/microchip/mplabc32/v2.02/bin/../lib/gcc/pic32mx/4.5.1/../../../../pic32mx/lib/speed/libmchp_peripheral_32MX795F512L.a(eth_rx_set_buffer_size_lib.o)
 .gnu.attributes
                0x00000860       0x10 /opt/microchip/mplabc32/v2.02/bin/../lib/gcc/pic32mx/4.5.1/../../../../pic32mx/lib/speed/libmchp_peripheral_32MX795F512L.a(eth_tx_packet_lib.o)
 .gnu.attributes
                0x00000870       0x10 /opt/microchip/mplabc32/v2.02/bin/../lib/gcc/pic32mx/4.5.1/../../../../pic32mx/lib/speed/libmchp_peripheral_32MX795F512L.a(_eth_append_busy_list_lib.o)
 .gnu.attributes
                0x00000880       0x10 /opt/microchip/mplabc32/v2.02/bin/../lib/gcc/pic32mx/4.5.1/../../../../pic32mx/lib/speed/libmchp_peripheral_32MX795F512L.a(eth_miim_access.o)
 .gnu.attributes
                0x00000890       0x10 /opt/microchip/mplabc32/v2.02/bin/../lib/gcc/pic32mx/4.5.1/../../../../pic32mx/lib/speed/libmchp_peripheral_32MX795F512L.a(soft_reset_lib.o)
 .gnu.attributes
                0x000008a0       0x10 /opt/microchip/mplabc32/v2.02/bin/../lib/gcc/pic32mx/4.5.1/../../../../pic32mx/lib/speed/libmchp_peripheral_32MX795F512L.a(pcache.o)
 .gnu.attributes
                0x000008b0       0x10 /opt/microchip/mplabc32/v2.02/bin/../lib/gcc/pic32mx/4.5.1/../../../../pic32mx/lib/speed/libmchp_peripheral_32MX795F512L.a(int_disable_interrupts_lib.o)
 .gnu.attributes
                0x000008c0       0x10 /opt/microchip/mplabc32/v2.02/bin/../lib/gcc/pic32mx/4.5.1/../../../../pic32mx/lib/speed/libmchp_peripheral_32MX795F512L.a(int_restore_interrupts_lib.o)
 .gnu.attributes
                0x000008d0       0x10 /opt/microchip/mplabc32/v2.02/bin/../lib/gcc/pic32mx/4.5.1/../../../../pic32mx/lib/speed/libmchp_peripheral_32MX795F512L.a(int_enable_mv_int_lib.o)
 .gnu.attributes
                0x000008e0       0x10 /opt/microchip/mplabc32/v2.02/bin/../lib/gcc/pic32mx/4.5.1/../../../../pic32mx/lib/speed/libmchp_peripheral_32MX795F512L.a(int_tbl_lib.o)
 .gnu.attributes
                0x000008f0       0x10 /opt/microchip/mplabc32/v2.02/bin/../lib/gcc/pic32mx/4.5.1/../../../../pic32mx/lib/speed/libmchp_peripheral_32MX795F512L.a(port_set_pins_digital_in_lib.o)
 .gnu.attributes
                0x00000900       0x10 /opt/microchip/mplabc32/v2.02/bin/../lib/gcc/pic32mx/4.5.1/../../../../pic32mx/lib/speed/libmchp_peripheral_32MX795F512L.a(port_set_pins_digital_out_lib.o)
 .gnu.attributes
                0x00000910       0x10 /opt/microchip/mplabc32/v2.02/bin/../lib/gcc/pic32mx/4.5.1/../../../../pic32mx/lib/speed/libmchp_peripheral_32MX795F512L.a(_ports_tbl_libp.o)
 .gnu.attributes
                0x00000920       0x10 /opt/microchip/mplabc32/v2.02/bin/../lib/gcc/pic32mx/4.5.1/../../../../pic32mx/lib/speed/libmchp_peripheral_32MX795F512L.a(uart_lib.o)
 .gnu.attributes
                0x00000930       0x10 /opt/microchip/mplabc32/v2.02/bin/../lib/gcc/pic32mx/4.5.1/../../../../pic32mx/lib/speed/libmchp_peripheral_32MX795F512L.a(int_enable_interrupts_lib.o)
 .gnu.attributes
                0x00000940       0x10 /opt/microchip/mplabc32/v2.02/bin/../lib/gcc/pic32mx/4.5.1/../../../../pic32mx/lib/speed/liblega-c.a(isinf.o)
 .gnu.attributes
                0x00000950       0x10 /opt/microchip/mplabc32/v2.02/bin/../lib/gcc/pic32mx/4.5.1/../../../../pic32mx/lib/speed/libe.a(_unorddf2.o)
 .gnu.attributes
                0x00000960       0x10 /opt/microchip/mplabc32/v2.02/bin/../lib/gcc/pic32mx/4.5.1/speed/libgcc.a(_lshrdi3.o)
 .gnu.attributes
                0x00000970       0x10 /opt/microchip/mplabc32/v2.02/bin/../lib/gcc/pic32mx/4.5.1/speed/libgcc.a(_ashldi3.o)
 .gnu.attributes
                0x00000980       0x10 /opt/microchip/mplabc32/v2.02/bin/../lib/gcc/pic32mx/4.5.1/speed/libgcc.a(_divdi3.o)
 .gnu.attributes
                0x00000990       0x10 /opt/microchip/mplabc32/v2.02/bin/../lib/gcc/pic32mx/4.5.1/speed/libgcc.a(_umoddi3.o)
OUTPUT(dist/default/production/TCPIP_Demo_App_-_C32_-_PIC32_ENET_SK_DM320004_INTERNAL_ETHERNET.X.production.elf elf32-tradlittlemips)
LOAD stack
LOAD data_init

.stack          0xa0010f38      0x800
 .stack         0xa0010f38      0x800 stack

.bss            0xa0004290     0x8054
 .bss           0xa0004290     0x4224 build/default/production/_ext/1295770447/TCP.o
 .bss           0xa00084b4     0x3e30 build/default/production/_ext/1295770447/ETHPIC32IntMac.o

.data           0xa000c2e4      0x408
 .data          0xa000c2e4      0x408 /opt/microchip/mplabc32/v2.02/bin/../lib/gcc/pic32mx/4.5.1/../../../../pic32mx/lib/speed/liblega-c.a(malloc.o)
                0xa000c2e4                malloc_av_

.bss            0xa000c6ec      0x1c0
 .bss           0xa000c6ec      0x1c0 build/default/production/_ext/1472/CustomHTTPApp.o

.data           0xa000c8ac       0xe8
 .data          0xa000c8ac       0xe8 /opt/microchip/mplabc32/v2.02/bin/../lib/gcc/pic32mx/4.5.1/../../../../pic32mx/lib/speed/libm.a(log32.o)

.bss            0xa000c994       0xe0
 .bss           0xa000c994       0xe0 build/default/production/_ext/1472/mbmc.o
                0xa000c994                mbmc_status

.data           0xa000ca74       0xd4
 .data          0xa000ca74       0xd4 /opt/microchip/mplabc32/v2.02/bin/../lib/gcc/pic32mx/4.5.1/../../../../pic32mx/lib/speed/liblega-c.a(_iobdata.o)

.bss            0xa000cb48      0x18c
 .bss           0xa000cb48       0x8c build/default/production/_ext/1295770447/BerkeleyAPI.o
 .bss           0xa000cbd4       0x88 /opt/microchip/mplabc32/v2.02/bin/../lib/gcc/pic32mx/4.5.1/../../../../pic32mx/lib/speed/liblega-c.a(_iobdata.o)
 .bss           0xa000cc5c       0x78 build/default/production/_ext/1295770447/MPFS2.o

.data           0xa000ccd4       0xb8
 .data          0xa000ccd4       0x70 build/default/production/_ext/1472/BerkeleyTCPClientDemo.o
 .data          0xa000cd44       0x48 build/default/production/_ext/1472/SMTPDemo.o

.bss            0xa000cd8c       0xec
 .bss           0xa000cd8c       0x48 build/default/production/_ext/1295770447/Telnet.o
 .bss           0xa000cdd4       0x40 build/default/production/_ext/1472/GenericTCPServer.o
 .bss           0xa000ce14       0x34 build/default/production/_ext/1295770447/AutoIP.o
 .bss           0xa000ce48       0x30 build/default/production/_ext/1295770447/DHCP.o

.data           0xa000ce78       0x2c
 .data          0xa000ce78       0x2c /opt/microchip/mplabc32/v2.02/bin/../lib/gcc/pic32mx/4.5.1/../../../../pic32mx/lib/speed/liblega-c.a(gmtime.o)

.bss            0xa000cea4       0x2c
 .bss           0xa000cea4       0x2c /opt/microchip/mplabc32/v2.02/bin/../lib/gcc/pic32mx/4.5.1/../../../../pic32mx/lib/speed/liblega-c.a(gmtime.o)

.data           0xa000ced0       0x2c
 .data          0xa000ced0       0x2c /opt/microchip/mplabc32/v2.02/bin/../lib/gcc/pic32mx/4.5.1/../../../../pic32mx/lib/speed/liblega-c.a(offtime.o)

.bss            0xa000cefc       0x2c
 .bss           0xa000cefc       0x2c /opt/microchip/mplabc32/v2.02/bin/../lib/gcc/pic32mx/4.5.1/../../../../pic32mx/lib/speed/liblega-c.a(offtime.o)

.data           0xa000cf28       0x2c
 .data          0xa000cf28       0x2c /opt/microchip/mplabc32/v2.02/bin/../lib/gcc/pic32mx/4.5.1/../../../../pic32mx/lib/speed/liblega-c.a(asctime.o)

.bss            0xa000cf54       0x48
 .bss           0xa000cf54       0x28 /opt/microchip/mplabc32/v2.02/bin/../lib/gcc/pic32mx/4.5.1/../../../../pic32mx/lib/speed/liblega-c.a(malloc.o)
                0xa000cf54                malloc_current_mallinfo
 .bss           0xa000cf7c       0x20 /opt/microchip/mplabc32/v2.02/bin/../lib/gcc/pic32mx/4.5.1/../../../../pic32mx/lib/speed/liblega-c.a(_iobfuncs.o)

.data           0xa000cf9c       0x40
 .data          0xa000cf9c       0x20 /opt/microchip/mplabc32/v2.02/bin/../lib/gcc/pic32mx/4.5.1/../../../../pic32mx/lib/speed/liblega-c.a(sbrk.o)
 .data          0xa000cfbc       0x20 /opt/microchip/mplabc32/v2.02/bin/../lib/gcc/pic32mx/4.5.1/../../../../pic32mx/lib/speed/liblega-c.a(fullexit.o)
                0xa000cfbc                __exfun_mx

.bss            0xa000cfdc       0x6c
 .bss           0xa000cfdc       0x1c /opt/microchip/mplabc32/v2.02/bin/../lib/gcc/pic32mx/4.5.1/../../../../pic32mx/lib/speed/liblega-c.a(asctime.o)
 .bss           0xa000cff8       0x18 build/default/production/_ext/1295770447/ARP.o
 .bss           0xa000d010       0x18 /opt/microchip/mplabc32/v2.02/bin/../lib/gcc/pic32mx/4.5.1/../../../../pic32mx/lib/speed/liblega-c.a(sbrk.o)
 .bss           0xa000d028       0x10 build/default/production/_ext/1472/BerkeleyTCPClientDemo.o
 .bss           0xa000d038       0x10 build/default/production/_ext/1472/BerkeleyUDPClientDemo.o

.data           0xa000d048       0x10
 .data          0xa000d048       0x10 build/default/production/_ext/1472/GenericTCPClient.o

.bss            0xa000d058       0x40
 .bss           0xa000d058       0x10 build/default/production/_ext/1295770447/DynDNS.o
 .bss           0xa000d068        0xc build/default/production/_ext/1295770447/DNS.o
 .bss           0xa000d074        0xc build/default/production/_ext/1295770447/ICMP.o
 .bss           0xa000d080        0xc build/default/production/_ext/1295770447/SNTP.o
 .bss           0xa000d08c        0xc build/default/production/_ext/1295770447/TCPPerformanceTest.o

.data.math_errhandling_flag
                0xa000d098        0x4
 .data.math_errhandling_flag
                0xa000d098        0x4 /opt/microchip/mplabc32/v2.02/bin/../lib/gcc/pic32mx/4.5.1/../../../../pic32mx/lib/speed/libm.a(s_lib_ver.o)
                0xa000d098                math_errhandling

.bss%z1         0x00000000        0x0
 .bss           0x00000000        0x0 /opt/microchip/mplabc32/v2.02/bin/../lib/gcc/pic32mx/4.5.1/../../../../pic32mx/lib/./proc/32MX795F512L/processor.o

.data%z2        0x00000000        0x0
 .data          0x00000000        0x0 /opt/microchip/mplabc32/v2.02/bin/../lib/gcc/pic32mx/4.5.1/../../../../pic32mx/lib/./proc/32MX795F512L/processor.o

.mdebug.abi32%z3
                0x00000000        0x0
 .mdebug.abi32  0x00000000        0x0 /opt/microchip/mplabc32/v2.02/bin/../lib/gcc/pic32mx/4.5.1/speed/libgcc.a(_umoddi3.o)

.bss%z4         0x00000000        0x0
 .bss           0x00000000        0x0 /opt/microchip/mplabc32/v2.02/bin/../lib/gcc/pic32mx/4.5.1/speed/libgcc.a(_umoddi3.o)

.data%z5        0x00000000        0x0
 .data          0x00000000        0x0 /opt/microchip/mplabc32/v2.02/bin/../lib/gcc/pic32mx/4.5.1/speed/libgcc.a(_umoddi3.o)

.mdebug.abi32%z6
                0x00000000        0x0
 .mdebug.abi32  0x00000000        0x0 /opt/microchip/mplabc32/v2.02/bin/../lib/gcc/pic32mx/4.5.1/speed/libgcc.a(_divdi3.o)

.bss%z7         0x00000000        0x0
 .bss           0x00000000        0x0 /opt/microchip/mplabc32/v2.02/bin/../lib/gcc/pic32mx/4.5.1/speed/libgcc.a(_divdi3.o)

.data%z8        0x00000000        0x0
 .data          0x00000000        0x0 /opt/microchip/mplabc32/v2.02/bin/../lib/gcc/pic32mx/4.5.1/speed/libgcc.a(_divdi3.o)

.mdebug.abi32%z9
                0x00000000        0x0
 .mdebug.abi32  0x00000000        0x0 /opt/microchip/mplabc32/v2.02/bin/../lib/gcc/pic32mx/4.5.1/speed/libgcc.a(_ashldi3.o)

.bss%z10        0x00000000        0x0
 .bss           0x00000000        0x0 /opt/microchip/mplabc32/v2.02/bin/../lib/gcc/pic32mx/4.5.1/speed/libgcc.a(_ashldi3.o)

.data%z11       0x00000000        0x0
 .data          0x00000000        0x0 /opt/microchip/mplabc32/v2.02/bin/../lib/gcc/pic32mx/4.5.1/speed/libgcc.a(_ashldi3.o)

.mdebug.abi32%z12
                0x00000000        0x0
 .mdebug.abi32  0x00000000        0x0 /opt/microchip/mplabc32/v2.02/bin/../lib/gcc/pic32mx/4.5.1/speed/libgcc.a(_lshrdi3.o)

.bss%z13        0x00000000        0x0
 .bss           0x00000000        0x0 /opt/microchip/mplabc32/v2.02/bin/../lib/gcc/pic32mx/4.5.1/speed/libgcc.a(_lshrdi3.o)

.data%z14       0x00000000        0x0
 .data          0x00000000        0x0 /opt/microchip/mplabc32/v2.02/bin/../lib/gcc/pic32mx/4.5.1/speed/libgcc.a(_lshrdi3.o)

.mdebug.abi32%z15
                0x00000000        0x0
 .mdebug.abi32  0x00000000        0x0 /opt/microchip/mplabc32/v2.02/bin/../lib/gcc/pic32mx/4.5.1/../../../../pic32mx/lib/speed/libe.a(_unorddf2.o)

.bss%z16        0x00000000        0x0
 .bss           0x00000000        0x0 /opt/microchip/mplabc32/v2.02/bin/../lib/gcc/pic32mx/4.5.1/../../../../pic32mx/lib/speed/libe.a(_unorddf2.o)

.data%z17       0x00000000        0x0
 .data          0x00000000        0x0 /opt/microchip/mplabc32/v2.02/bin/../lib/gcc/pic32mx/4.5.1/../../../../pic32mx/lib/speed/libe.a(_unorddf2.o)

.mdebug.abi32%z18
                0x00000000        0x0
 .mdebug.abi32  0x00000000        0x0 /opt/microchip/mplabc32/v2.02/bin/../lib/gcc/pic32mx/4.5.1/../../../../pic32mx/lib/speed/liblega-c.a(isinf.o)

.bss%z19        0x00000000        0x0
 .bss           0x00000000        0x0 /opt/microchip/mplabc32/v2.02/bin/../lib/gcc/pic32mx/4.5.1/../../../../pic32mx/lib/speed/liblega-c.a(isinf.o)

.data%z20       0x00000000        0x0
 .data          0x00000000        0x0 /opt/microchip/mplabc32/v2.02/bin/../lib/gcc/pic32mx/4.5.1/../../../../pic32mx/lib/speed/liblega-c.a(isinf.o)

.mdebug.abi32%z21
                0x00000000        0x0
 .mdebug.abi32  0x00000000        0x0 /opt/microchip/mplabc32/v2.02/bin/../lib/gcc/pic32mx/4.5.1/../../../../pic32mx/lib/speed/libmchp_peripheral_32MX795F512L.a(int_enable_interrupts_lib.o)

.bss%z22        0x00000000        0x0
 .bss           0x00000000        0x0 /opt/microchip/mplabc32/v2.02/bin/../lib/gcc/pic32mx/4.5.1/../../../../pic32mx/lib/speed/libmchp_peripheral_32MX795F512L.a(int_enable_interrupts_lib.o)

.data%z23       0x00000000        0x0
 .data          0x00000000        0x0 /opt/microchip/mplabc32/v2.02/bin/../lib/gcc/pic32mx/4.5.1/../../../../pic32mx/lib/speed/libmchp_peripheral_32MX795F512L.a(int_enable_interrupts_lib.o)

.mdebug.abi32%z24
                0x00000000        0x0
 .mdebug.abi32  0x00000000        0x0 /opt/microchip/mplabc32/v2.02/bin/../lib/gcc/pic32mx/4.5.1/../../../../pic32mx/lib/speed/libmchp_peripheral_32MX795F512L.a(uart_lib.o)

.bss%z25        0x00000000        0x0
 .bss           0x00000000        0x0 /opt/microchip/mplabc32/v2.02/bin/../lib/gcc/pic32mx/4.5.1/../../../../pic32mx/lib/speed/libmchp_peripheral_32MX795F512L.a(uart_lib.o)

.data%z26       0x00000000        0x0
 .data          0x00000000        0x0 /opt/microchip/mplabc32/v2.02/bin/../lib/gcc/pic32mx/4.5.1/../../../../pic32mx/lib/speed/libmchp_peripheral_32MX795F512L.a(uart_lib.o)

.mdebug.abi32%z27
                0x00000000        0x0
 .mdebug.abi32  0x00000000        0x0 /opt/microchip/mplabc32/v2.02/bin/../lib/gcc/pic32mx/4.5.1/../../../../pic32mx/lib/speed/libmchp_peripheral_32MX795F512L.a(_ports_tbl_libp.o)

.bss%z28        0x00000000        0x0
 .bss           0x00000000        0x0 /opt/microchip/mplabc32/v2.02/bin/../lib/gcc/pic32mx/4.5.1/../../../../pic32mx/lib/speed/libmchp_peripheral_32MX795F512L.a(_ports_tbl_libp.o)

.data%z29       0x00000000        0x0
 .data          0x00000000        0x0 /opt/microchip/mplabc32/v2.02/bin/../lib/gcc/pic32mx/4.5.1/../../../../pic32mx/lib/speed/libmchp_peripheral_32MX795F512L.a(_ports_tbl_libp.o)

.mdebug.abi32%z30
                0x00000000        0x0
 .mdebug.abi32  0x00000000        0x0 /opt/microchip/mplabc32/v2.02/bin/../lib/gcc/pic32mx/4.5.1/../../../../pic32mx/lib/speed/libmchp_peripheral_32MX795F512L.a(port_set_pins_digital_out_lib.o)

.bss%z31        0x00000000        0x0
 .bss           0x00000000        0x0 /opt/microchip/mplabc32/v2.02/bin/../lib/gcc/pic32mx/4.5.1/../../../../pic32mx/lib/speed/libmchp_peripheral_32MX795F512L.a(port_set_pins_digital_out_lib.o)

.data%z32       0x00000000        0x0
 .data          0x00000000        0x0 /opt/microchip/mplabc32/v2.02/bin/../lib/gcc/pic32mx/4.5.1/../../../../pic32mx/lib/speed/libmchp_peripheral_32MX795F512L.a(port_set_pins_digital_out_lib.o)

.mdebug.abi32%z33
                0x00000000        0x0
 .mdebug.abi32  0x00000000        0x0 /opt/microchip/mplabc32/v2.02/bin/../lib/gcc/pic32mx/4.5.1/../../../../pic32mx/lib/speed/libmchp_peripheral_32MX795F512L.a(port_set_pins_digital_in_lib.o)

.bss%z34        0x00000000        0x0
 .bss           0x00000000        0x0 /opt/microchip/mplabc32/v2.02/bin/../lib/gcc/pic32mx/4.5.1/../../../../pic32mx/lib/speed/libmchp_peripheral_32MX795F512L.a(port_set_pins_digital_in_lib.o)

.data%z35       0x00000000        0x0
 .data          0x00000000        0x0 /opt/microchip/mplabc32/v2.02/bin/../lib/gcc/pic32mx/4.5.1/../../../../pic32mx/lib/speed/libmchp_peripheral_32MX795F512L.a(port_set_pins_digital_in_lib.o)

.mdebug.abi32%z36
                0x00000000        0x0
 .mdebug.abi32  0x00000000        0x0 /opt/microchip/mplabc32/v2.02/bin/../lib/gcc/pic32mx/4.5.1/../../../../pic32mx/lib/speed/libmchp_peripheral_32MX795F512L.a(int_tbl_lib.o)

.bss%z37        0x00000000        0x0
 .bss           0x00000000        0x0 /opt/microchip/mplabc32/v2.02/bin/../lib/gcc/pic32mx/4.5.1/../../../../pic32mx/lib/speed/libmchp_peripheral_32MX795F512L.a(int_tbl_lib.o)

.data%z38       0x00000000        0x0
 .data          0x00000000        0x0 /opt/microchip/mplabc32/v2.02/bin/../lib/gcc/pic32mx/4.5.1/../../../../pic32mx/lib/speed/libmchp_peripheral_32MX795F512L.a(int_tbl_lib.o)

.mdebug.abi32%z39
                0x00000000        0x0
 .mdebug.abi32  0x00000000        0x0 /opt/microchip/mplabc32/v2.02/bin/../lib/gcc/pic32mx/4.5.1/../../../../pic32mx/lib/speed/libmchp_peripheral_32MX795F512L.a(int_enable_mv_int_lib.o)

.bss%z40        0x00000000        0x0
 .bss           0x00000000        0x0 /opt/microchip/mplabc32/v2.02/bin/../lib/gcc/pic32mx/4.5.1/../../../../pic32mx/lib/speed/libmchp_peripheral_32MX795F512L.a(int_enable_mv_int_lib.o)

.data%z41       0x00000000        0x0
 .data          0x00000000        0x0 /opt/microchip/mplabc32/v2.02/bin/../lib/gcc/pic32mx/4.5.1/../../../../pic32mx/lib/speed/libmchp_peripheral_32MX795F512L.a(int_enable_mv_int_lib.o)

.mdebug.abi32%z42
                0x00000000        0x0
 .mdebug.abi32  0x00000000        0x0 /opt/microchip/mplabc32/v2.02/bin/../lib/gcc/pic32mx/4.5.1/../../../../pic32mx/lib/speed/libmchp_peripheral_32MX795F512L.a(int_restore_interrupts_lib.o)

.bss%z43        0x00000000        0x0
 .bss           0x00000000        0x0 /opt/microchip/mplabc32/v2.02/bin/../lib/gcc/pic32mx/4.5.1/../../../../pic32mx/lib/speed/libmchp_peripheral_32MX795F512L.a(int_restore_interrupts_lib.o)

.data%z44       0x00000000        0x0
 .data          0x00000000        0x0 /opt/microchip/mplabc32/v2.02/bin/../lib/gcc/pic32mx/4.5.1/../../../../pic32mx/lib/speed/libmchp_peripheral_32MX795F512L.a(int_restore_interrupts_lib.o)

.mdebug.abi32%z45
                0x00000000        0x0
 .mdebug.abi32  0x00000000        0x0 /opt/microchip/mplabc32/v2.02/bin/../lib/gcc/pic32mx/4.5.1/../../../../pic32mx/lib/speed/libmchp_peripheral_32MX795F512L.a(int_disable_interrupts_lib.o)

.bss%z46        0x00000000        0x0
 .bss           0x00000000        0x0 /opt/microchip/mplabc32/v2.02/bin/../lib/gcc/pic32mx/4.5.1/../../../../pic32mx/lib/speed/libmchp_peripheral_32MX795F512L.a(int_disable_interrupts_lib.o)

.data%z47       0x00000000        0x0
 .data          0x00000000        0x0 /opt/microchip/mplabc32/v2.02/bin/../lib/gcc/pic32mx/4.5.1/../../../../pic32mx/lib/speed/libmchp_peripheral_32MX795F512L.a(int_disable_interrupts_lib.o)

.mdebug.abi32%z48
                0x00000000        0x0
 .mdebug.abi32  0x00000000        0x0 /opt/microchip/mplabc32/v2.02/bin/../lib/gcc/pic32mx/4.5.1/../../../../pic32mx/lib/speed/libmchp_peripheral_32MX795F512L.a(pcache.o)

.bss%z49        0x00000000        0x0
 .bss           0x00000000        0x0 /opt/microchip/mplabc32/v2.02/bin/../lib/gcc/pic32mx/4.5.1/../../../../pic32mx/lib/speed/libmchp_peripheral_32MX795F512L.a(pcache.o)

.data%z50       0x00000000        0x0
 .data          0x00000000        0x0 /opt/microchip/mplabc32/v2.02/bin/../lib/gcc/pic32mx/4.5.1/../../../../pic32mx/lib/speed/libmchp_peripheral_32MX795F512L.a(pcache.o)

.mdebug.abi32%z51
                0x00000000        0x0
 .mdebug.abi32  0x00000000        0x0 /opt/microchip/mplabc32/v2.02/bin/../lib/gcc/pic32mx/4.5.1/../../../../pic32mx/lib/speed/libmchp_peripheral_32MX795F512L.a(soft_reset_lib.o)

.bss%z52        0x00000000        0x0
 .bss           0x00000000        0x0 /opt/microchip/mplabc32/v2.02/bin/../lib/gcc/pic32mx/4.5.1/../../../../pic32mx/lib/speed/libmchp_peripheral_32MX795F512L.a(soft_reset_lib.o)

.data%z53       0x00000000        0x0
 .data          0x00000000        0x0 /opt/microchip/mplabc32/v2.02/bin/../lib/gcc/pic32mx/4.5.1/../../../../pic32mx/lib/speed/libmchp_peripheral_32MX795F512L.a(soft_reset_lib.o)

.mdebug.abi32%z54
                0x00000000        0x0
 .mdebug.abi32  0x00000000        0x0 /opt/microchip/mplabc32/v2.02/bin/../lib/gcc/pic32mx/4.5.1/../../../../pic32mx/lib/speed/libmchp_peripheral_32MX795F512L.a(eth_miim_access.o)

.bss%z55        0x00000000        0x0
 .bss           0x00000000        0x0 /opt/microchip/mplabc32/v2.02/bin/../lib/gcc/pic32mx/4.5.1/../../../../pic32mx/lib/speed/libmchp_peripheral_32MX795F512L.a(eth_miim_access.o)

.data%z56       0x00000000        0x0
 .data          0x00000000        0x0 /opt/microchip/mplabc32/v2.02/bin/../lib/gcc/pic32mx/4.5.1/../../../../pic32mx/lib/speed/libmchp_peripheral_32MX795F512L.a(eth_miim_access.o)

.mdebug.abi32%z57
                0x00000000        0x0
 .mdebug.abi32  0x00000000        0x0 /opt/microchip/mplabc32/v2.02/bin/../lib/gcc/pic32mx/4.5.1/../../../../pic32mx/lib/speed/libmchp_peripheral_32MX795F512L.a(_eth_append_busy_list_lib.o)

.bss%z58        0x00000000        0x0
 .bss           0x00000000        0x0 /opt/microchip/mplabc32/v2.02/bin/../lib/gcc/pic32mx/4.5.1/../../../../pic32mx/lib/speed/libmchp_peripheral_32MX795F512L.a(_eth_append_busy_list_lib.o)

.data%z59       0x00000000        0x0
 .data          0x00000000        0x0 /opt/microchip/mplabc32/v2.02/bin/../lib/gcc/pic32mx/4.5.1/../../../../pic32mx/lib/speed/libmchp_peripheral_32MX795F512L.a(_eth_append_busy_list_lib.o)

.mdebug.abi32%z60
                0x00000000        0x0
 .mdebug.abi32  0x00000000        0x0 /opt/microchip/mplabc32/v2.02/bin/../lib/gcc/pic32mx/4.5.1/../../../../pic32mx/lib/speed/libmchp_peripheral_32MX795F512L.a(eth_tx_packet_lib.o)

.bss%z61        0x00000000        0x0
 .bss           0x00000000        0x0 /opt/microchip/mplabc32/v2.02/bin/../lib/gcc/pic32mx/4.5.1/../../../../pic32mx/lib/speed/libmchp_peripheral_32MX795F512L.a(eth_tx_packet_lib.o)

.data%z62       0x00000000        0x0
 .data          0x00000000        0x0 /opt/microchip/mplabc32/v2.02/bin/../lib/gcc/pic32mx/4.5.1/../../../../pic32mx/lib/speed/libmchp_peripheral_32MX795F512L.a(eth_tx_packet_lib.o)

.mdebug.abi32%z63
                0x00000000        0x0
 .mdebug.abi32  0x00000000        0x0 /opt/microchip/mplabc32/v2.02/bin/../lib/gcc/pic32mx/4.5.1/../../../../pic32mx/lib/speed/libmchp_peripheral_32MX795F512L.a(eth_rx_set_buffer_size_lib.o)

.bss%z64        0x00000000        0x0
 .bss           0x00000000        0x0 /opt/microchip/mplabc32/v2.02/bin/../lib/gcc/pic32mx/4.5.1/../../../../pic32mx/lib/speed/libmchp_peripheral_32MX795F512L.a(eth_rx_set_buffer_size_lib.o)

.data%z65       0x00000000        0x0
 .data          0x00000000        0x0 /opt/microchip/mplabc32/v2.02/bin/../lib/gcc/pic32mx/4.5.1/../../../../pic32mx/lib/speed/libmchp_peripheral_32MX795F512L.a(eth_rx_set_buffer_size_lib.o)

.mdebug.abi32%z66
                0x00000000        0x0
 .mdebug.abi32  0x00000000        0x0 /opt/microchip/mplabc32/v2.02/bin/../lib/gcc/pic32mx/4.5.1/../../../../pic32mx/lib/speed/libmchp_peripheral_32MX795F512L.a(eth_rx_get_packet_lib.o)

.bss%z67        0x00000000        0x0
 .bss           0x00000000        0x0 /opt/microchip/mplabc32/v2.02/bin/../lib/gcc/pic32mx/4.5.1/../../../../pic32mx/lib/speed/libmchp_peripheral_32MX795F512L.a(eth_rx_get_packet_lib.o)

.data%z68       0x00000000        0x0
 .data          0x00000000        0x0 /opt/microchip/mplabc32/v2.02/bin/../lib/gcc/pic32mx/4.5.1/../../../../pic32mx/lib/speed/libmchp_peripheral_32MX795F512L.a(eth_rx_get_packet_lib.o)

.mdebug.abi32%z69
                0x00000000        0x0
 .mdebug.abi32  0x00000000        0x0 /opt/microchip/mplabc32/v2.02/bin/../lib/gcc/pic32mx/4.5.1/../../../../pic32mx/lib/speed/libmchp_peripheral_32MX795F512L.a(eth_rx_filters_lib.o)

.bss%z70        0x00000000        0x0
 .bss           0x00000000        0x0 /opt/microchip/mplabc32/v2.02/bin/../lib/gcc/pic32mx/4.5.1/../../../../pic32mx/lib/speed/libmchp_peripheral_32MX795F512L.a(eth_rx_filters_lib.o)

.data%z71       0x00000000        0x0
 .data          0x00000000        0x0 /opt/microchip/mplabc32/v2.02/bin/../lib/gcc/pic32mx/4.5.1/../../../../pic32mx/lib/speed/libmchp_peripheral_32MX795F512L.a(eth_rx_filters_lib.o)

.mdebug.abi32%z72
                0x00000000        0x0
 .mdebug.abi32  0x00000000        0x0 /opt/microchip/mplabc32/v2.02/bin/../lib/gcc/pic32mx/4.5.1/../../../../pic32mx/lib/speed/libmchp_peripheral_32MX795F512L.a(eth_rx_buffers_append_lib.o)

.bss%z73        0x00000000        0x0
 .bss           0x00000000        0x0 /opt/microchip/mplabc32/v2.02/bin/../lib/gcc/pic32mx/4.5.1/../../../../pic32mx/lib/speed/libmchp_peripheral_32MX795F512L.a(eth_rx_buffers_append_lib.o)

.data%z74       0x00000000        0x0
 .data          0x00000000        0x0 /opt/microchip/mplabc32/v2.02/bin/../lib/gcc/pic32mx/4.5.1/../../../../pic32mx/lib/speed/libmchp_peripheral_32MX795F512L.a(eth_rx_buffers_append_lib.o)

.mdebug.abi32%z75
                0x00000000        0x0
 .mdebug.abi32  0x00000000        0x0 /opt/microchip/mplabc32/v2.02/bin/../lib/gcc/pic32mx/4.5.1/../../../../pic32mx/lib/speed/libmchp_peripheral_32MX795F512L.a(eth_mac_set_address_max_lib.o)

.bss%z76        0x00000000        0x0
 .bss           0x00000000        0x0 /opt/microchip/mplabc32/v2.02/bin/../lib/gcc/pic32mx/4.5.1/../../../../pic32mx/lib/speed/libmchp_peripheral_32MX795F512L.a(eth_mac_set_address_max_lib.o)

.data%z77       0x00000000        0x0
 .data          0x00000000        0x0 /opt/microchip/mplabc32/v2.02/bin/../lib/gcc/pic32mx/4.5.1/../../../../pic32mx/lib/speed/libmchp_peripheral_32MX795F512L.a(eth_mac_set_address_max_lib.o)

.mdebug.abi32%z78
                0x00000000        0x0
 .mdebug.abi32  0x00000000        0x0 /opt/microchip/mplabc32/v2.02/bin/../lib/gcc/pic32mx/4.5.1/../../../../pic32mx/lib/speed/libmchp_peripheral_32MX795F512L.a(eth_mac_open_lib.o)

.bss%z79        0x00000000        0x0
 .bss           0x00000000        0x0 /opt/microchip/mplabc32/v2.02/bin/../lib/gcc/pic32mx/4.5.1/../../../../pic32mx/lib/speed/libmchp_peripheral_32MX795F512L.a(eth_mac_open_lib.o)

.data%z80       0x00000000        0x0
 .data          0x00000000        0x0 /opt/microchip/mplabc32/v2.02/bin/../lib/gcc/pic32mx/4.5.1/../../../../pic32mx/lib/speed/libmchp_peripheral_32MX795F512L.a(eth_mac_open_lib.o)

.mdebug.abi32%z81
                0x00000000        0x0
 .mdebug.abi32  0x00000000        0x0 /opt/microchip/mplabc32/v2.02/bin/../lib/gcc/pic32mx/4.5.1/../../../../pic32mx/lib/speed/libmchp_peripheral_32MX795F512L.a(eth_init_lib.o)

.bss%z82        0x00000000        0x0
 .bss           0x00000000        0x0 /opt/microchip/mplabc32/v2.02/bin/../lib/gcc/pic32mx/4.5.1/../../../../pic32mx/lib/speed/libmchp_peripheral_32MX795F512L.a(eth_init_lib.o)

.data%z83       0x00000000        0x0
 .data          0x00000000        0x0 /opt/microchip/mplabc32/v2.02/bin/../lib/gcc/pic32mx/4.5.1/../../../../pic32mx/lib/speed/libmchp_peripheral_32MX795F512L.a(eth_init_lib.o)

.mdebug.abi32%z84
                0x00000000        0x0
 .mdebug.abi32  0x00000000        0x0 /opt/microchip/mplabc32/v2.02/bin/../lib/gcc/pic32mx/4.5.1/../../../../pic32mx/lib/speed/libmchp_peripheral_32MX795F512L.a(eth_descriptors_add_lib.o)

.bss%z85        0x00000000        0x0
 .bss           0x00000000        0x0 /opt/microchip/mplabc32/v2.02/bin/../lib/gcc/pic32mx/4.5.1/../../../../pic32mx/lib/speed/libmchp_peripheral_32MX795F512L.a(eth_descriptors_add_lib.o)

.data%z86       0x00000000        0x0
 .data          0x00000000        0x0 /opt/microchip/mplabc32/v2.02/bin/../lib/gcc/pic32mx/4.5.1/../../../../pic32mx/lib/speed/libmchp_peripheral_32MX795F512L.a(eth_descriptors_add_lib.o)

.mdebug.abi32%z87
                0x00000000        0x0
 .mdebug.abi32  0x00000000        0x0 /opt/microchip/mplabc32/v2.02/bin/../lib/gcc/pic32mx/4.5.1/../../../../pic32mx/lib/speed/libmchp_peripheral_32MX795F512L.a(eth_ack_packet_lib.o)

.bss%z88        0x00000000        0x0
 .bss           0x00000000        0x0 /opt/microchip/mplabc32/v2.02/bin/../lib/gcc/pic32mx/4.5.1/../../../../pic32mx/lib/speed/libmchp_peripheral_32MX795F512L.a(eth_ack_packet_lib.o)

.data%z89       0x00000000        0x0
 .data          0x00000000        0x0 /opt/microchip/mplabc32/v2.02/bin/../lib/gcc/pic32mx/4.5.1/../../../../pic32mx/lib/speed/libmchp_peripheral_32MX795F512L.a(eth_ack_packet_lib.o)

.mdebug.abi32%z90
                0x00000000        0x0
 .mdebug.abi32  0x00000000        0x0 /opt/microchip/mplabc32/v2.02/bin/../lib/gcc/pic32mx/4.5.1/../../../../pic32mx/lib/speed/libmchp_peripheral.a(read_core_timer_lib.o)

.bss%z91        0x00000000        0x0
 .bss           0x00000000        0x0 /opt/microchip/mplabc32/v2.02/bin/../lib/gcc/pic32mx/4.5.1/../../../../pic32mx/lib/speed/libmchp_peripheral.a(read_core_timer_lib.o)

.data%z92       0x00000000        0x0
 .data          0x00000000        0x0 /opt/microchip/mplabc32/v2.02/bin/../lib/gcc/pic32mx/4.5.1/../../../../pic32mx/lib/speed/libmchp_peripheral.a(read_core_timer_lib.o)

.mdebug.abi32%z93
                0x00000000        0x0
 .mdebug.abi32  0x00000000        0x0 /opt/microchip/mplabc32/v2.02/bin/../lib/gcc/pic32mx/4.5.1/../../../../pic32mx/lib/speed/libe.a(_ldexpf.o)

.bss%z94        0x00000000        0x0
 .bss           0x00000000        0x0 /opt/microchip/mplabc32/v2.02/bin/../lib/gcc/pic32mx/4.5.1/../../../../pic32mx/lib/speed/libe.a(_ldexpf.o)

.data%z95       0x00000000        0x0
 .data          0x00000000        0x0 /opt/microchip/mplabc32/v2.02/bin/../lib/gcc/pic32mx/4.5.1/../../../../pic32mx/lib/speed/libe.a(_ldexpf.o)

.mdebug.abi32%z96
                0x00000000        0x0
 .mdebug.abi32  0x00000000        0x0 /opt/microchip/mplabc32/v2.02/bin/../lib/gcc/pic32mx/4.5.1/../../../../pic32mx/lib/speed/libe.a(_ldexp.o)

.bss%z97        0x00000000        0x0
 .bss           0x00000000        0x0 /opt/microchip/mplabc32/v2.02/bin/../lib/gcc/pic32mx/4.5.1/../../../../pic32mx/lib/speed/libe.a(_ldexp.o)

.data%z98       0x00000000        0x0
 .data          0x00000000        0x0 /opt/microchip/mplabc32/v2.02/bin/../lib/gcc/pic32mx/4.5.1/../../../../pic32mx/lib/speed/libe.a(_ldexp.o)

.mdebug.abi32%z99
                0x00000000        0x0
 .mdebug.abi32  0x00000000        0x0 /opt/microchip/mplabc32/v2.02/bin/../lib/gcc/pic32mx/4.5.1/../../../../pic32mx/lib/speed/libe.a(_strtof.o)

.bss%z100       0x00000000        0x0
 .bss           0x00000000        0x0 /opt/microchip/mplabc32/v2.02/bin/../lib/gcc/pic32mx/4.5.1/../../../../pic32mx/lib/speed/libe.a(_strtof.o)

.data%z101      0x00000000        0x0
 .data          0x00000000        0x0 /opt/microchip/mplabc32/v2.02/bin/../lib/gcc/pic32mx/4.5.1/../../../../pic32mx/lib/speed/libe.a(_strtof.o)

.mdebug.abi32%z102
                0x00000000        0x0
 .mdebug.abi32  0x00000000        0x0 /opt/microchip/mplabc32/v2.02/bin/../lib/gcc/pic32mx/4.5.1/../../../../pic32mx/lib/speed/libe.a(_strtod.o)

.bss%z103       0x00000000        0x0
 .bss           0x00000000        0x0 /opt/microchip/mplabc32/v2.02/bin/../lib/gcc/pic32mx/4.5.1/../../../../pic32mx/lib/speed/libe.a(_strtod.o)

.data%z104      0x00000000        0x0
 .data          0x00000000        0x0 /opt/microchip/mplabc32/v2.02/bin/../lib/gcc/pic32mx/4.5.1/../../../../pic32mx/lib/speed/libe.a(_strtod.o)

.bss%z105       0x00000000        0x0
 .bss           0x00000000        0x0 /opt/microchip/mplabc32/v2.02/bin/../lib/gcc/pic32mx/4.5.1/../../../../pic32mx/lib/speed/libm.a(func32.o)

.data%z106      0x00000000        0x0
 .data          0x00000000        0x0 /opt/microchip/mplabc32/v2.02/bin/../lib/gcc/pic32mx/4.5.1/../../../../pic32mx/lib/speed/libm.a(func32.o)

.bss%z107       0x00000000        0x0
 .bss           0x00000000        0x0 /opt/microchip/mplabc32/v2.02/bin/../lib/gcc/pic32mx/4.5.1/../../../../pic32mx/lib/speed/libm.a(log32.o)

.mdebug.abi32%z108
                0x00000000        0x0
 .mdebug.abi32  0x00000000        0x0 /opt/microchip/mplabc32/v2.02/bin/../lib/gcc/pic32mx/4.5.1/../../../../pic32mx/lib/speed/libm.a(s_lib_ver.o)

.bss%z109       0x00000000        0x0
 .bss           0x00000000        0x0 /opt/microchip/mplabc32/v2.02/bin/../lib/gcc/pic32mx/4.5.1/../../../../pic32mx/lib/speed/libm.a(s_lib_ver.o)

.data%z110      0x00000000        0x0
 .data          0x00000000        0x0 /opt/microchip/mplabc32/v2.02/bin/../lib/gcc/pic32mx/4.5.1/../../../../pic32mx/lib/speed/libm.a(s_lib_ver.o)

.bss%z111       0x00000000        0x0
 .bss           0x00000000        0x0 /opt/microchip/mplabc32/v2.02/bin/../lib/gcc/pic32mx/4.5.1/../../../../pic32mx/lib/speed/libm.a(fp32.o)

.data%z112      0x00000000        0x0
 .data          0x00000000        0x0 /opt/microchip/mplabc32/v2.02/bin/../lib/gcc/pic32mx/4.5.1/../../../../pic32mx/lib/speed/libm.a(fp32.o)

.bss%z113       0x00000000        0x0
 .bss           0x00000000        0x0 /opt/microchip/mplabc32/v2.02/bin/../lib/gcc/pic32mx/4.5.1/../../../../pic32mx/lib/speed/libm.a(dp32.o)

.data%z114      0x00000000        0x0
 .data          0x00000000        0x0 /opt/microchip/mplabc32/v2.02/bin/../lib/gcc/pic32mx/4.5.1/../../../../pic32mx/lib/speed/libm.a(dp32.o)

.mdebug.abi32%z115
                0x00000000        0x0
 .mdebug.abi32  0x00000000        0x0 /opt/microchip/mplabc32/v2.02/bin/../lib/gcc/pic32mx/4.5.1/../../../../pic32mx/lib/speed/libm.a(w_log10.o)

.bss%z116       0x00000000        0x0
 .bss           0x00000000        0x0 /opt/microchip/mplabc32/v2.02/bin/../lib/gcc/pic32mx/4.5.1/../../../../pic32mx/lib/speed/libm.a(w_log10.o)

.data%z117      0x00000000        0x0
 .data          0x00000000        0x0 /opt/microchip/mplabc32/v2.02/bin/../lib/gcc/pic32mx/4.5.1/../../../../pic32mx/lib/speed/libm.a(w_log10.o)

.bss%z118       0x00000000        0x0
 .bss           0x00000000        0x0 /opt/microchip/mplabc32/v2.02/bin/../lib/gcc/pic32mx/4.5.1/../../../../pic32mx/lib/speed/libm.a(mod32.o)

.data%z119      0x00000000        0x0
 .data          0x00000000        0x0 /opt/microchip/mplabc32/v2.02/bin/../lib/gcc/pic32mx/4.5.1/../../../../pic32mx/lib/speed/libm.a(mod32.o)

.mdebug.abi32%z120
                0x00000000        0x0
 .mdebug.abi32  0x00000000        0x0 /opt/microchip/mplabc32/v2.02/bin/../lib/gcc/pic32mx/4.5.1/../../../../pic32mx/lib/speed/liblega-c.a(_bufproc.o)

.bss%z121       0x00000000        0x0
 .bss           0x00000000        0x0 /opt/microchip/mplabc32/v2.02/bin/../lib/gcc/pic32mx/4.5.1/../../../../pic32mx/lib/speed/liblega-c.a(_bufproc.o)

.data%z122      0x00000000        0x0
 .data          0x00000000        0x0 /opt/microchip/mplabc32/v2.02/bin/../lib/gcc/pic32mx/4.5.1/../../../../pic32mx/lib/speed/liblega-c.a(_bufproc.o)

.mdebug.abi32%z123
                0x00000000        0x0
 .mdebug.abi32  0x00000000        0x0 /opt/microchip/mplabc32/v2.02/bin/../lib/gcc/pic32mx/4.5.1/../../../../pic32mx/lib/speed/liblega-c.a(memmove.o)

.bss%z124       0x00000000        0x0
 .bss           0x00000000        0x0 /opt/microchip/mplabc32/v2.02/bin/../lib/gcc/pic32mx/4.5.1/../../../../pic32mx/lib/speed/liblega-c.a(memmove.o)

.data%z125      0x00000000        0x0
 .data          0x00000000        0x0 /opt/microchip/mplabc32/v2.02/bin/../lib/gcc/pic32mx/4.5.1/../../../../pic32mx/lib/speed/liblega-c.a(memmove.o)

.mdebug.abi32%z126
                0x00000000        0x0
 .mdebug.abi32  0x00000000        0x0 /opt/microchip/mplabc32/v2.02/bin/../lib/gcc/pic32mx/4.5.1/../../../../pic32mx/lib/speed/liblega-c.a(_mon_putc.o)

.bss%z127       0x00000000        0x0
 .bss           0x00000000        0x0 /opt/microchip/mplabc32/v2.02/bin/../lib/gcc/pic32mx/4.5.1/../../../../pic32mx/lib/speed/liblega-c.a(_mon_putc.o)

.data%z128      0x00000000        0x0
 .data          0x00000000        0x0 /opt/microchip/mplabc32/v2.02/bin/../lib/gcc/pic32mx/4.5.1/../../../../pic32mx/lib/speed/liblega-c.a(_mon_putc.o)

.mdebug.abi32%z129
                0x00000000        0x0
 .mdebug.abi32  0x00000000        0x0 /opt/microchip/mplabc32/v2.02/bin/../lib/gcc/pic32mx/4.5.1/../../../../pic32mx/lib/speed/liblega-c.a(isatty.o)

.bss%z130       0x00000000        0x0
 .bss           0x00000000        0x0 /opt/microchip/mplabc32/v2.02/bin/../lib/gcc/pic32mx/4.5.1/../../../../pic32mx/lib/speed/liblega-c.a(isatty.o)

.data%z131      0x00000000        0x0
 .data          0x00000000        0x0 /opt/microchip/mplabc32/v2.02/bin/../lib/gcc/pic32mx/4.5.1/../../../../pic32mx/lib/speed/liblega-c.a(isatty.o)

.mdebug.abi32%z132
                0x00000000        0x0
 .mdebug.abi32  0x00000000        0x0 /opt/microchip/mplabc32/v2.02/bin/../lib/gcc/pic32mx/4.5.1/../../../../pic32mx/lib/speed/liblega-c.a(_exit.o)

.bss%z133       0x00000000        0x0
 .bss           0x00000000        0x0 /opt/microchip/mplabc32/v2.02/bin/../lib/gcc/pic32mx/4.5.1/../../../../pic32mx/lib/speed/liblega-c.a(_exit.o)

.data%z134      0x00000000        0x0
 .data          0x00000000        0x0 /opt/microchip/mplabc32/v2.02/bin/../lib/gcc/pic32mx/4.5.1/../../../../pic32mx/lib/speed/liblega-c.a(_exit.o)

.mdebug.abi32%z135
                0x00000000        0x0
 .mdebug.abi32  0x00000000        0x0 /opt/microchip/mplabc32/v2.02/bin/../lib/gcc/pic32mx/4.5.1/../../../../pic32mx/lib/speed/liblega-c.a(_cleanup.o)

.bss%z136       0x00000000        0x0
 .bss           0x00000000        0x0 /opt/microchip/mplabc32/v2.02/bin/../lib/gcc/pic32mx/4.5.1/../../../../pic32mx/lib/speed/liblega-c.a(_cleanup.o)

.data%z137      0x00000000        0x0
 .data          0x00000000        0x0 /opt/microchip/mplabc32/v2.02/bin/../lib/gcc/pic32mx/4.5.1/../../../../pic32mx/lib/speed/liblega-c.a(_cleanup.o)

.mdebug.abi32%z138
                0x00000000        0x0
 .mdebug.abi32  0x00000000        0x0 /opt/microchip/mplabc32/v2.02/bin/../lib/gcc/pic32mx/4.5.1/../../../../pic32mx/lib/speed/liblega-c.a(_ioinit.o)

.bss%z139       0x00000000        0x0
 .bss           0x00000000        0x0 /opt/microchip/mplabc32/v2.02/bin/../lib/gcc/pic32mx/4.5.1/../../../../pic32mx/lib/speed/liblega-c.a(_ioinit.o)

.data%z140      0x00000000        0x0
 .data          0x00000000        0x0 /opt/microchip/mplabc32/v2.02/bin/../lib/gcc/pic32mx/4.5.1/../../../../pic32mx/lib/speed/liblega-c.a(_ioinit.o)

.mdebug.abi32%z141
                0x00000000        0x0
 .mdebug.abi32  0x00000000        0x0 /opt/microchip/mplabc32/v2.02/bin/../lib/gcc/pic32mx/4.5.1/../../../../pic32mx/lib/speed/liblega-c.a(fullexit.o)

.bss%z142       0x00000000        0x0
 .bss           0x00000000        0x0 /opt/microchip/mplabc32/v2.02/bin/../lib/gcc/pic32mx/4.5.1/../../../../pic32mx/lib/speed/liblega-c.a(fullexit.o)

.mdebug.abi32%z143
                0x00000000        0x0
 .mdebug.abi32  0x00000000        0x0 /opt/microchip/mplabc32/v2.02/bin/../lib/gcc/pic32mx/4.5.1/../../../../pic32mx/lib/speed/liblega-c.a(strtof.o)

.bss%z144       0x00000000        0x0
 .bss           0x00000000        0x0 /opt/microchip/mplabc32/v2.02/bin/../lib/gcc/pic32mx/4.5.1/../../../../pic32mx/lib/speed/liblega-c.a(strtof.o)

.data%z145      0x00000000        0x0
 .data          0x00000000        0x0 /opt/microchip/mplabc32/v2.02/bin/../lib/gcc/pic32mx/4.5.1/../../../../pic32mx/lib/speed/liblega-c.a(strtof.o)

.mdebug.abi32%z146
                0x00000000        0x0
 .mdebug.abi32  0x00000000        0x0 /opt/microchip/mplabc32/v2.02/bin/../lib/gcc/pic32mx/4.5.1/../../../../pic32mx/lib/speed/liblega-c.a(strtod.o)

.bss%z147       0x00000000        0x0
 .bss           0x00000000        0x0 /opt/microchip/mplabc32/v2.02/bin/../lib/gcc/pic32mx/4.5.1/../../../../pic32mx/lib/speed/liblega-c.a(strtod.o)

.data%z148      0x00000000        0x0
 .data          0x00000000        0x0 /opt/microchip/mplabc32/v2.02/bin/../lib/gcc/pic32mx/4.5.1/../../../../pic32mx/lib/speed/liblega-c.a(strtod.o)

.mdebug.abi32%z149
                0x00000000        0x0
 .mdebug.abi32  0x00000000        0x0 /opt/microchip/mplabc32/v2.02/bin/../lib/gcc/pic32mx/4.5.1/../../../../pic32mx/lib/speed/liblega-c.a(strtoull.o)

.bss%z150       0x00000000        0x0
 .bss           0x00000000        0x0 /opt/microchip/mplabc32/v2.02/bin/../lib/gcc/pic32mx/4.5.1/../../../../pic32mx/lib/speed/liblega-c.a(strtoull.o)

.data%z151      0x00000000        0x0
 .data          0x00000000        0x0 /opt/microchip/mplabc32/v2.02/bin/../lib/gcc/pic32mx/4.5.1/../../../../pic32mx/lib/speed/liblega-c.a(strtoull.o)

.mdebug.abi32%z152
                0x00000000        0x0
 .mdebug.abi32  0x00000000        0x0 /opt/microchip/mplabc32/v2.02/bin/../lib/gcc/pic32mx/4.5.1/../../../../pic32mx/lib/speed/liblega-c.a(strtoll.o)

.bss%z153       0x00000000        0x0
 .bss           0x00000000        0x0 /opt/microchip/mplabc32/v2.02/bin/../lib/gcc/pic32mx/4.5.1/../../../../pic32mx/lib/speed/liblega-c.a(strtoll.o)

.data%z154      0x00000000        0x0
 .data          0x00000000        0x0 /opt/microchip/mplabc32/v2.02/bin/../lib/gcc/pic32mx/4.5.1/../../../../pic32mx/lib/speed/liblega-c.a(strtoll.o)

.mdebug.abi32%z155
                0x00000000        0x0
 .mdebug.abi32  0x00000000        0x0 /opt/microchip/mplabc32/v2.02/bin/../lib/gcc/pic32mx/4.5.1/../../../../pic32mx/lib/speed/liblega-c.a(strtoul.o)

.bss%z156       0x00000000        0x0
 .bss           0x00000000        0x0 /opt/microchip/mplabc32/v2.02/bin/../lib/gcc/pic32mx/4.5.1/../../../../pic32mx/lib/speed/liblega-c.a(strtoul.o)

.data%z157      0x00000000        0x0
 .data          0x00000000        0x0 /opt/microchip/mplabc32/v2.02/bin/../lib/gcc/pic32mx/4.5.1/../../../../pic32mx/lib/speed/liblega-c.a(strtoul.o)

.mdebug.abi32%z158
                0x00000000        0x0
 .mdebug.abi32  0x00000000        0x0 /opt/microchip/mplabc32/v2.02/bin/../lib/gcc/pic32mx/4.5.1/../../../../pic32mx/lib/speed/liblega-c.a(malloc_realloc.o)

.bss%z159       0x00000000        0x0
 .bss           0x00000000        0x0 /opt/microchip/mplabc32/v2.02/bin/../lib/gcc/pic32mx/4.5.1/../../../../pic32mx/lib/speed/liblega-c.a(malloc_realloc.o)

.data%z160      0x00000000        0x0
 .data          0x00000000        0x0 /opt/microchip/mplabc32/v2.02/bin/../lib/gcc/pic32mx/4.5.1/../../../../pic32mx/lib/speed/liblega-c.a(malloc_realloc.o)

.mdebug.abi32%z161
                0x00000000        0x0
 .mdebug.abi32  0x00000000        0x0 /opt/microchip/mplabc32/v2.02/bin/../lib/gcc/pic32mx/4.5.1/../../../../pic32mx/lib/speed/liblega-c.a(_mon_write.o)

.bss%z162       0x00000000        0x0
 .bss           0x00000000        0x0 /opt/microchip/mplabc32/v2.02/bin/../lib/gcc/pic32mx/4.5.1/../../../../pic32mx/lib/speed/liblega-c.a(_mon_write.o)

.data%z163      0x00000000        0x0
 .data          0x00000000        0x0 /opt/microchip/mplabc32/v2.02/bin/../lib/gcc/pic32mx/4.5.1/../../../../pic32mx/lib/speed/liblega-c.a(_mon_write.o)

.mdebug.abi32%z164
                0x00000000        0x0
 .mdebug.abi32  0x00000000        0x0 /opt/microchip/mplabc32/v2.02/bin/../lib/gcc/pic32mx/4.5.1/../../../../pic32mx/lib/speed/liblega-c.a(_mon_getc.o)

.bss%z165       0x00000000        0x0
 .bss           0x00000000        0x0 /opt/microchip/mplabc32/v2.02/bin/../lib/gcc/pic32mx/4.5.1/../../../../pic32mx/lib/speed/liblega-c.a(_mon_getc.o)

.data%z166      0x00000000        0x0
 .data          0x00000000        0x0 /opt/microchip/mplabc32/v2.02/bin/../lib/gcc/pic32mx/4.5.1/../../../../pic32mx/lib/speed/liblega-c.a(_mon_getc.o)

.mdebug.abi32%z167
                0x00000000        0x0
 .mdebug.abi32  0x00000000        0x0 /opt/microchip/mplabc32/v2.02/bin/../lib/gcc/pic32mx/4.5.1/../../../../pic32mx/lib/speed/liblega-c.a(sbrk.o)

.mdebug.abi32%z168
                0x00000000        0x0
 .mdebug.abi32  0x00000000        0x0 /opt/microchip/mplabc32/v2.02/bin/../lib/gcc/pic32mx/4.5.1/../../../../pic32mx/lib/speed/liblega-c.a(ungetc.o)

.bss%z169       0x00000000        0x0
 .bss           0x00000000        0x0 /opt/microchip/mplabc32/v2.02/bin/../lib/gcc/pic32mx/4.5.1/../../../../pic32mx/lib/speed/liblega-c.a(ungetc.o)

.data%z170      0x00000000        0x0
 .data          0x00000000        0x0 /opt/microchip/mplabc32/v2.02/bin/../lib/gcc/pic32mx/4.5.1/../../../../pic32mx/lib/speed/liblega-c.a(ungetc.o)

.mdebug.abi32%z171
                0x00000000        0x0
 .mdebug.abi32  0x00000000        0x0 /opt/microchip/mplabc32/v2.02/bin/../lib/gcc/pic32mx/4.5.1/../../../../pic32mx/lib/speed/liblega-c.a(fputc.o)

.bss%z172       0x00000000        0x0
 .bss           0x00000000        0x0 /opt/microchip/mplabc32/v2.02/bin/../lib/gcc/pic32mx/4.5.1/../../../../pic32mx/lib/speed/liblega-c.a(fputc.o)

.data%z173      0x00000000        0x0
 .data          0x00000000        0x0 /opt/microchip/mplabc32/v2.02/bin/../lib/gcc/pic32mx/4.5.1/../../../../pic32mx/lib/speed/liblega-c.a(fputc.o)

.mdebug.abi32%z174
                0x00000000        0x0
 .mdebug.abi32  0x00000000        0x0 /opt/microchip/mplabc32/v2.02/bin/../lib/gcc/pic32mx/4.5.1/../../../../pic32mx/lib/speed/liblega-c.a(fgetc.o)

.bss%z175       0x00000000        0x0
 .bss           0x00000000        0x0 /opt/microchip/mplabc32/v2.02/bin/../lib/gcc/pic32mx/4.5.1/../../../../pic32mx/lib/speed/liblega-c.a(fgetc.o)

.data%z176      0x00000000        0x0
 .data          0x00000000        0x0 /opt/microchip/mplabc32/v2.02/bin/../lib/gcc/pic32mx/4.5.1/../../../../pic32mx/lib/speed/liblega-c.a(fgetc.o)

.mdebug.abi32%z177
                0x00000000        0x0
 .mdebug.abi32  0x00000000        0x0 /opt/microchip/mplabc32/v2.02/bin/../lib/gcc/pic32mx/4.5.1/../../../../pic32mx/lib/speed/liblega-c.a(_iobstring.o)

.bss%z178       0x00000000        0x0
 .bss           0x00000000        0x0 /opt/microchip/mplabc32/v2.02/bin/../lib/gcc/pic32mx/4.5.1/../../../../pic32mx/lib/speed/liblega-c.a(_iobstring.o)

.data%z179      0x00000000        0x0
 .data          0x00000000        0x0 /opt/microchip/mplabc32/v2.02/bin/../lib/gcc/pic32mx/4.5.1/../../../../pic32mx/lib/speed/liblega-c.a(_iobstring.o)

.mdebug.abi32%z180
                0x00000000        0x0
 .mdebug.abi32  0x00000000        0x0 /opt/microchip/mplabc32/v2.02/bin/../lib/gcc/pic32mx/4.5.1/../../../../pic32mx/lib/speed/liblega-c.a(_iobfuncs.o)

.data%z181      0x00000000        0x0
 .data          0x00000000        0x0 /opt/microchip/mplabc32/v2.02/bin/../lib/gcc/pic32mx/4.5.1/../../../../pic32mx/lib/speed/liblega-c.a(_iobfuncs.o)

.mdebug.abi32%z182
                0x00000000        0x0
 .mdebug.abi32  0x00000000        0x0 /opt/microchip/mplabc32/v2.02/bin/../lib/gcc/pic32mx/4.5.1/../../../../pic32mx/lib/speed/liblega-c.a(_iobdata.o)

.mdebug.abi32%z183
                0x00000000        0x0
 .mdebug.abi32  0x00000000        0x0 /opt/microchip/mplabc32/v2.02/bin/../lib/gcc/pic32mx/4.5.1/../../../../pic32mx/lib/speed/liblega-c.a(_doscan.o)

.bss%z184       0x00000000        0x0
 .bss           0x00000000        0x0 /opt/microchip/mplabc32/v2.02/bin/../lib/gcc/pic32mx/4.5.1/../../../../pic32mx/lib/speed/liblega-c.a(_doscan.o)

.data%z185      0x00000000        0x0
 .data          0x00000000        0x0 /opt/microchip/mplabc32/v2.02/bin/../lib/gcc/pic32mx/4.5.1/../../../../pic32mx/lib/speed/liblega-c.a(_doscan.o)

.mdebug.abi32%z186
                0x00000000        0x0
 .mdebug.abi32  0x00000000        0x0 /opt/microchip/mplabc32/v2.02/bin/../lib/gcc/pic32mx/4.5.1/../../../../pic32mx/lib/speed/liblega-c.a(_doprnt.o)

.bss%z187       0x00000000        0x0
 .bss           0x00000000        0x0 /opt/microchip/mplabc32/v2.02/bin/../lib/gcc/pic32mx/4.5.1/../../../../pic32mx/lib/speed/liblega-c.a(_doprnt.o)

.data%z188      0x00000000        0x0
 .data          0x00000000        0x0 /opt/microchip/mplabc32/v2.02/bin/../lib/gcc/pic32mx/4.5.1/../../../../pic32mx/lib/speed/liblega-c.a(_doprnt.o)

.mdebug.abi32%z189
                0x00000000        0x0
 .mdebug.abi32  0x00000000        0x0 /opt/microchip/mplabc32/v2.02/bin/../lib/gcc/pic32mx/4.5.1/../../../../pic32mx/lib/speed/liblega-c.a(errno.o)

.bss%z190       0x00000000        0x0
 .bss           0x00000000        0x0 /opt/microchip/mplabc32/v2.02/bin/../lib/gcc/pic32mx/4.5.1/../../../../pic32mx/lib/speed/liblega-c.a(errno.o)

.data%z191      0x00000000        0x0
 .data          0x00000000        0x0 /opt/microchip/mplabc32/v2.02/bin/../lib/gcc/pic32mx/4.5.1/../../../../pic32mx/lib/speed/liblega-c.a(errno.o)

.mdebug.abi32%z192
                0x00000000        0x0
 .mdebug.abi32  0x00000000        0x0 /opt/microchip/mplabc32/v2.02/bin/../lib/gcc/pic32mx/4.5.1/../../../../pic32mx/lib/speed/liblega-c.a(malloc.o)

.mdebug.abi32%z193
                0x00000000        0x0
 .mdebug.abi32  0x00000000        0x0 /opt/microchip/mplabc32/v2.02/bin/../lib/gcc/pic32mx/4.5.1/../../../../pic32mx/lib/speed/liblega-c.a(ctype.o)

.bss%z194       0x00000000        0x0
 .bss           0x00000000        0x0 /opt/microchip/mplabc32/v2.02/bin/../lib/gcc/pic32mx/4.5.1/../../../../pic32mx/lib/speed/liblega-c.a(ctype.o)

.data%z195      0x00000000        0x0
 .data          0x00000000        0x0 /opt/microchip/mplabc32/v2.02/bin/../lib/gcc/pic32mx/4.5.1/../../../../pic32mx/lib/speed/liblega-c.a(ctype.o)

.bss%z196       0x00000000        0x0
 .bss           0x00000000        0x0 /opt/microchip/mplabc32/v2.02/bin/../lib/gcc/pic32mx/4.5.1/../../../../pic32mx/lib/speed/liblega-c.a(default-nmi-handler.o)

.data%z197      0x00000000        0x0
 .data          0x00000000        0x0 /opt/microchip/mplabc32/v2.02/bin/../lib/gcc/pic32mx/4.5.1/../../../../pic32mx/lib/speed/liblega-c.a(default-nmi-handler.o)

.mdebug.abi32%z198
                0x00000000        0x0
 .mdebug.abi32  0x00000000        0x0 /opt/microchip/mplabc32/v2.02/bin/../lib/gcc/pic32mx/4.5.1/../../../../pic32mx/lib/speed/liblega-c.a(default-on-bootstrap.o)

.bss%z199       0x00000000        0x0
 .bss           0x00000000        0x0 /opt/microchip/mplabc32/v2.02/bin/../lib/gcc/pic32mx/4.5.1/../../../../pic32mx/lib/speed/liblega-c.a(default-on-bootstrap.o)

.data%z200      0x00000000        0x0
 .data          0x00000000        0x0 /opt/microchip/mplabc32/v2.02/bin/../lib/gcc/pic32mx/4.5.1/../../../../pic32mx/lib/speed/liblega-c.a(default-on-bootstrap.o)

.mdebug.abi32%z201
                0x00000000        0x0
 .mdebug.abi32  0x00000000        0x0 /opt/microchip/mplabc32/v2.02/bin/../lib/gcc/pic32mx/4.5.1/../../../../pic32mx/lib/speed/liblega-c.a(default-on-reset.o)

.bss%z202       0x00000000        0x0
 .bss           0x00000000        0x0 /opt/microchip/mplabc32/v2.02/bin/../lib/gcc/pic32mx/4.5.1/../../../../pic32mx/lib/speed/liblega-c.a(default-on-reset.o)

.data%z203      0x00000000        0x0
 .data          0x00000000        0x0 /opt/microchip/mplabc32/v2.02/bin/../lib/gcc/pic32mx/4.5.1/../../../../pic32mx/lib/speed/liblega-c.a(default-on-reset.o)

.mdebug.abi32%z204
                0x00000000        0x0
 .mdebug.abi32  0x00000000        0x0 /opt/microchip/mplabc32/v2.02/bin/../lib/gcc/pic32mx/4.5.1/../../../../pic32mx/lib/speed/liblega-c.a(default-bootstrap-exception-handler.o)

.bss%z205       0x00000000        0x0
 .bss           0x00000000        0x0 /opt/microchip/mplabc32/v2.02/bin/../lib/gcc/pic32mx/4.5.1/../../../../pic32mx/lib/speed/liblega-c.a(default-bootstrap-exception-handler.o)

.data%z206      0x00000000        0x0
 .data          0x00000000        0x0 /opt/microchip/mplabc32/v2.02/bin/../lib/gcc/pic32mx/4.5.1/../../../../pic32mx/lib/speed/liblega-c.a(default-bootstrap-exception-handler.o)

.mdebug.abi32%z207
                0x00000000        0x0
 .mdebug.abi32  0x00000000        0x0 /opt/microchip/mplabc32/v2.02/bin/../lib/gcc/pic32mx/4.5.1/../../../../pic32mx/lib/speed/liblega-c.a(stubs.o)

.bss%z208       0x00000000        0x0
 .bss           0x00000000        0x0 /opt/microchip/mplabc32/v2.02/bin/../lib/gcc/pic32mx/4.5.1/../../../../pic32mx/lib/speed/liblega-c.a(stubs.o)

.data%z209      0x00000000        0x0
 .data          0x00000000        0x0 /opt/microchip/mplabc32/v2.02/bin/../lib/gcc/pic32mx/4.5.1/../../../../pic32mx/lib/speed/liblega-c.a(stubs.o)

.mdebug.abi32%z210
                0x00000000        0x0
 .mdebug.abi32  0x00000000        0x0 /opt/microchip/mplabc32/v2.02/bin/../lib/gcc/pic32mx/4.5.1/../../../../pic32mx/lib/speed/liblega-c.a(asctime.o)

.mdebug.abi32%z211
                0x00000000        0x0
 .mdebug.abi32  0x00000000        0x0 /opt/microchip/mplabc32/v2.02/bin/../lib/gcc/pic32mx/4.5.1/../../../../pic32mx/lib/speed/liblega-c.a(offtime.o)

.mdebug.abi32%z212
                0x00000000        0x0
 .mdebug.abi32  0x00000000        0x0 /opt/microchip/mplabc32/v2.02/bin/../lib/gcc/pic32mx/4.5.1/../../../../pic32mx/lib/speed/liblega-c.a(gmtime.o)

.mdebug.abi32%z213
                0x00000000        0x0
 .mdebug.abi32  0x00000000        0x0 /opt/microchip/mplabc32/v2.02/bin/../lib/gcc/pic32mx/4.5.1/../../../../pic32mx/lib/speed/liblega-c.a(__vsnprintf.o)

.bss%z214       0x00000000        0x0
 .bss           0x00000000        0x0 /opt/microchip/mplabc32/v2.02/bin/../lib/gcc/pic32mx/4.5.1/../../../../pic32mx/lib/speed/liblega-c.a(__vsnprintf.o)

.data%z215      0x00000000        0x0
 .data          0x00000000        0x0 /opt/microchip/mplabc32/v2.02/bin/../lib/gcc/pic32mx/4.5.1/../../../../pic32mx/lib/speed/liblega-c.a(__vsnprintf.o)

.mdebug.abi32%z216
                0x00000000        0x0
 .mdebug.abi32  0x00000000        0x0 /opt/microchip/mplabc32/v2.02/bin/../lib/gcc/pic32mx/4.5.1/../../../../pic32mx/lib/speed/liblega-c.a(vsscanf.o)

.bss%z217       0x00000000        0x0
 .bss           0x00000000        0x0 /opt/microchip/mplabc32/v2.02/bin/../lib/gcc/pic32mx/4.5.1/../../../../pic32mx/lib/speed/liblega-c.a(vsscanf.o)

.data%z218      0x00000000        0x0
 .data          0x00000000        0x0 /opt/microchip/mplabc32/v2.02/bin/../lib/gcc/pic32mx/4.5.1/../../../../pic32mx/lib/speed/liblega-c.a(vsscanf.o)

.mdebug.abi32%z219
                0x00000000        0x0
 .mdebug.abi32  0x00000000        0x0 /opt/microchip/mplabc32/v2.02/bin/../lib/gcc/pic32mx/4.5.1/../../../../pic32mx/lib/speed/liblega-c.a(sscanf.o)

.bss%z220       0x00000000        0x0
 .bss           0x00000000        0x0 /opt/microchip/mplabc32/v2.02/bin/../lib/gcc/pic32mx/4.5.1/../../../../pic32mx/lib/speed/liblega-c.a(sscanf.o)

.data%z221      0x00000000        0x0
 .data          0x00000000        0x0 /opt/microchip/mplabc32/v2.02/bin/../lib/gcc/pic32mx/4.5.1/../../../../pic32mx/lib/speed/liblega-c.a(sscanf.o)

.mdebug.abi32%z222
                0x00000000        0x0
 .mdebug.abi32  0x00000000        0x0 /opt/microchip/mplabc32/v2.02/bin/../lib/gcc/pic32mx/4.5.1/../../../../pic32mx/lib/speed/liblega-c.a(sprintf.o)

.bss%z223       0x00000000        0x0
 .bss           0x00000000        0x0 /opt/microchip/mplabc32/v2.02/bin/../lib/gcc/pic32mx/4.5.1/../../../../pic32mx/lib/speed/liblega-c.a(sprintf.o)

.data%z224      0x00000000        0x0
 .data          0x00000000        0x0 /opt/microchip/mplabc32/v2.02/bin/../lib/gcc/pic32mx/4.5.1/../../../../pic32mx/lib/speed/liblega-c.a(sprintf.o)

.mdebug.abi32%z225
                0x00000000        0x0
 .mdebug.abi32  0x00000000        0x0 /opt/microchip/mplabc32/v2.02/bin/../lib/gcc/pic32mx/4.5.1/../../../../pic32mx/lib/speed/liblega-c.a(strtol.o)

.bss%z226       0x00000000        0x0
 .bss           0x00000000        0x0 /opt/microchip/mplabc32/v2.02/bin/../lib/gcc/pic32mx/4.5.1/../../../../pic32mx/lib/speed/liblega-c.a(strtol.o)

.data%z227      0x00000000        0x0
 .data          0x00000000        0x0 /opt/microchip/mplabc32/v2.02/bin/../lib/gcc/pic32mx/4.5.1/../../../../pic32mx/lib/speed/liblega-c.a(strtol.o)

.mdebug.abi32%z228
                0x00000000        0x0
 .mdebug.abi32  0x00000000        0x0 /opt/microchip/mplabc32/v2.02/bin/../lib/gcc/pic32mx/4.5.1/../../../../pic32mx/lib/speed/liblega-c.a(malloc_calloc.o)

.bss%z229       0x00000000        0x0
 .bss           0x00000000        0x0 /opt/microchip/mplabc32/v2.02/bin/../lib/gcc/pic32mx/4.5.1/../../../../pic32mx/lib/speed/liblega-c.a(malloc_calloc.o)

.data%z230      0x00000000        0x0
 .data          0x00000000        0x0 /opt/microchip/mplabc32/v2.02/bin/../lib/gcc/pic32mx/4.5.1/../../../../pic32mx/lib/speed/liblega-c.a(malloc_calloc.o)

.mdebug.abi32%z231
                0x00000000        0x0
 .mdebug.abi32  0x00000000        0x0 /opt/microchip/mplabc32/v2.02/bin/../lib/gcc/pic32mx/4.5.1/../../../../pic32mx/lib/speed/liblega-c.a(strstr.o)

.bss%z232       0x00000000        0x0
 .bss           0x00000000        0x0 /opt/microchip/mplabc32/v2.02/bin/../lib/gcc/pic32mx/4.5.1/../../../../pic32mx/lib/speed/liblega-c.a(strstr.o)

.data%z233      0x00000000        0x0
 .data          0x00000000        0x0 /opt/microchip/mplabc32/v2.02/bin/../lib/gcc/pic32mx/4.5.1/../../../../pic32mx/lib/speed/liblega-c.a(strstr.o)

.mdebug.abi32%z234
                0x00000000        0x0
 .mdebug.abi32  0x00000000        0x0 /opt/microchip/mplabc32/v2.02/bin/../lib/gcc/pic32mx/4.5.1/../../../../pic32mx/lib/speed/liblega-c.a(strchr.o)

.bss%z235       0x00000000        0x0
 .bss           0x00000000        0x0 /opt/microchip/mplabc32/v2.02/bin/../lib/gcc/pic32mx/4.5.1/../../../../pic32mx/lib/speed/liblega-c.a(strchr.o)

.data%z236      0x00000000        0x0
 .data          0x00000000        0x0 /opt/microchip/mplabc32/v2.02/bin/../lib/gcc/pic32mx/4.5.1/../../../../pic32mx/lib/speed/liblega-c.a(strchr.o)

.mdebug.abi32%z237
                0x00000000        0x0
 .mdebug.abi32  0x00000000        0x0 /opt/microchip/mplabc32/v2.02/bin/../lib/gcc/pic32mx/4.5.1/../../../../pic32mx/lib/speed/liblega-c.a(strncat.o)

.bss%z238       0x00000000        0x0
 .bss           0x00000000        0x0 /opt/microchip/mplabc32/v2.02/bin/../lib/gcc/pic32mx/4.5.1/../../../../pic32mx/lib/speed/liblega-c.a(strncat.o)

.data%z239      0x00000000        0x0
 .data          0x00000000        0x0 /opt/microchip/mplabc32/v2.02/bin/../lib/gcc/pic32mx/4.5.1/../../../../pic32mx/lib/speed/liblega-c.a(strncat.o)

.mdebug.abi32%z240
                0x00000000        0x0
 .mdebug.abi32  0x00000000        0x0 /opt/microchip/mplabc32/v2.02/bin/../lib/gcc/pic32mx/4.5.1/../../../../pic32mx/lib/speed/liblega-c.a(strcat.o)

.bss%z241       0x00000000        0x0
 .bss           0x00000000        0x0 /opt/microchip/mplabc32/v2.02/bin/../lib/gcc/pic32mx/4.5.1/../../../../pic32mx/lib/speed/liblega-c.a(strcat.o)

.data%z242      0x00000000        0x0
 .data          0x00000000        0x0 /opt/microchip/mplabc32/v2.02/bin/../lib/gcc/pic32mx/4.5.1/../../../../pic32mx/lib/speed/liblega-c.a(strcat.o)

.bss%z243       0x00000000        0x0
 .bss           0x00000000        0x0 /opt/microchip/mplabc32/v2.02/bin/../lib/gcc/pic32mx/4.5.1/../../../../pic32mx/lib/speed/liblega-c.a(legacy-general-exception.o)

.data%z244      0x00000000        0x0
 .data          0x00000000        0x0 /opt/microchip/mplabc32/v2.02/bin/../lib/gcc/pic32mx/4.5.1/../../../../pic32mx/lib/speed/liblega-c.a(legacy-general-exception.o)

.bss%z245       0x00000000        0x0
 .bss           0x00000000        0x0 /opt/microchip/mplabc32/v2.02/bin/../lib/gcc/pic32mx/4.5.1/../../../../pic32mx/lib/speed/liblega-c.a(strlen.o)

.data%z246      0x00000000        0x0
 .data          0x00000000        0x0 /opt/microchip/mplabc32/v2.02/bin/../lib/gcc/pic32mx/4.5.1/../../../../pic32mx/lib/speed/liblega-c.a(strlen.o)

.bss%z247       0x00000000        0x0
 .bss           0x00000000        0x0 /opt/microchip/mplabc32/v2.02/bin/../lib/gcc/pic32mx/4.5.1/../../../../pic32mx/lib/speed/liblega-c.a(strcpy.o)

.data%z248      0x00000000        0x0
 .data          0x00000000        0x0 /opt/microchip/mplabc32/v2.02/bin/../lib/gcc/pic32mx/4.5.1/../../../../pic32mx/lib/speed/liblega-c.a(strcpy.o)

.bss%z249       0x00000000        0x0
 .bss           0x00000000        0x0 /opt/microchip/mplabc32/v2.02/bin/../lib/gcc/pic32mx/4.5.1/../../../../pic32mx/lib/speed/liblega-c.a(strcmp.o)

.data%z250      0x00000000        0x0
 .data          0x00000000        0x0 /opt/microchip/mplabc32/v2.02/bin/../lib/gcc/pic32mx/4.5.1/../../../../pic32mx/lib/speed/liblega-c.a(strcmp.o)

.bss%z251       0x00000000        0x0
 .bss           0x00000000        0x0 /opt/microchip/mplabc32/v2.02/bin/../lib/gcc/pic32mx/4.5.1/../../../../pic32mx/lib/speed/liblega-c.a(memset.o)

.data%z252      0x00000000        0x0
 .data          0x00000000        0x0 /opt/microchip/mplabc32/v2.02/bin/../lib/gcc/pic32mx/4.5.1/../../../../pic32mx/lib/speed/liblega-c.a(memset.o)

.bss%z253       0x00000000        0x0
 .bss           0x00000000        0x0 /opt/microchip/mplabc32/v2.02/bin/../lib/gcc/pic32mx/4.5.1/../../../../pic32mx/lib/speed/liblega-c.a(memcpy.o)

.data%z254      0x00000000        0x0
 .data          0x00000000        0x0 /opt/microchip/mplabc32/v2.02/bin/../lib/gcc/pic32mx/4.5.1/../../../../pic32mx/lib/speed/liblega-c.a(memcpy.o)

.bss%z255       0x00000000        0x0
 .bss           0x00000000        0x0 /opt/microchip/mplabc32/v2.02/bin/../lib/gcc/pic32mx/4.5.1/../../../../pic32mx/lib/speed/liblega-c.a(memcmp.o)

.data%z256      0x00000000        0x0
 .data          0x00000000        0x0 /opt/microchip/mplabc32/v2.02/bin/../lib/gcc/pic32mx/4.5.1/../../../../pic32mx/lib/speed/liblega-c.a(memcmp.o)

.mdebug.abi32%z257
                0x00000000        0x0
 .mdebug.abi32  0x00000000        0x0 /opt/microchip/mplabc32/v2.02/bin/../lib/gcc/pic32mx/4.5.1/speed/libgcc.a(floatunsisf.o)

.bss%z258       0x00000000        0x0
 .bss           0x00000000        0x0 /opt/microchip/mplabc32/v2.02/bin/../lib/gcc/pic32mx/4.5.1/speed/libgcc.a(floatunsisf.o)

.data%z259      0x00000000        0x0
 .data          0x00000000        0x0 /opt/microchip/mplabc32/v2.02/bin/../lib/gcc/pic32mx/4.5.1/speed/libgcc.a(floatunsisf.o)

.mdebug.abi32%z260
                0x00000000        0x0
 .mdebug.abi32  0x00000000        0x0 /opt/microchip/mplabc32/v2.02/bin/../lib/gcc/pic32mx/4.5.1/speed/libgcc.a(_udivdi3.o)

.bss%z261       0x00000000        0x0
 .bss           0x00000000        0x0 /opt/microchip/mplabc32/v2.02/bin/../lib/gcc/pic32mx/4.5.1/speed/libgcc.a(_udivdi3.o)

.data%z262      0x00000000        0x0
 .data          0x00000000        0x0 /opt/microchip/mplabc32/v2.02/bin/../lib/gcc/pic32mx/4.5.1/speed/libgcc.a(_udivdi3.o)

.mdebug.abi32%z263
                0x00000000        0x0
 .mdebug.abi32  0x00000000        0x0 build/default/production/_ext/1472/crc8_fast.o

.bss%z264       0x00000000        0x0
 .bss           0x00000000        0x0 build/default/production/_ext/1472/crc8_fast.o

.data%z265      0x00000000        0x0
 .data          0x00000000        0x0 build/default/production/_ext/1472/crc8_fast.o

.mdebug.abi32%z266
                0x00000000        0x0
 .mdebug.abi32  0x00000000        0x0 build/default/production/_ext/1472/mbmc.o

.data%z267      0x00000000        0x0
 .data          0x00000000        0x0 build/default/production/_ext/1472/mbmc.o

.mdebug.abi32%z268
                0x00000000        0x0
 .mdebug.abi32  0x00000000        0x0 build/default/production/_ext/1472/MainDemo.o

.bss%z269       0x00000000        0x0
 .bss           0x00000000        0x0 build/default/production/_ext/1472/MainDemo.o

.data%z270      0x00000000        0x0
 .data          0x00000000        0x0 build/default/production/_ext/1472/MainDemo.o

.mdebug.abi32%z271
                0x00000000        0x0
 .mdebug.abi32  0x00000000        0x0 build/default/production/_ext/1472/CustomSSLCert.o

.bss%z272       0x00000000        0x0
 .bss           0x00000000        0x0 build/default/production/_ext/1472/CustomSSLCert.o

.data%z273      0x00000000        0x0
 .data          0x00000000        0x0 build/default/production/_ext/1472/CustomSSLCert.o

.mdebug.abi32%z274
                0x00000000        0x0
 .mdebug.abi32  0x00000000        0x0 build/default/production/_ext/1472/CustomSNMPApp.o

.bss%z275       0x00000000        0x0
 .bss           0x00000000        0x0 build/default/production/_ext/1472/CustomSNMPApp.o

.data%z276      0x00000000        0x0
 .data          0x00000000        0x0 build/default/production/_ext/1472/CustomSNMPApp.o

.mdebug.abi32%z277
                0x00000000        0x0
 .mdebug.abi32  0x00000000        0x0 build/default/production/_ext/1472/CustomHTTPApp.o

.data%z278      0x00000000        0x0
 .data          0x00000000        0x0 build/default/production/_ext/1472/CustomHTTPApp.o

.bss%z279       0x00000000        0x0
 .bss           0x00000000        0x0 build/default/production/_ext/1295770447/BigInt_helper_C32.o

.data%z280      0x00000000        0x0
 .data          0x00000000        0x0 build/default/production/_ext/1295770447/BigInt_helper_C32.o

.mdebug.abi32%z281
                0x00000000        0x0
 .mdebug.abi32  0x00000000        0x0 build/default/production/_ext/1472/MPFSImg.o

.bss%z282       0x00000000        0x0
 .bss           0x00000000        0x0 build/default/production/_ext/1472/MPFSImg.o

.data%z283      0x00000000        0x0
 .data          0x00000000        0x0 build/default/production/_ext/1472/MPFSImg.o

.mdebug.abi32%z284
                0x00000000        0x0
 .mdebug.abi32  0x00000000        0x0 build/default/production/_ext/1472/MPFSImg2.o

.bss%z285       0x00000000        0x0
 .bss           0x00000000        0x0 build/default/production/_ext/1472/MPFSImg2.o

.data%z286      0x00000000        0x0
 .data          0x00000000        0x0 build/default/production/_ext/1472/MPFSImg2.o

.mdebug.abi32%z287
                0x00000000        0x0
 .mdebug.abi32  0x00000000        0x0 build/default/production/_ext/1295770447/ZeroconfMulticastDNS.o

.bss%z288       0x00000000        0x0
 .bss           0x00000000        0x0 build/default/production/_ext/1295770447/ZeroconfMulticastDNS.o

.data%z289      0x00000000        0x0
 .data          0x00000000        0x0 build/default/production/_ext/1295770447/ZeroconfMulticastDNS.o

.mdebug.abi32%z290
                0x00000000        0x0
 .mdebug.abi32  0x00000000        0x0 build/default/production/_ext/1295770447/ZeroconfLinkLocal.o

.bss%z291       0x00000000        0x0
 .bss           0x00000000        0x0 build/default/production/_ext/1295770447/ZeroconfLinkLocal.o

.data%z292      0x00000000        0x0
 .data          0x00000000        0x0 build/default/production/_ext/1295770447/ZeroconfLinkLocal.o

.mdebug.abi32%z293
                0x00000000        0x0
 .mdebug.abi32  0x00000000        0x0 build/default/production/_ext/1295770447/ZeroconfHelper.o

.bss%z294       0x00000000        0x0
 .bss           0x00000000        0x0 build/default/production/_ext/1295770447/ZeroconfHelper.o

.data%z295      0x00000000        0x0
 .data          0x00000000        0x0 build/default/production/_ext/1295770447/ZeroconfHelper.o

.mdebug.abi32%z296
                0x00000000        0x0
 .mdebug.abi32  0x00000000        0x0 build/default/production/_ext/1295770447/UDPPerformanceTest.o

.bss%z297       0x00000000        0x0
 .bss           0x00000000        0x0 build/default/production/_ext/1295770447/UDPPerformanceTest.o

.data%z298      0x00000000        0x0
 .data          0x00000000        0x0 build/default/production/_ext/1295770447/UDPPerformanceTest.o

.mdebug.abi32%z299
                0x00000000        0x0
 .mdebug.abi32  0x00000000        0x0 build/default/production/_ext/1295770447/UDP.o

.bss%z300       0x00000000        0x0
 .bss           0x00000000        0x0 build/default/production/_ext/1295770447/UDP.o

.data%z301      0x00000000        0x0
 .data          0x00000000        0x0 build/default/production/_ext/1295770447/UDP.o

.mdebug.abi32%z302
                0x00000000        0x0
 .mdebug.abi32  0x00000000        0x0 build/default/production/_ext/1295770447/UART.o

.bss%z303       0x00000000        0x0
 .bss           0x00000000        0x0 build/default/production/_ext/1295770447/UART.o

.data%z304      0x00000000        0x0
 .data          0x00000000        0x0 build/default/production/_ext/1295770447/UART.o

.mdebug.abi32%z305
                0x00000000        0x0
 .mdebug.abi32  0x00000000        0x0 build/default/production/_ext/1295770447/UART2TCPBridge.o

.bss%z306       0x00000000        0x0
 .bss           0x00000000        0x0 build/default/production/_ext/1295770447/UART2TCPBridge.o

.data%z307      0x00000000        0x0
 .data          0x00000000        0x0 build/default/production/_ext/1295770447/UART2TCPBridge.o

.mdebug.abi32%z308
                0x00000000        0x0
 .mdebug.abi32  0x00000000        0x0 build/default/production/_ext/1295770447/Tick.o

.bss%z309       0x00000000        0x0
 .bss           0x00000000        0x0 build/default/production/_ext/1295770447/Tick.o

.data%z310      0x00000000        0x0
 .data          0x00000000        0x0 build/default/production/_ext/1295770447/Tick.o

.mdebug.abi32%z311
                0x00000000        0x0
 .mdebug.abi32  0x00000000        0x0 build/default/production/_ext/1295770447/TFTPc.o

.bss%z312       0x00000000        0x0
 .bss           0x00000000        0x0 build/default/production/_ext/1295770447/TFTPc.o

.data%z313      0x00000000        0x0
 .data          0x00000000        0x0 build/default/production/_ext/1295770447/TFTPc.o

.mdebug.abi32%z314
                0x00000000        0x0
 .mdebug.abi32  0x00000000        0x0 build/default/production/_ext/1295770447/Telnet.o

.data%z315      0x00000000        0x0
 .data          0x00000000        0x0 build/default/production/_ext/1295770447/Telnet.o

.mdebug.abi32%z316
                0x00000000        0x0
 .mdebug.abi32  0x00000000        0x0 build/default/production/_ext/1295770447/TCPPerformanceTest.o

.data%z317      0x00000000        0x0
 .data          0x00000000        0x0 build/default/production/_ext/1295770447/TCPPerformanceTest.o

.mdebug.abi32%z318
                0x00000000        0x0
 .mdebug.abi32  0x00000000        0x0 build/default/production/_ext/1295770447/TCP.o

.data%z319      0x00000000        0x0
 .data          0x00000000        0x0 build/default/production/_ext/1295770447/TCP.o

.mdebug.abi32%z320
                0x00000000        0x0
 .mdebug.abi32  0x00000000        0x0 build/default/production/_ext/1295770447/StackTsk.o

.bss%z321       0x00000000        0x0
 .bss           0x00000000        0x0 build/default/production/_ext/1295770447/StackTsk.o

.data%z322      0x00000000        0x0
 .data          0x00000000        0x0 build/default/production/_ext/1295770447/StackTsk.o

.mdebug.abi32%z323
                0x00000000        0x0
 .mdebug.abi32  0x00000000        0x0 build/default/production/_ext/1295770447/SSL.o

.bss%z324       0x00000000        0x0
 .bss           0x00000000        0x0 build/default/production/_ext/1295770447/SSL.o

.data%z325      0x00000000        0x0
 .data          0x00000000        0x0 build/default/production/_ext/1295770447/SSL.o

.mdebug.abi32%z326
                0x00000000        0x0
 .mdebug.abi32  0x00000000        0x0 build/default/production/_ext/1295770447/SPIRAM.o

.bss%z327       0x00000000        0x0
 .bss           0x00000000        0x0 build/default/production/_ext/1295770447/SPIRAM.o

.data%z328      0x00000000        0x0
 .data          0x00000000        0x0 build/default/production/_ext/1295770447/SPIRAM.o

.mdebug.abi32%z329
                0x00000000        0x0
 .mdebug.abi32  0x00000000        0x0 build/default/production/_ext/1295770447/SPIFlash.o

.bss%z330       0x00000000        0x0
 .bss           0x00000000        0x0 build/default/production/_ext/1295770447/SPIFlash.o

.data%z331      0x00000000        0x0
 .data          0x00000000        0x0 build/default/production/_ext/1295770447/SPIFlash.o

.mdebug.abi32%z332
                0x00000000        0x0
 .mdebug.abi32  0x00000000        0x0 build/default/production/_ext/1295770447/SPIEEPROM.o

.bss%z333       0x00000000        0x0
 .bss           0x00000000        0x0 build/default/production/_ext/1295770447/SPIEEPROM.o

.data%z334      0x00000000        0x0
 .data          0x00000000        0x0 build/default/production/_ext/1295770447/SPIEEPROM.o

.mdebug.abi32%z335
                0x00000000        0x0
 .mdebug.abi32  0x00000000        0x0 build/default/production/_ext/1295770447/SNTP.o

.data%z336      0x00000000        0x0
 .data          0x00000000        0x0 build/default/production/_ext/1295770447/SNTP.o

.mdebug.abi32%z337
                0x00000000        0x0
 .mdebug.abi32  0x00000000        0x0 build/default/production/_ext/1295770447/SNMPv3USM.o

.bss%z338       0x00000000        0x0
 .bss           0x00000000        0x0 build/default/production/_ext/1295770447/SNMPv3USM.o

.data%z339      0x00000000        0x0
 .data          0x00000000        0x0 build/default/production/_ext/1295770447/SNMPv3USM.o

.mdebug.abi32%z340
                0x00000000        0x0
 .mdebug.abi32  0x00000000        0x0 build/default/production/_ext/1295770447/SNMPv3.o

.bss%z341       0x00000000        0x0
 .bss           0x00000000        0x0 build/default/production/_ext/1295770447/SNMPv3.o

.data%z342      0x00000000        0x0
 .data          0x00000000        0x0 build/default/production/_ext/1295770447/SNMPv3.o

.mdebug.abi32%z343
                0x00000000        0x0
 .mdebug.abi32  0x00000000        0x0 build/default/production/_ext/1295770447/SNMP.o

.bss%z344       0x00000000        0x0
 .bss           0x00000000        0x0 build/default/production/_ext/1295770447/SNMP.o

.data%z345      0x00000000        0x0
 .data          0x00000000        0x0 build/default/production/_ext/1295770447/SNMP.o

.mdebug.abi32%z346
                0x00000000        0x0
 .mdebug.abi32  0x00000000        0x0 build/default/production/_ext/1295770447/SMTP.o

.bss%z347       0x00000000        0x0
 .bss           0x00000000        0x0 build/default/production/_ext/1295770447/SMTP.o

.data%z348      0x00000000        0x0
 .data          0x00000000        0x0 build/default/production/_ext/1295770447/SMTP.o

.mdebug.abi32%z349
                0x00000000        0x0
 .mdebug.abi32  0x00000000        0x0 build/default/production/_ext/1295770447/RSA.o

.bss%z350       0x00000000        0x0
 .bss           0x00000000        0x0 build/default/production/_ext/1295770447/RSA.o

.data%z351      0x00000000        0x0
 .data          0x00000000        0x0 build/default/production/_ext/1295770447/RSA.o

.mdebug.abi32%z352
                0x00000000        0x0
 .mdebug.abi32  0x00000000        0x0 build/default/production/_ext/1295770447/Reboot.o

.bss%z353       0x00000000        0x0
 .bss           0x00000000        0x0 build/default/production/_ext/1295770447/Reboot.o

.data%z354      0x00000000        0x0
 .data          0x00000000        0x0 build/default/production/_ext/1295770447/Reboot.o

.mdebug.abi32%z355
                0x00000000        0x0
 .mdebug.abi32  0x00000000        0x0 build/default/production/_ext/1295770447/Random.o

.bss%z356       0x00000000        0x0
 .bss           0x00000000        0x0 build/default/production/_ext/1295770447/Random.o

.data%z357      0x00000000        0x0
 .data          0x00000000        0x0 build/default/production/_ext/1295770447/Random.o

.mdebug.abi32%z358
                0x00000000        0x0
 .mdebug.abi32  0x00000000        0x0 build/default/production/_ext/1295770447/NBNS.o

.bss%z359       0x00000000        0x0
 .bss           0x00000000        0x0 build/default/production/_ext/1295770447/NBNS.o

.data%z360      0x00000000        0x0
 .data          0x00000000        0x0 build/default/production/_ext/1295770447/NBNS.o

.mdebug.abi32%z361
                0x00000000        0x0
 .mdebug.abi32  0x00000000        0x0 build/default/production/_ext/1295770447/MPFS.o

.bss%z362       0x00000000        0x0
 .bss           0x00000000        0x0 build/default/production/_ext/1295770447/MPFS.o

.data%z363      0x00000000        0x0
 .data          0x00000000        0x0 build/default/production/_ext/1295770447/MPFS.o

.mdebug.abi32%z364
                0x00000000        0x0
 .mdebug.abi32  0x00000000        0x0 build/default/production/_ext/1295770447/MPFS2.o

.data%z365      0x00000000        0x0
 .data          0x00000000        0x0 build/default/production/_ext/1295770447/MPFS2.o

.mdebug.abi32%z366
                0x00000000        0x0
 .mdebug.abi32  0x00000000        0x0 build/default/production/_ext/1295770447/LCDBlocking.o

.bss%z367       0x00000000        0x0
 .bss           0x00000000        0x0 build/default/production/_ext/1295770447/LCDBlocking.o

.data%z368      0x00000000        0x0
 .data          0x00000000        0x0 build/default/production/_ext/1295770447/LCDBlocking.o

.mdebug.abi32%z369
                0x00000000        0x0
 .mdebug.abi32  0x00000000        0x0 build/default/production/_ext/1295770447/IP.o

.bss%z370       0x00000000        0x0
 .bss           0x00000000        0x0 build/default/production/_ext/1295770447/IP.o

.data%z371      0x00000000        0x0
 .data          0x00000000        0x0 build/default/production/_ext/1295770447/IP.o

.mdebug.abi32%z372
                0x00000000        0x0
 .mdebug.abi32  0x00000000        0x0 build/default/production/_ext/1295770447/ICMP.o

.data%z373      0x00000000        0x0
 .data          0x00000000        0x0 build/default/production/_ext/1295770447/ICMP.o

.mdebug.abi32%z374
                0x00000000        0x0
 .mdebug.abi32  0x00000000        0x0 build/default/production/_ext/1295770447/HTTP.o

.bss%z375       0x00000000        0x0
 .bss           0x00000000        0x0 build/default/production/_ext/1295770447/HTTP.o

.data%z376      0x00000000        0x0
 .data          0x00000000        0x0 build/default/production/_ext/1295770447/HTTP.o

.mdebug.abi32%z377
                0x00000000        0x0
 .mdebug.abi32  0x00000000        0x0 build/default/production/_ext/1295770447/HTTP2.o

.bss%z378       0x00000000        0x0
 .bss           0x00000000        0x0 build/default/production/_ext/1295770447/HTTP2.o

.data%z379      0x00000000        0x0
 .data          0x00000000        0x0 build/default/production/_ext/1295770447/HTTP2.o

.mdebug.abi32%z380
                0x00000000        0x0
 .mdebug.abi32  0x00000000        0x0 build/default/production/_ext/1295770447/Helpers.o

.bss%z381       0x00000000        0x0
 .bss           0x00000000        0x0 build/default/production/_ext/1295770447/Helpers.o

.data%z382      0x00000000        0x0
 .data          0x00000000        0x0 build/default/production/_ext/1295770447/Helpers.o

.mdebug.abi32%z383
                0x00000000        0x0
 .mdebug.abi32  0x00000000        0x0 build/default/production/_ext/1295770447/Hashes.o

.bss%z384       0x00000000        0x0
 .bss           0x00000000        0x0 build/default/production/_ext/1295770447/Hashes.o

.data%z385      0x00000000        0x0
 .data          0x00000000        0x0 build/default/production/_ext/1295770447/Hashes.o

.mdebug.abi32%z386
                0x00000000        0x0
 .mdebug.abi32  0x00000000        0x0 build/default/production/_ext/1295770447/FTP.o

.bss%z387       0x00000000        0x0
 .bss           0x00000000        0x0 build/default/production/_ext/1295770447/FTP.o

.data%z388      0x00000000        0x0
 .data          0x00000000        0x0 build/default/production/_ext/1295770447/FTP.o

.mdebug.abi32%z389
                0x00000000        0x0
 .mdebug.abi32  0x00000000        0x0 build/default/production/_ext/1295770447/FileSystem.o

.bss%z390       0x00000000        0x0
 .bss           0x00000000        0x0 build/default/production/_ext/1295770447/FileSystem.o

.data%z391      0x00000000        0x0
 .data          0x00000000        0x0 build/default/production/_ext/1295770447/FileSystem.o

.mdebug.abi32%z392
                0x00000000        0x0
 .mdebug.abi32  0x00000000        0x0 build/default/production/_ext/1295770447/ETHPIC32IntMac.o

.data%z393      0x00000000        0x0
 .data          0x00000000        0x0 build/default/production/_ext/1295770447/ETHPIC32IntMac.o

.mdebug.abi32%z394
                0x00000000        0x0
 .mdebug.abi32  0x00000000        0x0 build/default/production/_ext/1295770447/ETHPIC32ExtPhyDP83848.o

.bss%z395       0x00000000        0x0
 .bss           0x00000000        0x0 build/default/production/_ext/1295770447/ETHPIC32ExtPhyDP83848.o

.data%z396      0x00000000        0x0
 .data          0x00000000        0x0 build/default/production/_ext/1295770447/ETHPIC32ExtPhyDP83848.o

.mdebug.abi32%z397
                0x00000000        0x0
 .mdebug.abi32  0x00000000        0x0 build/default/production/_ext/1295770447/ETHPIC32ExtPhy.o

.bss%z398       0x00000000        0x0
 .bss           0x00000000        0x0 build/default/production/_ext/1295770447/ETHPIC32ExtPhy.o

.data%z399      0x00000000        0x0
 .data          0x00000000        0x0 build/default/production/_ext/1295770447/ETHPIC32ExtPhy.o

.mdebug.abi32%z400
                0x00000000        0x0
 .mdebug.abi32  0x00000000        0x0 build/default/production/_ext/1295770447/ENCX24J600.o

.bss%z401       0x00000000        0x0
 .bss           0x00000000        0x0 build/default/production/_ext/1295770447/ENCX24J600.o

.data%z402      0x00000000        0x0
 .data          0x00000000        0x0 build/default/production/_ext/1295770447/ENCX24J600.o

.mdebug.abi32%z403
                0x00000000        0x0
 .mdebug.abi32  0x00000000        0x0 build/default/production/_ext/1295770447/ENC28J60.o

.bss%z404       0x00000000        0x0
 .bss           0x00000000        0x0 build/default/production/_ext/1295770447/ENC28J60.o

.data%z405      0x00000000        0x0
 .data          0x00000000        0x0 build/default/production/_ext/1295770447/ENC28J60.o

.mdebug.abi32%z406
                0x00000000        0x0
 .mdebug.abi32  0x00000000        0x0 build/default/production/_ext/1295770447/DynDNS.o

.data%z407      0x00000000        0x0
 .data          0x00000000        0x0 build/default/production/_ext/1295770447/DynDNS.o

.mdebug.abi32%z408
                0x00000000        0x0
 .mdebug.abi32  0x00000000        0x0 build/default/production/_ext/1295770447/DNSs.o

.bss%z409       0x00000000        0x0
 .bss           0x00000000        0x0 build/default/production/_ext/1295770447/DNSs.o

.data%z410      0x00000000        0x0
 .data          0x00000000        0x0 build/default/production/_ext/1295770447/DNSs.o

.mdebug.abi32%z411
                0x00000000        0x0
 .mdebug.abi32  0x00000000        0x0 build/default/production/_ext/1295770447/DNS.o

.data%z412      0x00000000        0x0
 .data          0x00000000        0x0 build/default/production/_ext/1295770447/DNS.o

.mdebug.abi32%z413
                0x00000000        0x0
 .mdebug.abi32  0x00000000        0x0 build/default/production/_ext/1295770447/DHCPs.o

.bss%z414       0x00000000        0x0
 .bss           0x00000000        0x0 build/default/production/_ext/1295770447/DHCPs.o

.data%z415      0x00000000        0x0
 .data          0x00000000        0x0 build/default/production/_ext/1295770447/DHCPs.o

.mdebug.abi32%z416
                0x00000000        0x0
 .mdebug.abi32  0x00000000        0x0 build/default/production/_ext/1295770447/DHCP.o

.data%z417      0x00000000        0x0
 .data          0x00000000        0x0 build/default/production/_ext/1295770447/DHCP.o

.mdebug.abi32%z418
                0x00000000        0x0
 .mdebug.abi32  0x00000000        0x0 build/default/production/_ext/1295770447/Delay.o

.bss%z419       0x00000000        0x0
 .bss           0x00000000        0x0 build/default/production/_ext/1295770447/Delay.o

.data%z420      0x00000000        0x0
 .data          0x00000000        0x0 build/default/production/_ext/1295770447/Delay.o

.mdebug.abi32%z421
                0x00000000        0x0
 .mdebug.abi32  0x00000000        0x0 build/default/production/_ext/1295770447/BigInt.o

.bss%z422       0x00000000        0x0
 .bss           0x00000000        0x0 build/default/production/_ext/1295770447/BigInt.o

.data%z423      0x00000000        0x0
 .data          0x00000000        0x0 build/default/production/_ext/1295770447/BigInt.o

.mdebug.abi32%z424
                0x00000000        0x0
 .mdebug.abi32  0x00000000        0x0 build/default/production/_ext/1295770447/BerkeleyAPI.o

.data%z425      0x00000000        0x0
 .data          0x00000000        0x0 build/default/production/_ext/1295770447/BerkeleyAPI.o

.mdebug.abi32%z426
                0x00000000        0x0
 .mdebug.abi32  0x00000000        0x0 build/default/production/_ext/1295770447/AutoIP.o

.data%z427      0x00000000        0x0
 .data          0x00000000        0x0 build/default/production/_ext/1295770447/AutoIP.o

.mdebug.abi32%z428
                0x00000000        0x0
 .mdebug.abi32  0x00000000        0x0 build/default/production/_ext/1295770447/ARP.o

.data%z429      0x00000000        0x0
 .data          0x00000000        0x0 build/default/production/_ext/1295770447/ARP.o

.mdebug.abi32%z430
                0x00000000        0x0
 .mdebug.abi32  0x00000000        0x0 build/default/production/_ext/1295770447/ARCFOUR.o

.bss%z431       0x00000000        0x0
 .bss           0x00000000        0x0 build/default/production/_ext/1295770447/ARCFOUR.o

.data%z432      0x00000000        0x0
 .data          0x00000000        0x0 build/default/production/_ext/1295770447/ARCFOUR.o

.mdebug.abi32%z433
                0x00000000        0x0
 .mdebug.abi32  0x00000000        0x0 build/default/production/_ext/1295770447/Announce.o

.bss%z434       0x00000000        0x0
 .bss           0x00000000        0x0 build/default/production/_ext/1295770447/Announce.o

.data%z435      0x00000000        0x0
 .data          0x00000000        0x0 build/default/production/_ext/1295770447/Announce.o

.mdebug.abi32%z436
                0x00000000        0x0
 .mdebug.abi32  0x00000000        0x0 build/default/production/_ext/1472/UARTConfig.o

.bss%z437       0x00000000        0x0
 .bss           0x00000000        0x0 build/default/production/_ext/1472/UARTConfig.o

.data%z438      0x00000000        0x0
 .data          0x00000000        0x0 build/default/production/_ext/1472/UARTConfig.o

.mdebug.abi32%z439
                0x00000000        0x0
 .mdebug.abi32  0x00000000        0x0 build/default/production/_ext/1472/SMTPDemo.o

.bss%z440       0x00000000        0x0
 .bss           0x00000000        0x0 build/default/production/_ext/1472/SMTPDemo.o

.mdebug.abi32%z441
                0x00000000        0x0
 .mdebug.abi32  0x00000000        0x0 build/default/production/_ext/1472/PingDemo.o

.bss%z442       0x00000000        0x0
 .bss           0x00000000        0x0 build/default/production/_ext/1472/PingDemo.o

.data%z443      0x00000000        0x0
 .data          0x00000000        0x0 build/default/production/_ext/1472/PingDemo.o

.mdebug.abi32%z444
                0x00000000        0x0
 .mdebug.abi32  0x00000000        0x0 build/default/production/_ext/1472/LegacyHTTPApp.o

.bss%z445       0x00000000        0x0
 .bss           0x00000000        0x0 build/default/production/_ext/1472/LegacyHTTPApp.o

.data%z446      0x00000000        0x0
 .data          0x00000000        0x0 build/default/production/_ext/1472/LegacyHTTPApp.o

.mdebug.abi32%z447
                0x00000000        0x0
 .mdebug.abi32  0x00000000        0x0 build/default/production/_ext/1472/GenericTCPServer.o

.data%z448      0x00000000        0x0
 .data          0x00000000        0x0 build/default/production/_ext/1472/GenericTCPServer.o

.mdebug.abi32%z449
                0x00000000        0x0
 .mdebug.abi32  0x00000000        0x0 build/default/production/_ext/1472/GenericTCPClient.o

.bss%z450       0x00000000        0x0
 .bss           0x00000000        0x0 build/default/production/_ext/1472/GenericTCPClient.o

.mdebug.abi32%z451
                0x00000000        0x0
 .mdebug.abi32  0x00000000        0x0 build/default/production/_ext/1472/BerkeleyUDPClientDemo.o

.data%z452      0x00000000        0x0
 .data          0x00000000        0x0 build/default/production/_ext/1472/BerkeleyUDPClientDemo.o

.mdebug.abi32%z453
                0x00000000        0x0
 .mdebug.abi32  0x00000000        0x0 build/default/production/_ext/1472/BerkeleyTCPServerDemo.o

.bss%z454       0x00000000        0x0
 .bss           0x00000000        0x0 build/default/production/_ext/1472/BerkeleyTCPServerDemo.o

.data%z455      0x00000000        0x0
 .data          0x00000000        0x0 build/default/production/_ext/1472/BerkeleyTCPServerDemo.o

.mdebug.abi32%z456
                0x00000000        0x0
 .mdebug.abi32  0x00000000        0x0 build/default/production/_ext/1472/BerkeleyTCPClientDemo.o

.bss%z457       0x00000000        0x0
 .bss           0x00000000        0x0 /opt/microchip/mplabc32/v2.02/bin/../lib/gcc/pic32mx/4.5.1/../../../../pic32mx/lib/speed/crt0.o

.data%z458      0x00000000        0x0
 .data          0x00000000        0x0 /opt/microchip/mplabc32/v2.02/bin/../lib/gcc/pic32mx/4.5.1/../../../../pic32mx/lib/speed/crt0.o

.rodata         0x9d000068    0x45fdc
 .rodata        0x9d000068    0x45fdc build/default/production/_ext/1472/MPFSImg2.o
                0x9d000068                MPFS_Start

.text           0x9d046044    0x16018
 .text          0x9d046044     0x5bdc build/default/production/_ext/1472/CustomHTTPApp.o
                0x9d046044                HTTPNeedsAuth
                0x9d0460bc                HTTPCheckAuth
                0x9d04610c                HTTPExecuteGet
                0x9d0463a0                HTTPExecutePost
                0x9d047470                HTTPPrint_builddate
                0x9d0474f8                HTTPPrint_version
                0x9d04751c                HTTPPrint_btn
                0x9d0475fc                HTTPPrint_led
                0x9d0476cc                HTTPPrint_ledSelected
                0x9d04779c                HTTPPrint_pot
                0x9d047818                HTTPPrint_lcdtext
                0x9d047868                HTTPPrint_hellomsg
                0x9d0478f4                HTTPPrint_cookiename
                0x9d047968                HTTPPrint_uploadedmd5
                0x9d047b04                HTTPPrintIP
                0x9d047bdc                HTTPPrint_config_hostname
                0x9d047c00                HTTPPrint_config_dhcpchecked
                0x9d047c40                HTTPPrint_config_ip
                0x9d047c54                HTTPPrint_config_gw
                0x9d047c68                HTTPPrint_config_subnet
                0x9d047c7c                HTTPPrint_config_dns1
                0x9d047c90                HTTPPrint_config_dns2
                0x9d047ca4                HTTPPrint_config_mac
                0x9d047dd4                HTTPPrint_read_comm
                0x9d047ddc                HTTPPrint_write_comm
                0x9d047de4                HTTPPrint_reboot
                0x9d047df4                HTTPPrint_rebootaddr
                0x9d047e18                HTTPPrint_ddns_user
                0x9d047e9c                HTTPPrint_ddns_pass
                0x9d047f20                HTTPPrint_ddns_host
                0x9d047fa4                HTTPPrint_ddns_service
                0x9d04800c                HTTPPrint_ddns_status
                0x9d0480b8                HTTPPrint_ddns_status_msg
                0x9d048274                HTTPPrint_smtps_en
                0x9d048298                HTTPPrint_snmp_en
                0x9d0482bc                HTTPPrint_status_ok
                0x9d048334                HTTPPrint_status_fail
                0x9d0483ac                mbmc_put
                0x9d0487a8                make_mbmc_var
                0x9d048848                make_mbmc_vari
                0x9d0488d0                mbmc_var_solar
                0x9d048a10                mbmc_var_inputvoltage
                0x9d048b50                mbmc_var_B1
                0x9d048c94                mbmc_var_B2
                0x9d048dd4                mbmc_var_currentin
                0x9d048f14                mbmc_var_current
                0x9d049058                mbmc_var_currentload
                0x9d049198                mbmc_var_pvpower
                0x9d0492e4                mbmc_var_loadpower
                0x9d0494a8                mbmc_var_pveff
                0x9d0495ac                mbmc_var_toteff
                0x9d0496ac                mbmc_var_cceff
                0x9d0497b0                mbmc_var_bsoc1
                0x9d0498b4                mbmc_var_bsoc2
                0x9d0499b4                mbmc_var_pvenergy
                0x9d049af0                mbmc_var_pvenergy_total
                0x9d049c3c                mbmc_var_pvenergy_prev
                0x9d049d78                mbmc_var_pvload
                0x9d049eb4                mbmc_var_pvload_total
                0x9d04a000                mbmc_var_pvload_prev
                0x9d04a13c                mbmc_var_diversion
                0x9d04a278                mbmc_stack_app
                0x9d04a294                HTTPPrint_mbmchist1
                0x9d04a5f8                HTTPPrint_mbmchist2
                0x9d04a84c                HTTPPrint_mbmchist3
                0x9d04aaa0                HTTPPrint_mbmchist4
                0x9d04ac54                HTTPPrint_mbmchist5
                0x9d04ae58                HTTPPrint_mbmcdata
 .text          0x9d04bc20     0x3dd4 build/default/production/_ext/1295770447/TCP.o
                0x9d04c770                TCPInit
                0x9d04c8d8                TCPOpen
                0x9d04cb70                TCPWasReset
                0x9d04cbb4                TCPIsConnected
                0x9d04cbe4                TCPDisconnect
                0x9d04cdc0                TCPClose
                0x9d04cdf4                TCPGetRemoteInfo
                0x9d04ce54                TCPFlush
                0x9d04ceac                TCPIsPutReady
                0x9d04cf34                TCPPut
                0x9d04d0e0                TCPPutArray
                0x9d04d320                TCPPutString
                0x9d04d368                TCPGetTxFIFOFull
                0x9d04d3c8                TCPIsGetReady
                0x9d04d424                TCPDiscard
                0x9d04d48c                TCPGet
                0x9d04d5e8                TCPGetArray
                0x9d04d7dc                TCPGetRxFIFOFree
                0x9d04d838                TCPPeekArray
                0x9d04d9c8                TCPPeek
                0x9d04d9f4                TCPFindArrayEx
                0x9d04ddb0                TCPFindEx
                0x9d04ddf0                TCPTick
                0x9d04e834                TCPProcess
                0x9d04f7a0                TCPAdjustFIFOSize
 .text          0x9d04f9f4     0x26d0 build/default/production/_ext/1295770447/HTTP2.o
                0x9d04fcd0                HTTPPrint_
                0x9d04fcf0                HTTPInit
                0x9d04fdd4                HTTPURLDecode
                0x9d04fef0                HTTPGetArg
                0x9d04ff80                HTTPReadPostName
                0x9d04ffd8                HTTPReadPostValue
                0x9d050090                HTTPIncFile
                0x9d050200                HTTPPrint
                0x9d050a0c                HTTPServer
 .text          0x9d0520c4     0x2614 /opt/microchip/mplabc32/v2.02/bin/../lib/gcc/pic32mx/4.5.1/../../../../pic32mx/lib/speed/liblega-c.a(_doprnt.o)
                0x9d053808                vfprintf
                0x9d0546a0                _io_exit
 .text          0x9d0546d8     0x1630 build/default/production/_ext/1295770447/SMTP.o
                0x9d054868                SMTPBeginUsage
                0x9d0548e4                SMTPEndUsage
                0x9d054970                SMTPTask
                0x9d055b18                SMTPSendMail
                0x9d055b2c                SMTPIsBusy
                0x9d055b38                SMTPIsPutReady
                0x9d055b58                SMTPPut
                0x9d055c28                SMTPPutArray
                0x9d055c90                SMTPPutString
                0x9d055cec                SMTPFlush
                0x9d055cf4                SMTPPutDone
 .text          0x9d055d08     0x13bc /opt/microchip/mplabc32/v2.02/bin/../lib/gcc/pic32mx/4.5.1/../../../../pic32mx/lib/speed/liblega-c.a(_doscan.o)
                0x9d056328                vfscanf
 .text          0x9d0570c4     0x1384 build/default/production/_ext/1472/mbmc.o
                0x9d0570c4                mbmc_updatechart
                0x9d057450                lp_filter_diff
                0x9d057624                mbmc_getdata
                0x9d057858                IntUart2Handler
                0x9d057ad4                init_mbmc_serial_buf
                0x9d057ae8                put_mbmc_serial_buf
                0x9d057b60                IntUart1Handler
                0x9d057cc8                get_mbmc_serial_buf
                0x9d057d1c                dvdt_roc
                0x9d057e54                MBMCApp
 .text          0x9d058448     0x1128 /opt/microchip/mplabc32/v2.02/bin/../lib/gcc/pic32mx/4.5.1/../../../../pic32mx/lib/speed/libm.a(dp32.o)
                0x9d058448                dpsub
                0x9d058448                __subdf3
                0x9d058450                __adddf3
                0x9d058450                dpadd
                0x9d058874                __muldf3
                0x9d058874                dpmul
                0x9d058b9c                __divdf3
                0x9d058b9c                dpdiv
                0x9d059050                __floatsidf
                0x9d059050                litodp
                0x9d0590c4                ultodp
                0x9d059114                fptodp
                0x9d059114                __extendsfdf2
                0x9d0591b8                dptofp
                0x9d0591b8                __truncdfsf2
                0x9d0592b0                dptoli
                0x9d0592b0                __fixdfsi
                0x9d059338                __fixunsdfsi
                0x9d059338                dptoul
                0x9d0593bc                __gtdf2
                0x9d0593bc                __ltdf2
                0x9d0593bc                __gedf2
                0x9d0593bc                __ledf2
                0x9d0593bc                dpcmp
                0x9d0593bc                __nedf2
                0x9d0593bc                __eqdf2
                0x9d0594e0                __negdf2
                0x9d0594f8                dpfabs
                0x9d0594f8                fabs
                0x9d059514                nan
                0x9d059514                dpnan
 .text          0x9d059570      0xf44 build/default/production/_ext/1295770447/BerkeleyAPI.o
                0x9d05966c                BerkeleySocketInit
                0x9d05968c                socket
                0x9d059718                bind
                0x9d05982c                listen
                0x9d0599a0                accept
                0x9d059b48                connect
                0x9d059d34                sendto
                0x9d059fa8                send
                0x9d059fcc                recv
                0x9d05a0b4                recvfrom
                0x9d05a278                gethostname
                0x9d05a314                closesocket
 .text          0x9d05a4b4      0xde8 build/default/production/_ext/1295770447/DHCP.o
                0x9d05ac84                DHCPInit
                0x9d05ad30                DHCPDisable
                0x9d05ad74                DHCPEnable
                0x9d05ada0                DHCPIsEnabled
                0x9d05adb0                DHCPIsBound
                0x9d05adc0                DHCPStateChanged
                0x9d05adec                DHCPIsServerDetected
                0x9d05adfc                DHCPTask
 .text          0x9d05b29c      0xdc0 build/default/production/_ext/1295770447/DynDNS.o
                0x9d05b29c                DDNSInit
                0x9d05b314                DDNSTask
                0x9d05bfc8                DDNSForceUpdate
                0x9d05bff8                DDNSSetService
                0x9d05c044                DDNSGetLastIP
                0x9d05c054                DDNSGetLastStatus

.dinit          0x9d05c05c      0xcbc
 .dinit         0x9d05c05c      0xcbc data_init

.text           0x9d05cd18      0xc7c
 .text          0x9d05cd18      0xc7c /opt/microchip/mplabc32/v2.02/bin/../lib/gcc/pic32mx/4.5.1/../../../../pic32mx/lib/speed/liblega-c.a(malloc.o)
                0x9d05cd18                free
                0x9d05d090                malloc
                0x9d05d884                malloc_trim

.rodata         0x9d05d998      0xb68
 .rodata        0x9d05d998      0xb68 build/default/production/_ext/1472/CustomHTTPApp.o
                0x9d05e4bc                HTML_UP_ARROW
                0x9d05e4c0                HTML_DOWN_ARROW

.text           0x9d05e500     0x4bc0
 .text          0x9d05e500      0xb30 build/default/production/_ext/1295770447/Helpers.o
                0x9d05e500                LFSRRand
                0x9d05e540                LFSRSeedRand
                0x9d05e590                GenerateRandomDWORD
                0x9d05e7c0                StringToIPAddress
                0x9d05e93c                Base64Decode
                0x9d05eaa0                Base64Encode
                0x9d05ebec                uitoa
                0x9d05ec74                ultoa
                0x9d05ecf4                hexatob
                0x9d05ed74                btohexa_high
                0x9d05ed8c                btohexa_low
                0x9d05eda4                stricmppgm2ram
                0x9d05ee34                swaps
                0x9d05ee50                swapl
                0x9d05ee90                CalcIPChecksum
                0x9d05ef0c                strupr
                0x9d05ef50                FormatNetBIOSName
                0x9d05eff4                strnchr
 .text          0x9d05f030      0xb24 build/default/production/_ext/1295770447/MPFS2.o
                0x9d05f030                MPFSClose
                0x9d05f06c                MPFSGet
                0x9d05f100                MPFSGetArray
                0x9d05f270                MPFSOpenID
                0x9d05f33c                MPFSOpen
                0x9d05f594                MPFSInit
                0x9d05f64c                MPFSGetLong
                0x9d05f674                MPFSGetTimestamp
                0x9d05f6d0                MPFSGetMicrotime
                0x9d05f72c                MPFSGetFlags
                0x9d05f788                MPFSGetSize
                0x9d05f7e4                MPFSGetBytesRem
                0x9d05f824                MPFSGetStartAddr
                0x9d05f880                MPFSGetEndAddr
                0x9d05f8e4                MPFSSeek
                0x9d05fa54                MPFSGetFilename
                0x9d05faec                MPFSGetPosition
                0x9d05fb30                MPFSGetID
 .text          0x9d05fb54      0xac8 build/default/production/_ext/1295770447/ETHPIC32ExtPhy.o
                0x9d05fb54                EthPhyRestartNegotiation
                0x9d05fb9c                EthPhyGetHwConfigFlags
                0x9d05fbcc                EthPhyNegotiationComplete
                0x9d05fd74                EthPhyGetNegotiationResult
                0x9d05ff30                EthPhyGetLinkStatus
                0x9d05ffc4                EthPhyReset
                0x9d06008c                EthPhyInit
                0x9d0605cc                EthPhyScanLinkStart
                0x9d0605d8                EthPhyScanLinkRead
                0x9d06060c                EthPhyScanLinkStop
 .text          0x9d06061c      0x920 build/default/production/_ext/1295770447/DNS.o
                0x9d060770                DNSBeginUsage
                0x9d060794                DNSEndUsage
                0x9d0607dc                DNSResolve
                0x9d06085c                DNSIsResolved
 .text          0x9d060f3c      0x8ec /opt/microchip/mplabc32/v2.02/bin/../lib/gcc/pic32mx/4.5.1/../../../../pic32mx/lib/speed/libm.a(fp32.o)
                0x9d060f3c                __subsf3
                0x9d060f3c                fpsub
                0x9d060f44                fpadd
                0x9d060f44                __addsf3
                0x9d0611b0                fpmul
                0x9d0611b0                __mulsf3
                0x9d061368                __divsf3
                0x9d061368                fpdiv
                0x9d061594                litofp
                0x9d061594                sitofp
                0x9d061594                __floatsisf
                0x9d0615f0                ultofp
                0x9d0615f0                uitofp
                0x9d06163c                fptosi
                0x9d06163c                fptoli
                0x9d06163c                __fixsfsi
                0x9d0616b4                __fixunssfsi
                0x9d0616b4                fptoul
                0x9d0616b4                fptoui
                0x9d061728                __gesf2
                0x9d061728                fpcmp
                0x9d061728                __lesf2
                0x9d061728                __ltsf2
                0x9d061728                __gtsf2
                0x9d061728                __eqsf2
                0x9d061728                __nesf2
                0x9d0617bc                fabsf
                0x9d0617bc                fpfabs
                0x9d0617cc                __negsf2
                0x9d0617dc                fpnan
                0x9d0617dc                nanf
 .text          0x9d061828      0x864 build/default/production/_ext/1295770447/ETHPIC32IntMac.o
                0x9d0618c4                MACInit
                0x9d061adc                MACIsLinked
                0x9d061ae8                MACGetTxBaseAddr
                0x9d061afc                MACGetHttpBaseAddr
                0x9d061b08                MACGetSslBaseAddr
                0x9d061b14                MACSetWritePtr
                0x9d061b20                MACIsTxReady
                0x9d061c5c                MACPut
                0x9d061c70                MACPutArray
                0x9d061cb4                MACPutHeader
                0x9d061d38                MACFlush
                0x9d061d78                MACDiscardRx
                0x9d061db4                MACGetHeader
                0x9d061f78                MACSetReadPtrInRx
                0x9d061f90                MACSetReadPtr
                0x9d061f9c                MACGet
                0x9d061fb0                MACGetArray
                0x9d061ff0                MACGetFreeRxSize
                0x9d062018                MACMemCopyAsync
                0x9d062060                MACIsMemCopyDone
                0x9d062068                CalcIPBufferChecksum
                0x9d062074                MACCalcRxChecksum
 .text          0x9d06208c      0x85c build/default/production/_ext/1295770447/AutoIP.o
                0x9d06208c                AutoIPInit
                0x9d0620c4                AutoIPIsConfigured
                0x9d0620d8                AutoIPConfigIsInProgress
                0x9d0620e8                AutoIPConflict
                0x9d0621f0                AutoIPDisable
                0x9d062250                AutoIPEnable
                0x9d062270                AutoIPIsDisabled
                0x9d062280                AutoIPRandSeed
                0x9d06228c                AutoIPRand
                0x9d0622c8                AutoIPTasks
 .text          0x9d0628e8      0x7d8 build/default/production/_ext/1295770447/UDP.o
                0x9d0628e8                UDPInit
                0x9d06293c                UDPTask
                0x9d062948                UDPOpen
                0x9d062a20                UDPClose
                0x9d062a58                UDPSetTxBuffer
                0x9d062a8c                UDPSetRxBuffer
                0x9d062abc                UDPIsPutReady
                0x9d062b18                UDPPut
                0x9d062b78                UDPPutArray
                0x9d062bd4                UDPPutString
                0x9d062c08                UDPFlush
                0x9d062d58                UDPIsGetReady
                0x9d062dc0                UDPGet
                0x9d062e24                UDPGetArray
                0x9d062e88                UDPDiscard
                0x9d062ed0                UDPProcess

.rodata         0x9d0630c0      0x7d4
 .rodata        0x9d0630c0      0x7d4 /opt/microchip/mplabc32/v2.02/bin/../lib/gcc/pic32mx/4.5.1/../../../../pic32mx/lib/speed/libmchp_peripheral_32MX795F512L.a(int_tbl_lib.o)
                0x9d0630c0                __IntSrcTbl
                0x9d0635dc                __IntVectorTbl

.text           0x9d063894     0x245c
 .text          0x9d063894      0x730 build/default/production/_ext/1295770447/DHCPs.o
                0x9d063894                DHCPServerTask
 .text          0x9d063fc4      0x638 /opt/microchip/mplabc32/v2.02/bin/../lib/gcc/pic32mx/4.5.1/../../../../pic32mx/lib/speed/liblega-c.a(malloc_realloc.o)
                0x9d063fc4                realloc
 .text          0x9d0645fc      0x5d8 /opt/microchip/mplabc32/v2.02/bin/../lib/gcc/pic32mx/4.5.1/../../../../pic32mx/lib/speed/libm.a(log32.o)
                0x9d0645fc                exlog
                0x9d0648e4                dplog
                0x9d0648e4                __mchp_log
                0x9d064a40                dplog10
                0x9d064a40                __mchp_log10
 .text          0x9d064bd4      0x5d4 /opt/microchip/mplabc32/v2.02/bin/../lib/gcc/pic32mx/4.5.1/../../../../pic32mx/lib/speed/libm.a(func32.o)
                0x9d064bd4                sigmax
                0x9d064cdc                exmul
                0x9d064da8                exadd
                0x9d064e94                exsub
                0x9d064f44                exdiv
 .text          0x9d0651a8      0x5c8 /opt/microchip/mplabc32/v2.02/bin/../lib/gcc/pic32mx/4.5.1/../../../../pic32mx/lib/speed/libm.a(mod32.o)
                0x9d0651a8                dpfmod
                0x9d0651a8                fmod
                0x9d065448                dpfrexp
                0x9d065448                frexp
                0x9d0654ec                dpldexp
                0x9d0654ec                __mchp_ldexp
                0x9d065654                dpmodf
                0x9d065654                modf
 .text          0x9d065770      0x580 build/default/production/_ext/1472/MainDemo.o
                0x9d065770                _general_exception_handler
                0x9d065780                DisplayIPValue
                0x9d0657d0                main

.rodata         0x9d065cf0      0x548
 .rodata        0x9d065cf0      0x548 build/default/production/_ext/1295770447/HTTP2.o

.text           0x9d066238     0x1fe0
 .text          0x9d066238      0x4e8 build/default/production/_ext/1295770447/Hashes.o
                0x9d0663c4                MD5Initialize
                0x9d066400                MD5AddData
                0x9d0664d4                HashAddData
                0x9d0664f0                MD5Calculate
 .text          0x9d066720      0x4e0 build/default/production/_ext/1295770447/Telnet.o
                0x9d066720                TelnetTask
 .text          0x9d066c00      0x4ac /opt/microchip/mplabc32/v2.02/bin/../lib/gcc/pic32mx/4.5.1/speed/libgcc.a(_divdi3.o)
                0x9d066c00                __divdi3
 .text          0x9d0670ac      0x46c /opt/microchip/mplabc32/v2.02/bin/../lib/gcc/pic32mx/4.5.1/speed/libgcc.a(_umoddi3.o)
                0x9d0670ac                __umoddi3
 .text          0x9d067518      0x468 build/default/production/_ext/1295770447/ARP.o
                0x9d067518                ARPInit
                0x9d067544                ARPIsResolved
                0x9d0675bc                SwapARPPacket
                0x9d0676cc                ARPResolve
                0x9d067758                ARPProcess
 .text          0x9d067980      0x450 build/default/production/_ext/1295770447/ICMP.o
                0x9d067980                ICMPProcess
                0x9d067ae8                ICMPSendPing
                0x9d067b28                ICMPSendPingToHost
                0x9d067b74                ICMPGetReply
                0x9d067d9c                ICMPBeginUsage
                0x9d067dc0                ICMPEndUsage
 .text          0x9d067dd0      0x448 /opt/microchip/mplabc32/v2.02/bin/../lib/gcc/pic32mx/4.5.1/speed/libgcc.a(_udivdi3.o)
                0x9d067dd0                __udivdi3

.text.EthRxBuffersAppend
                0x9d068218      0x448
 .text.EthRxBuffersAppend
                0x9d068218      0x448 /opt/microchip/mplabc32/v2.02/bin/../lib/gcc/pic32mx/4.5.1/../../../../pic32mx/lib/speed/libmchp_peripheral_32MX795F512L.a(eth_rx_buffers_append_lib.o)
                0x9d068218                EthRxBuffersAppend

.text           0x9d068660      0x838
 .text          0x9d068660      0x444 build/default/production/_ext/1295770447/NBNS.o
                0x9d068660                NBNSTask
 .text          0x9d068aa4      0x3f4 /opt/microchip/mplabc32/v2.02/bin/../lib/gcc/pic32mx/4.5.1/../../../../pic32mx/lib/speed/liblega-c.a(sbrk.o)
                0x9d068aa4                getpagesize
                0x9d068aac                _sbd_memlayout
                0x9d068aac                _stub_sbd_memlayout
                0x9d068ad8                _sbrk_init
                0x9d068c54                _sbrk
                0x9d068d5c                sbrk

.text.__strtod  0x9d068e98      0x3f0
 .text.__strtod
                0x9d068e98      0x3f0 /opt/microchip/mplabc32/v2.02/bin/../lib/gcc/pic32mx/4.5.1/../../../../pic32mx/lib/speed/libe.a(_strtod.o)
                0x9d068e98                __strtod

.text           0x9d069288     0x11dc
 .text          0x9d069288      0x3d4 build/default/production/_ext/1295770447/SNTP.o
                0x9d069288                SNTPClient
                0x9d0695fc                SNTPGetUTCSeconds
 .text          0x9d06965c      0x3a4 build/default/production/_ext/1295770447/TCPPerformanceTest.o
                0x9d06965c                TCPTXPerformanceTask
                0x9d069884                TCPRXPerformanceTask
                0x9d0699e4                TCPPerformanceTask
 .text          0x9d069a00      0x39c /opt/microchip/mplabc32/v2.02/bin/../lib/gcc/pic32mx/4.5.1/../../../../pic32mx/lib/speed/liblega-c.a(strtoll.o)
                0x9d069a00                strtoll
 .text          0x9d069d9c      0x364 /opt/microchip/mplabc32/v2.02/bin/../lib/gcc/pic32mx/4.5.1/../../../../pic32mx/lib/speed/liblega-c.a(offtime.o)
                0x9d069d9c                offtime_r
                0x9d06a094                offtime
 .text          0x9d06a100      0x364 /opt/microchip/mplabc32/v2.02/bin/../lib/gcc/pic32mx/4.5.1/../../../../pic32mx/lib/speed/liblega-c.a(_iobfuncs.o)
                0x9d06a100                _filbuf_simple
                0x9d06a120                _flsbuf_simple
                0x9d06a2a0                _fflush_simple
                0x9d06a320                _fwrite_simple
                0x9d06a400                _fsync_simple

.text.__strtof  0x9d06a464      0x35c
 .text.__strtof
                0x9d06a464      0x35c /opt/microchip/mplabc32/v2.02/bin/../lib/gcc/pic32mx/4.5.1/../../../../pic32mx/lib/speed/libe.a(_strtof.o)
                0x9d06a464                __strtof

.text           0x9d06a7c0      0x94c
 .text          0x9d06a7c0      0x33c build/default/production/_ext/1472/BerkeleyUDPClientDemo.o
                0x9d06a7c0                BerkeleyUDPClientDemo
                0x9d06aa9c                BerkeleySNTPGetUTCSeconds
 .text          0x9d06aafc      0x310 /opt/microchip/mplabc32/v2.02/bin/../lib/gcc/pic32mx/4.5.1/../../../../pic32mx/lib/speed/liblega-c.a(strtoull.o)
                0x9d06aafc                strtoull
 .text          0x9d06ae0c      0x300 build/default/production/_ext/1472/GenericTCPServer.o
                0x9d06ae0c                GenericTCPServer

.rodata         0x9d06b10c      0x300
 .rodata        0x9d06b10c      0x300 build/default/production/_ext/1472/crc8_fast.o
                0x9d06b10c                crc8_table
                0x9d06b20c                crc16tab

.text           0x9d06b40c      0x5b4
 .text          0x9d06b40c      0x2e4 build/default/production/_ext/1295770447/Announce.o
                0x9d06b40c                AnnounceIP
                0x9d06b518                DiscoveryTask
 .text          0x9d06b6f0      0x2d0 build/default/production/_ext/1295770447/StackTsk.o
                0x9d06b6f0                StackInit
                0x9d06b788                StackTask
                0x9d06b964                StackApplications

.text.EthTxSendPacket
                0x9d06b9c0      0x278
 .text.EthTxSendPacket
                0x9d06b9c0      0x278 /opt/microchip/mplabc32/v2.02/bin/../lib/gcc/pic32mx/4.5.1/../../../../pic32mx/lib/speed/libmchp_peripheral_32MX795F512L.a(eth_tx_packet_lib.o)
                0x9d06b9c0                EthTxSendPacket

.text           0x9d06bc38      0xb78
 .text          0x9d06bc38      0x270 /opt/microchip/mplabc32/v2.02/bin/../lib/gcc/pic32mx/4.5.1/../../../../pic32mx/lib/speed/liblega-c.a(strtoul.o)
                0x9d06bc38                strtoul
 .text          0x9d06bea8      0x26c /opt/microchip/mplabc32/v2.02/bin/../lib/gcc/pic32mx/4.5.1/../../../../pic32mx/lib/speed/liblega-c.a(strtol.o)
                0x9d06bea8                strtol
 .text          0x9d06c114      0x244 build/default/production/_ext/1472/GenericTCPClient.o
                0x9d06c114                GenericTCPClient
 .text          0x9d06c358      0x240 /opt/microchip/mplabc32/v2.02/bin/../lib/gcc/pic32mx/4.5.1/../../../../pic32mx/lib/speed/liblega-c.a(fputc.o)
                0x9d06c358                fputc
                0x9d06c414                putc
                0x9d06c4d4                putchar
 .text          0x9d06c598      0x218 build/default/production/_ext/1295770447/Tick.o
                0x9d06c60c                TickInit
                0x9d06c674                TickGet
                0x9d06c694                TickGetDiv256
                0x9d06c6d4                TickGetDiv64K
                0x9d06c714                TickConvertToMilliseconds
                0x9d06c740                _T1Interrupt

.rodata         0x9d06c7b0      0x200
 .rodata        0x9d06c7b0      0x200 build/default/production/_ext/1295770447/DynDNS.o
                0x9d06c8fc                ddnsServiceHosts

.text           0x9d06c9b0      0x1f0
 .text          0x9d06c9b0      0x1f0 build/default/production/_ext/1295770447/IP.o
                0x9d06c9b0                IPGetHeader
                0x9d06cab0                IPPutHeader
                0x9d06cb90                IPSetRxBuffer

.text._EthAckPacket
                0x9d06cba0      0x1dc
 .text._EthAckPacket
                0x9d06cba0      0x1dc /opt/microchip/mplabc32/v2.02/bin/../lib/gcc/pic32mx/4.5.1/../../../../pic32mx/lib/speed/libmchp_peripheral_32MX795F512L.a(eth_ack_packet_lib.o)
                0x9d06cba0                _EthAckPacket

.text.__ldexp   0x9d06cd7c      0x1d4
 .text.__ldexp  0x9d06cd7c      0x1d4 /opt/microchip/mplabc32/v2.02/bin/../lib/gcc/pic32mx/4.5.1/../../../../pic32mx/lib/speed/libe.a(_ldexp.o)
                0x9d06cd7c                __ldexp

.text           0x9d06cf50      0x530
 .text          0x9d06cf50      0x1cc build/default/production/_ext/1472/BerkeleyTCPClientDemo.o
                0x9d06cf50                BerkeleyTCPClientDemo
 .text          0x9d06d11c      0x1b4 /opt/microchip/mplabc32/v2.02/bin/../lib/gcc/pic32mx/4.5.1/../../../../pic32mx/lib/speed/liblega-c.a(asctime.o)
                0x9d06d11c                asctime_r
                0x9d06d1e0                asctime
 .text          0x9d06d2d0      0x1b0 /opt/microchip/mplabc32/v2.02/bin/../lib/gcc/pic32mx/4.5.1/../../../../pic32mx/lib/speed/liblega-c.a(isinf.o)
                0x9d06d2d0                isnanl
                0x9d06d2f8                isnan
                0x9d06d31c                isnanf
                0x9d06d350                isinfl
                0x9d06d378                isinf
                0x9d06d3f8                isinff

.text.EthTxSendBuffer
                0x9d06d480      0x1a4
 .text.EthTxSendBuffer
                0x9d06d480      0x1a4 /opt/microchip/mplabc32/v2.02/bin/../lib/gcc/pic32mx/4.5.1/../../../../pic32mx/lib/speed/libmchp_peripheral_32MX795F512L.a(eth_tx_packet_lib.o)
                0x9d06d480                EthTxSendBuffer

.text           0x9d06d624      0x1a0
 .text          0x9d06d624      0x1a0 /opt/microchip/mplabc32/v2.02/bin/../lib/gcc/pic32mx/4.5.1/../../../../pic32mx/lib/speed/liblega-c.a(strcpy.o)
                0x9d06d624                strcpy

.text._EthAppendBusyList
                0x9d06d7c4      0x19c
 .text._EthAppendBusyList
                0x9d06d7c4      0x19c /opt/microchip/mplabc32/v2.02/bin/../lib/gcc/pic32mx/4.5.1/../../../../pic32mx/lib/speed/libmchp_peripheral_32MX795F512L.a(_eth_append_busy_list_lib.o)
                0x9d06d7c4                _EthAppendBusyList

.text           0x9d06d960      0x4c0
 .text          0x9d06d960      0x198 build/default/production/_ext/1472/BerkeleyTCPServerDemo.o
                0x9d06d960                BerkeleyTCPServerDemo
 .text          0x9d06daf8      0x194 build/default/production/_ext/1472/SMTPDemo.o
                0x9d06daf8                SMTPDemo
 .text          0x9d06dc8c      0x194 /opt/microchip/mplabc32/v2.02/bin/../lib/gcc/pic32mx/4.5.1/../../../../pic32mx/lib/speed/liblega-c.a(fgetc.o)
                0x9d06dc8c                fgetc
                0x9d06dd10                getc
                0x9d06dd94                getchar

.text._EthRxAckBuffer
                0x9d06de20      0x184
 .text._EthRxAckBuffer
                0x9d06de20      0x184 /opt/microchip/mplabc32/v2.02/bin/../lib/gcc/pic32mx/4.5.1/../../../../pic32mx/lib/speed/libmchp_peripheral_32MX795F512L.a(eth_ack_packet_lib.o)

.text.EthRxGetPacket
                0x9d06dfa4      0x180
 .text.EthRxGetPacket
                0x9d06dfa4      0x180 /opt/microchip/mplabc32/v2.02/bin/../lib/gcc/pic32mx/4.5.1/../../../../pic32mx/lib/speed/libmchp_peripheral_32MX795F512L.a(eth_rx_get_packet_lib.o)
                0x9d06dfa4                EthRxGetPacket

.text           0x9d06e124      0x2d0
 .text          0x9d06e124      0x168 /opt/microchip/mplabc32/v2.02/bin/../lib/gcc/pic32mx/4.5.1/../../../../pic32mx/lib/speed/liblega-c.a(memcpy.o)
                0x9d06e124                memcpy
 .text          0x9d06e28c      0x168 /opt/microchip/mplabc32/v2.02/bin/../lib/gcc/pic32mx/4.5.1/../../../../pic32mx/lib/speed/liblega-c.a(strlen.o)
                0x9d06e28c                strlen

.rodata         0x9d06e3f4      0x154
 .rodata        0x9d06e3f4      0x154 build/default/production/_ext/1295770447/Telnet.o

.text           0x9d06e548      0x150
 .text          0x9d06e548      0x150 /opt/microchip/mplabc32/v2.02/bin/../lib/gcc/pic32mx/4.5.1/../../../../pic32mx/lib/speed/liblega-c.a(_ioinit.o)
                0x9d06e548                _i_init
                0x9d06e5ec                _o_init

.rodata         0x9d06e698      0x140
 .rodata        0x9d06e698      0x140 build/default/production/_ext/1295770447/Hashes.o

.text.EthMIIMConfig
                0x9d06e7d8      0x13c
 .text.EthMIIMConfig
                0x9d06e7d8      0x13c /opt/microchip/mplabc32/v2.02/bin/../lib/gcc/pic32mx/4.5.1/../../../../pic32mx/lib/speed/libmchp_peripheral_32MX795F512L.a(eth_miim_access.o)
                0x9d06e7d8                EthMIIMConfig

.text.EthDescriptorsPoolAdd
                0x9d06e914      0x134
 .text.EthDescriptorsPoolAdd
                0x9d06e914      0x134 /opt/microchip/mplabc32/v2.02/bin/../lib/gcc/pic32mx/4.5.1/../../../../pic32mx/lib/speed/libmchp_peripheral_32MX795F512L.a(eth_descriptors_add_lib.o)
                0x9d06e914                EthDescriptorsPoolAdd

.text.EthDescriptorsAdd
                0x9d06ea48      0x12c
 .text.EthDescriptorsAdd
                0x9d06ea48      0x12c /opt/microchip/mplabc32/v2.02/bin/../lib/gcc/pic32mx/4.5.1/../../../../pic32mx/lib/speed/libmchp_peripheral_32MX795F512L.a(eth_descriptors_add_lib.o)
                0x9d06ea48                EthDescriptorsAdd

.text           0x9d06eb74      0x120
 .text          0x9d06eb74      0x120 /opt/microchip/mplabc32/v2.02/bin/../lib/gcc/pic32mx/4.5.1/../../../../pic32mx/lib/speed/liblega-c.a(strcmp.o)
                0x9d06eb74                strcmp

.rodata         0x9d06ec94      0x104
 .rodata        0x9d06ec94      0x104 /opt/microchip/mplabc32/v2.02/bin/../lib/gcc/pic32mx/4.5.1/../../../../pic32mx/lib/speed/liblega-c.a(ctype.o)
                0x9d06ec94                _ctype

.text.__ldexpf  0x9d06ed98      0x104
 .text.__ldexpf
                0x9d06ed98      0x104 /opt/microchip/mplabc32/v2.02/bin/../lib/gcc/pic32mx/4.5.1/../../../../pic32mx/lib/speed/libe.a(_ldexpf.o)
                0x9d06ed98                __ldexpf

.text           0x9d06ee9c      0x660
 .text          0x9d06ee9c       0xf4 build/default/production/_ext/1295770447/ETHPIC32ExtPhyDP83848.o
                0x9d06ee9c                EthPhyConfigureMII
                0x9d06eef4                EthPhyConfigureMdix
                0x9d06ef7c                EthPhyMIIMAddress
                0x9d06ef84                EthPhyMIIMClock
 .text          0x9d06ef90       0xf4 /opt/microchip/mplabc32/v2.02/bin/../lib/gcc/pic32mx/4.5.1/../../../../pic32mx/lib/speed/liblega-c.a(ungetc.o)
                0x9d06ef90                ungetc
 .text          0x9d06f084       0xf0 /opt/microchip/mplabc32/v2.02/bin/../lib/gcc/pic32mx/4.5.1/../../../../pic32mx/lib/speed/liblega-c.a(strchr.o)
                0x9d06f084                strchr
 .text          0x9d06f174       0xf0 /opt/microchip/mplabc32/v2.02/bin/../lib/gcc/pic32mx/4.5.1/../../../../pic32mx/lib/speed/liblega-c.a(malloc_calloc.o)
                0x9d06f174                calloc
 .text          0x9d06f264       0xe4 build/default/production/_ext/1295770447/Reboot.o
                0x9d06f264                RebootTask
 .text          0x9d06f348       0xe0 build/default/production/_ext/1295770447/Delay.o
                0x9d06f348                DelayMs
                0x9d06f3e0                Delay10us
 .text          0x9d06f428       0xd4 /opt/microchip/mplabc32/v2.02/bin/../lib/gcc/pic32mx/4.5.1/../../../../pic32mx/lib/speed/liblega-c.a(stubs.o)
                0x9d06f428                pthread_mutex_init
                0x9d06f428                _weak_pthread_mutex_init
                0x9d06f430                _weak_pthread_mutex_destroy
                0x9d06f430                pthread_mutex_destroy
                0x9d06f438                _weak_pthread_mutex_lock
                0x9d06f438                pthread_mutex_lock
                0x9d06f440                pthread_mutex_trylock
                0x9d06f440                _weak_pthread_mutex_trylock
                0x9d06f448                _weak_pthread_mutex_unlock
                0x9d06f448                pthread_mutex_unlock
                0x9d06f450                pthread_mutex_setname_np
                0x9d06f450                _weak_pthread_mutex_setname_np
                0x9d06f458                _weak_pthread_mutexattr_init
                0x9d06f458                pthread_mutexattr_init
                0x9d06f460                pthread_mutexattr_destroy
                0x9d06f460                _weak_pthread_mutexattr_destroy
                0x9d06f468                _weak_pthread_mutexattr_setname_np
                0x9d06f468                pthread_mutexattr_setname_np
                0x9d06f470                _weak_pthread_mutexattr_settype_np
                0x9d06f470                pthread_mutexattr_settype_np
                0x9d06f478                pthread_sysconf_np
                0x9d06f478                _weak_pthread_sysconf_np
                0x9d06f480                pthread_sigdisable_np
                0x9d06f480                _weak_pthread_sigdisable_np
                0x9d06f488                _weak_pthread_sigrestore_np
                0x9d06f488                pthread_sigrestore_np
                0x9d06f490                _pthread_cleanup_push
                0x9d06f490                _weak__pthread_cleanup_push
                0x9d06f498                _weak__pthread_cleanup_pop
                0x9d06f498                _pthread_cleanup_pop
                0x9d06f4a0                _pthread_cleanup_push_defer
                0x9d06f4a0                _weak__pthread_cleanup_push_defer
                0x9d06f4a8                _pthread_cleanup_pop_restore
                0x9d06f4a8                _weak__pthread_cleanup_pop_restore
                0x9d06f4b0                pthread_once
                0x9d06f4b0                _weak_pthread_once
                0x9d06f4b0                _pthread_once
                0x9d06f4dc                pthread_key_create
                0x9d06f4dc                _weak_pthread_key_create
                0x9d06f4e4                _weak_pthread_setspecific
                0x9d06f4e4                pthread_setspecific
                0x9d06f4ec                _weak_pthread_getspecific
                0x9d06f4ec                pthread_getspecific
                0x9d06f4f4                _weak__libc_private_storage
                0x9d06f4f4                _libc_private_storage

.text.general_exception
                0x9d06f4fc       0xd0
 .text.general_exception
                0x9d06f4fc       0xd0 /opt/microchip/mplabc32/v2.02/bin/../lib/gcc/pic32mx/4.5.1/../../../../pic32mx/lib/speed/liblega-c.a(legacy-general-exception.o)
                0x9d06f4fc                _general_exception_context

.text.log10     0x9d06f5cc       0xcc
 .text.log10    0x9d06f5cc       0xcc /opt/microchip/mplabc32/v2.02/bin/../lib/gcc/pic32mx/4.5.1/../../../../pic32mx/lib/speed/libm.a(w_log10.o)
                0x9d06f5cc                log10

.text           0x9d06f698      0x2f4
 .text          0x9d06f698       0xc8 build/default/production/_ext/1472/crc8_fast.o
                0x9d06f698                crc8_calculate
                0x9d06f6d4                crc16
                0x9d06f718                crc16_ccitt
 .text          0x9d06f760       0xc4 /opt/microchip/mplabc32/v2.02/bin/../lib/gcc/pic32mx/4.5.1/../../../../pic32mx/lib/speed/liblega-c.a(_bufproc.o)
                0x9d06f760                _bufalloc
                0x9d06f7c4                _buffree
 .text          0x9d06f824       0xb4 build/default/production/_ext/1472/PingDemo.o
                0x9d06f824                PingDemo
 .text          0x9d06f8d8       0xb4 /opt/microchip/mplabc32/v2.02/bin/../lib/gcc/pic32mx/4.5.1/../../../../pic32mx/lib/speed/liblega-c.a(strcat.o)
                0x9d06f8d8                strcat

.text.EthInit   0x9d06f98c       0xb4
 .text.EthInit  0x9d06f98c       0xb4 /opt/microchip/mplabc32/v2.02/bin/../lib/gcc/pic32mx/4.5.1/../../../../pic32mx/lib/speed/libmchp_peripheral_32MX795F512L.a(eth_init_lib.o)
                0x9d06f98c                EthInit

.text.EthMACOpen
                0x9d06fa40       0xb4
 .text.EthMACOpen
                0x9d06fa40       0xb4 /opt/microchip/mplabc32/v2.02/bin/../lib/gcc/pic32mx/4.5.1/../../../../pic32mx/lib/speed/libmchp_peripheral_32MX795F512L.a(eth_mac_open_lib.o)
                0x9d06fa40                EthMACOpen

.text           0x9d06faf4      0x290
 .text          0x9d06faf4       0xa8 /opt/microchip/mplabc32/v2.02/bin/../lib/gcc/pic32mx/4.5.1/../../../../pic32mx/lib/speed/liblega-c.a(memset.o)
                0x9d06faf4                memset
 .text          0x9d06fb9c       0xa8 /opt/microchip/mplabc32/v2.02/bin/../lib/gcc/pic32mx/4.5.1/../../../../pic32mx/lib/speed/liblega-c.a(gmtime.o)
                0x9d06fb9c                gmtime_r
                0x9d06fbd8                gmtime
 .text          0x9d06fc44       0xa4 /opt/microchip/mplabc32/v2.02/bin/../lib/gcc/pic32mx/4.5.1/../../../../pic32mx/lib/speed/liblega-c.a(strncat.o)
                0x9d06fc44                strncat
 .text          0x9d06fce8       0x9c /opt/microchip/mplabc32/v2.02/bin/../lib/gcc/pic32mx/4.5.1/../../../../pic32mx/lib/speed/liblega-c.a(fullexit.o)
                0x9d06fce8                _fullexit

.rodata         0x9d06fd84       0x98
 .rodata        0x9d06fd84       0x98 build/default/production/_ext/1295770447/SMTP.o

.text           0x9d06fe1c       0x98
 .text          0x9d06fe1c       0x98 /opt/microchip/mplabc32/v2.02/bin/../lib/gcc/pic32mx/4.5.1/../../../../pic32mx/lib/speed/liblega-c.a(memcmp.o)
                0x9d06fe1c                memcmp

.text.UARTEnable
                0x9d06feb4       0x80
 .text.UARTEnable
                0x9d06feb4       0x80 /opt/microchip/mplabc32/v2.02/bin/../lib/gcc/pic32mx/4.5.1/../../../../pic32mx/lib/speed/libmchp_peripheral_32MX795F512L.a(uart_lib.o)
                0x9d06feb4                UARTEnable

.text           0x9d06ff34       0x7c
 .text          0x9d06ff34       0x7c /opt/microchip/mplabc32/v2.02/bin/../lib/gcc/pic32mx/4.5.1/../../../../pic32mx/lib/speed/liblega-c.a(strstr.o)
                0x9d06ff34                strstr

.text.SoftReset
                0x9d06ffb0       0x78
 .text.SoftReset
                0x9d06ffb0       0x78 /opt/microchip/mplabc32/v2.02/bin/../lib/gcc/pic32mx/4.5.1/../../../../pic32mx/lib/speed/libmchp_peripheral_32MX795F512L.a(soft_reset_lib.o)
                0x9d06ffb0                SoftReset

.text.EthTxGetBufferStatus
                0x9d070028       0x70
 .text.EthTxGetBufferStatus
                0x9d070028       0x70 /opt/microchip/mplabc32/v2.02/bin/../lib/gcc/pic32mx/4.5.1/../../../../pic32mx/lib/speed/libmchp_peripheral_32MX795F512L.a(eth_tx_packet_lib.o)
                0x9d070028                EthTxGetBufferStatus

.rodata         0x9d070098       0x6c
 .rodata        0x9d070098       0x6c /opt/microchip/mplabc32/v2.02/bin/../lib/gcc/pic32mx/4.5.1/../../../../pic32mx/lib/speed/liblega-c.a(offtime.o)

.text.EthRxFiltersPMSet
                0x9d070104       0x6c
 .text.EthRxFiltersPMSet
                0x9d070104       0x6c /opt/microchip/mplabc32/v2.02/bin/../lib/gcc/pic32mx/4.5.1/../../../../pic32mx/lib/speed/libmchp_peripheral_32MX795F512L.a(eth_rx_filters_lib.o)
                0x9d070104                EthRxFiltersPMSet

.rodata         0x9d070170       0x68
 .rodata        0x9d070170       0x68 build/default/production/_ext/1472/GenericTCPClient.o

.text           0x9d0701d8       0x68
 .text          0x9d0701d8       0x68 /opt/microchip/mplabc32/v2.02/bin/../lib/gcc/pic32mx/4.5.1/../../../../pic32mx/lib/speed/liblega-c.a(vsscanf.o)
                0x9d0701d8                vsscanf

.rodata         0x9d070240       0x68
 .rodata        0x9d070240       0x68 /opt/microchip/mplabc32/v2.02/bin/../lib/gcc/pic32mx/4.5.1/../../../../pic32mx/lib/speed/liblega-c.a(_doprnt.o)

.text.__unorddf2
                0x9d0702a8       0x64
 .text.__unorddf2
                0x9d0702a8       0x64 /opt/microchip/mplabc32/v2.02/bin/../lib/gcc/pic32mx/4.5.1/../../../../pic32mx/lib/speed/libe.a(_unorddf2.o)
                0x9d0702a8                __unorddf2

.text           0x9d07030c       0x60
 .text          0x9d07030c       0x60 /opt/microchip/mplabc32/v2.02/bin/../lib/gcc/pic32mx/4.5.1/../../../../pic32mx/lib/speed/liblega-c.a(__vsnprintf.o)
                0x9d07030c                __vsnprintf

.rodata         0x9d07036c       0xbc
 .rodata        0x9d07036c       0x60 /opt/microchip/mplabc32/v2.02/bin/../lib/gcc/pic32mx/4.5.1/../../../../pic32mx/lib/speed/liblega-c.a(asctime.o)
 .rodata        0x9d0703cc       0x5c build/default/production/_ext/1295770447/TCPPerformanceTest.o

.text.UARTSetDataRate
                0x9d070428       0x5c
 .text.UARTSetDataRate
                0x9d070428       0x5c /opt/microchip/mplabc32/v2.02/bin/../lib/gcc/pic32mx/4.5.1/../../../../pic32mx/lib/speed/libmchp_peripheral_32MX795F512L.a(uart_lib.o)
                0x9d070428                UARTSetDataRate

.rodata         0x9d070488       0x58
 .rodata        0x9d070488       0x58 build/default/production/_ext/1472/mbmc.o

.text           0x9d0704e0       0x58
 .text          0x9d0704e0       0x58 /opt/microchip/mplabc32/v2.02/bin/../lib/gcc/pic32mx/4.5.1/../../../../pic32mx/lib/speed/liblega-c.a(memmove.o)
                0x9d0704e0                memmove

.text.INTEnable
                0x9d070538       0x58
 .text.INTEnable
                0x9d070538       0x58 /opt/microchip/mplabc32/v2.02/bin/../lib/gcc/pic32mx/4.5.1/../../../../pic32mx/lib/speed/libmchp_peripheral_32MX795F512L.a(int_tbl_lib.o)
                0x9d070538                INTEnable

.rodata         0x9d070590       0xa4
 .rodata        0x9d070590       0x54 /opt/microchip/mplabc32/v2.02/bin/../lib/gcc/pic32mx/4.5.1/../../../../pic32mx/lib/speed/libmchp_peripheral_32MX795F512L.a(_ports_tbl_libp.o)
                0x9d070590                PortRegTbl
 .rodata        0x9d0705e4       0x50 build/default/production/_ext/1472/SMTPDemo.o

.text           0x9d070634       0x9c
 .text          0x9d070634       0x50 /opt/microchip/mplabc32/v2.02/bin/../lib/gcc/pic32mx/4.5.1/../../../../pic32mx/lib/speed/liblega-c.a(_mon_write.o)
                0x9d070634                _mon_write
 .text          0x9d070684       0x4c /opt/microchip/mplabc32/v2.02/bin/../lib/gcc/pic32mx/4.5.1/speed/libgcc.a(floatunsisf.o)
                0x9d070684                __floatunsisf

.text.EthMACSetAddress
                0x9d0706d0       0x48
 .text.EthMACSetAddress
                0x9d0706d0       0x48 /opt/microchip/mplabc32/v2.02/bin/../lib/gcc/pic32mx/4.5.1/../../../../pic32mx/lib/speed/libmchp_peripheral_32MX795F512L.a(eth_mac_set_address_max_lib.o)
                0x9d0706d0                EthMACSetAddress

.text.EthMACGetAddress
                0x9d070718       0x44
 .text.EthMACGetAddress
                0x9d070718       0x44 /opt/microchip/mplabc32/v2.02/bin/../lib/gcc/pic32mx/4.5.1/../../../../pic32mx/lib/speed/libmchp_peripheral_32MX795F512L.a(eth_mac_set_address_max_lib.o)
                0x9d070718                EthMACGetAddress

.text           0x9d07075c       0x88
 .text          0x9d07075c       0x44 /opt/microchip/mplabc32/v2.02/bin/../lib/gcc/pic32mx/4.5.1/speed/libgcc.a(_lshrdi3.o)
                0x9d07075c                __lshrdi3
 .text          0x9d0707a0       0x44 /opt/microchip/mplabc32/v2.02/bin/../lib/gcc/pic32mx/4.5.1/speed/libgcc.a(_ashldi3.o)
                0x9d0707a0                __ashldi3

.text.EthMIIMReadStart
                0x9d0707e4       0x40
 .text.EthMIIMReadStart
                0x9d0707e4       0x40 /opt/microchip/mplabc32/v2.02/bin/../lib/gcc/pic32mx/4.5.1/../../../../pic32mx/lib/speed/libmchp_peripheral_32MX795F512L.a(eth_miim_access.o)
                0x9d0707e4                EthMIIMReadStart

.text.PORTSetPinsDigitalIn
                0x9d070824       0x40
 .text.PORTSetPinsDigitalIn
                0x9d070824       0x40 /opt/microchip/mplabc32/v2.02/bin/../lib/gcc/pic32mx/4.5.1/../../../../pic32mx/lib/speed/libmchp_peripheral_32MX795F512L.a(port_set_pins_digital_in_lib.o)
                0x9d070824                PORTSetPinsDigitalIn

.text.PORTSetPinsDigitalOut
                0x9d070864       0x40
 .text.PORTSetPinsDigitalOut
                0x9d070864       0x40 /opt/microchip/mplabc32/v2.02/bin/../lib/gcc/pic32mx/4.5.1/../../../../pic32mx/lib/speed/libmchp_peripheral_32MX795F512L.a(port_set_pins_digital_out_lib.o)
                0x9d070864                PORTSetPinsDigitalOut

.text.UARTGetDataRate
                0x9d0708a4       0x40
 .text.UARTGetDataRate
                0x9d0708a4       0x40 /opt/microchip/mplabc32/v2.02/bin/../lib/gcc/pic32mx/4.5.1/../../../../pic32mx/lib/speed/libmchp_peripheral_32MX795F512L.a(uart_lib.o)
                0x9d0708a4                UARTGetDataRate

.text           0x9d0708e4       0x3c
 .text          0x9d0708e4       0x3c /opt/microchip/mplabc32/v2.02/bin/../lib/gcc/pic32mx/4.5.1/../../../../pic32mx/lib/speed/liblega-c.a(sprintf.o)
                0x9d0708e4                sprintf

.text.EthRxGetBuffer
                0x9d070920       0x3c
 .text.EthRxGetBuffer
                0x9d070920       0x3c /opt/microchip/mplabc32/v2.02/bin/../lib/gcc/pic32mx/4.5.1/../../../../pic32mx/lib/speed/libmchp_peripheral_32MX795F512L.a(eth_rx_get_packet_lib.o)
                0x9d070920                EthRxGetBuffer

.text.INTSetVectorPriority
                0x9d07095c       0x3c
 .text.INTSetVectorPriority
                0x9d07095c       0x3c /opt/microchip/mplabc32/v2.02/bin/../lib/gcc/pic32mx/4.5.1/../../../../pic32mx/lib/speed/libmchp_peripheral_32MX795F512L.a(int_tbl_lib.o)
                0x9d07095c                INTSetVectorPriority

.text.INTSetVectorSubPriority
                0x9d070998       0x3c
 .text.INTSetVectorSubPriority
                0x9d070998       0x3c /opt/microchip/mplabc32/v2.02/bin/../lib/gcc/pic32mx/4.5.1/../../../../pic32mx/lib/speed/libmchp_peripheral_32MX795F512L.a(int_tbl_lib.o)
                0x9d070998                INTSetVectorSubPriority

.text.UARTConfigure
                0x9d0709d4       0x3c
 .text.UARTConfigure
                0x9d0709d4       0x3c /opt/microchip/mplabc32/v2.02/bin/../lib/gcc/pic32mx/4.5.1/../../../../pic32mx/lib/speed/libmchp_peripheral_32MX795F512L.a(uart_lib.o)
                0x9d0709d4                UARTConfigure

.text.UARTSetAddress
                0x9d070a10       0x3c
 .text.UARTSetAddress
                0x9d070a10       0x3c /opt/microchip/mplabc32/v2.02/bin/../lib/gcc/pic32mx/4.5.1/../../../../pic32mx/lib/speed/libmchp_peripheral_32MX795F512L.a(uart_lib.o)
                0x9d070a10                UARTSetAddress

.rodata         0x9d070a4c       0x38
 .rodata        0x9d070a4c       0x38 build/default/production/_ext/1295770447/TCP.o
                0x9d070a4c                TCPSocketInitializer

.text._EthFindPacket
                0x9d070a84       0x38
 .text._EthFindPacket
                0x9d070a84       0x38 /opt/microchip/mplabc32/v2.02/bin/../lib/gcc/pic32mx/4.5.1/../../../../pic32mx/lib/speed/libmchp_peripheral_32MX795F512L.a(eth_tx_packet_lib.o)
                0x9d070a84                _EthFindPacket

.text.EthMIIMWriteStart
                0x9d070abc       0x38
 .text.EthMIIMWriteStart
                0x9d070abc       0x38 /opt/microchip/mplabc32/v2.02/bin/../lib/gcc/pic32mx/4.5.1/../../../../pic32mx/lib/speed/libmchp_peripheral_32MX795F512L.a(eth_miim_access.o)
                0x9d070abc                EthMIIMWriteStart

.text.UARTWatchForAddress
                0x9d070af4       0x38
 .text.UARTWatchForAddress
                0x9d070af4       0x38 /opt/microchip/mplabc32/v2.02/bin/../lib/gcc/pic32mx/4.5.1/../../../../pic32mx/lib/speed/libmchp_peripheral_32MX795F512L.a(uart_lib.o)
                0x9d070af4                UARTWatchForAddress

.text.EthMIIMScanStart
                0x9d070b2c       0x34
 .text.EthMIIMScanStart
                0x9d070b2c       0x34 /opt/microchip/mplabc32/v2.02/bin/../lib/gcc/pic32mx/4.5.1/../../../../pic32mx/lib/speed/libmchp_peripheral_32MX795F512L.a(eth_miim_access.o)
                0x9d070b2c                EthMIIMScanStart

.text.INTEnableSystemMultiVectoredInt
                0x9d070b60       0x34
 .text.INTEnableSystemMultiVectoredInt
                0x9d070b60       0x34 /opt/microchip/mplabc32/v2.02/bin/../lib/gcc/pic32mx/4.5.1/../../../../pic32mx/lib/speed/libmchp_peripheral_32MX795F512L.a(int_enable_mv_int_lib.o)
                0x9d070b60                INTEnableSystemMultiVectoredInt

.rodata         0x9d070b94       0x30
 .rodata        0x9d070b94       0x30 /opt/microchip/mplabc32/v2.02/bin/../lib/gcc/pic32mx/4.5.1/../../../../pic32mx/lib/speed/liblega-c.a(_doscan.o)

.text.EthTxAcknowledgeBuffer
                0x9d070bc4       0x30
 .text.EthTxAcknowledgeBuffer
                0x9d070bc4       0x30 /opt/microchip/mplabc32/v2.02/bin/../lib/gcc/pic32mx/4.5.1/../../../../pic32mx/lib/speed/libmchp_peripheral_32MX795F512L.a(eth_ack_packet_lib.o)
                0x9d070bc4                EthTxAcknowledgeBuffer

.text.EthTxAckBuffer
                0x9d070bf4       0x30
 .text.EthTxAckBuffer
                0x9d070bf4       0x30 /opt/microchip/mplabc32/v2.02/bin/../lib/gcc/pic32mx/4.5.1/../../../../pic32mx/lib/speed/libmchp_peripheral_32MX795F512L.a(eth_ack_packet_lib.o)
                0x9d070bf4                EthTxAckBuffer

.text.EthRxSetBufferSize
                0x9d070c24       0x30
 .text.EthRxSetBufferSize
                0x9d070c24       0x30 /opt/microchip/mplabc32/v2.02/bin/../lib/gcc/pic32mx/4.5.1/../../../../pic32mx/lib/speed/libmchp_peripheral_32MX795F512L.a(eth_rx_set_buffer_size_lib.o)
                0x9d070c24                EthRxSetBufferSize

.text.INTGetVectorPriority
                0x9d070c54       0x30
 .text.INTGetVectorPriority
                0x9d070c54       0x30 /opt/microchip/mplabc32/v2.02/bin/../lib/gcc/pic32mx/4.5.1/../../../../pic32mx/lib/speed/libmchp_peripheral_32MX795F512L.a(int_tbl_lib.o)
                0x9d070c54                INTGetVectorPriority

.text.INTGetVectorSubPriority
                0x9d070c84       0x30
 .text.INTGetVectorSubPriority
                0x9d070c84       0x30 /opt/microchip/mplabc32/v2.02/bin/../lib/gcc/pic32mx/4.5.1/../../../../pic32mx/lib/speed/libmchp_peripheral_32MX795F512L.a(int_tbl_lib.o)
                0x9d070c84                INTGetVectorSubPriority

.text           0x9d070cb4       0x2c
 .text          0x9d070cb4       0x2c /opt/microchip/mplabc32/v2.02/bin/../lib/gcc/pic32mx/4.5.1/../../../../pic32mx/lib/speed/liblega-c.a(sscanf.o)
                0x9d070cb4                sscanf

.text.INTClearFlag
                0x9d070ce0       0x2c
 .text.INTClearFlag
                0x9d070ce0       0x2c /opt/microchip/mplabc32/v2.02/bin/../lib/gcc/pic32mx/4.5.1/../../../../pic32mx/lib/speed/libmchp_peripheral_32MX795F512L.a(int_tbl_lib.o)
                0x9d070ce0                INTClearFlag

.text.INTSetFlag
                0x9d070d0c       0x2c
 .text.INTSetFlag
                0x9d070d0c       0x2c /opt/microchip/mplabc32/v2.02/bin/../lib/gcc/pic32mx/4.5.1/../../../../pic32mx/lib/speed/libmchp_peripheral_32MX795F512L.a(int_tbl_lib.o)
                0x9d070d0c                INTSetFlag

.text.INTGetFlag
                0x9d070d38       0x2c
 .text.INTGetFlag
                0x9d070d38       0x2c /opt/microchip/mplabc32/v2.02/bin/../lib/gcc/pic32mx/4.5.1/../../../../pic32mx/lib/speed/libmchp_peripheral_32MX795F512L.a(int_tbl_lib.o)
                0x9d070d38                INTGetFlag

.text.INTGetEnable
                0x9d070d64       0x2c
 .text.INTGetEnable
                0x9d070d64       0x2c /opt/microchip/mplabc32/v2.02/bin/../lib/gcc/pic32mx/4.5.1/../../../../pic32mx/lib/speed/libmchp_peripheral_32MX795F512L.a(int_tbl_lib.o)
                0x9d070d64                INTGetEnable

.text           0x9d070d90       0x28
 .text          0x9d070d90       0x28 /opt/microchip/mplabc32/v2.02/bin/../lib/gcc/pic32mx/4.5.1/../../../../pic32mx/lib/speed/liblega-c.a(_iobstring.o)

.rodata         0x9d070db8       0x28
 .rodata        0x9d070db8       0x28 /opt/microchip/mplabc32/v2.02/bin/../lib/gcc/pic32mx/4.5.1/../../../../pic32mx/lib/speed/liblega-c.a(strtoll.o)

.text.EthMIIMReadResult
                0x9d070de0       0x28
 .text.EthMIIMReadResult
                0x9d070de0       0x28 /opt/microchip/mplabc32/v2.02/bin/../lib/gcc/pic32mx/4.5.1/../../../../pic32mx/lib/speed/libmchp_peripheral_32MX795F512L.a(eth_miim_access.o)
                0x9d070de0                EthMIIMReadResult

.text.UARTSetFifoMode
                0x9d070e08       0x28
 .text.UARTSetFifoMode
                0x9d070e08       0x28 /opt/microchip/mplabc32/v2.02/bin/../lib/gcc/pic32mx/4.5.1/../../../../pic32mx/lib/speed/libmchp_peripheral_32MX795F512L.a(uart_lib.o)
                0x9d070e08                UARTSetFifoMode

.text.UARTSetLineControl
                0x9d070e30       0x28
 .text.UARTSetLineControl
                0x9d070e30       0x28 /opt/microchip/mplabc32/v2.02/bin/../lib/gcc/pic32mx/4.5.1/../../../../pic32mx/lib/speed/libmchp_peripheral_32MX795F512L.a(uart_lib.o)
                0x9d070e30                UARTSetLineControl

.text           0x9d070e58       0x48
 .text          0x9d070e58       0x24 /opt/microchip/mplabc32/v2.02/bin/../lib/gcc/pic32mx/4.5.1/../../../../pic32mx/lib/speed/liblega-c.a(_cleanup.o)
                0x9d070e58                _cleanup
 .text          0x9d070e7c       0x24 /opt/microchip/mplabc32/v2.02/bin/../lib/gcc/pic32mx/4.5.1/../../../../pic32mx/lib/speed/liblega-c.a(_mon_putc.o)
                0x9d070e7c                _mon_putc

.rodata         0x9d070ea0       0x20
 .rodata        0x9d070ea0       0x20 build/default/production/_ext/1472/GenericTCPServer.o

.text.EthMIIMScanResult
                0x9d070ec0       0x20
 .text.EthMIIMScanResult
                0x9d070ec0       0x20 /opt/microchip/mplabc32/v2.02/bin/../lib/gcc/pic32mx/4.5.1/../../../../pic32mx/lib/speed/libmchp_peripheral_32MX795F512L.a(eth_miim_access.o)
                0x9d070ec0                EthMIIMScanResult

.rodata         0x9d070ee0       0x1c
 .rodata        0x9d070ee0       0x1c build/default/production/_ext/1295770447/Announce.o

.text.EthRxAcknowledgeBuffer
                0x9d070efc       0x1c
 .text.EthRxAcknowledgeBuffer
                0x9d070efc       0x1c /opt/microchip/mplabc32/v2.02/bin/../lib/gcc/pic32mx/4.5.1/../../../../pic32mx/lib/speed/libmchp_peripheral_32MX795F512L.a(eth_ack_packet_lib.o)
                0x9d070efc                EthRxAcknowledgeBuffer

.text.EthRxAckBuffer
                0x9d070f18       0x1c
 .text.EthRxAckBuffer
                0x9d070f18       0x1c /opt/microchip/mplabc32/v2.02/bin/../lib/gcc/pic32mx/4.5.1/../../../../pic32mx/lib/speed/libmchp_peripheral_32MX795F512L.a(eth_ack_packet_lib.o)
                0x9d070f18                EthRxAckBuffer

.text.INTRestoreInterrupts
                0x9d070f34       0x1c
 .text.INTRestoreInterrupts
                0x9d070f34       0x1c /opt/microchip/mplabc32/v2.02/bin/../lib/gcc/pic32mx/4.5.1/../../../../pic32mx/lib/speed/libmchp_peripheral_32MX795F512L.a(int_restore_interrupts_lib.o)
                0x9d070f34                INTRestoreInterrupts

.text           0x9d070f50       0x18
 .text          0x9d070f50       0x18 /opt/microchip/mplabc32/v2.02/bin/../lib/gcc/pic32mx/4.5.1/../../../../pic32mx/lib/speed/liblega-c.a(default-nmi-handler.o)
                0x9d070f50                _nmi_handler

.rodata         0x9d070f68       0x18
 .rodata        0x9d070f68       0x18 /opt/microchip/mplabc32/v2.02/bin/../lib/gcc/pic32mx/4.5.1/../../../../pic32mx/lib/speed/liblega-c.a(strtoull.o)

.text.EthRxFiltersHTSet
                0x9d070f80       0x18
 .text.EthRxFiltersHTSet
                0x9d070f80       0x18 /opt/microchip/mplabc32/v2.02/bin/../lib/gcc/pic32mx/4.5.1/../../../../pic32mx/lib/speed/libmchp_peripheral_32MX795F512L.a(eth_rx_filters_lib.o)
                0x9d070f80                EthRxFiltersHTSet

.text.CheKseg0CacheOff
                0x9d070f98       0x18
 .text.CheKseg0CacheOff
                0x9d070f98       0x18 /opt/microchip/mplabc32/v2.02/bin/../lib/gcc/pic32mx/4.5.1/../../../../pic32mx/lib/speed/libmchp_peripheral_32MX795F512L.a(pcache.o)
                0x9d070f98                CheKseg0CacheOff

.text.CheKseg0CacheOn
                0x9d070fb0       0x18
 .text.CheKseg0CacheOn
                0x9d070fb0       0x18 /opt/microchip/mplabc32/v2.02/bin/../lib/gcc/pic32mx/4.5.1/../../../../pic32mx/lib/speed/libmchp_peripheral_32MX795F512L.a(pcache.o)
                0x9d070fb0                CheKseg0CacheOn

.rodata         0x9d070fc8       0x68
 .rodata        0x9d070fc8       0x18 /opt/microchip/mplabc32/v2.02/bin/../lib/gcc/pic32mx/4.5.1/../../../../pic32mx/lib/speed/libmchp_peripheral_32MX795F512L.a(uart_lib.o)
                0x9d070fc8                uartReg
 .rodata        0x9d070fe0       0x14 build/default/production/_ext/1472/PingDemo.o
 .rodata        0x9d070ff4       0x14 build/default/production/_ext/1472/MainDemo.o
 .rodata        0x9d071008       0x14 /opt/microchip/mplabc32/v2.02/bin/../lib/gcc/pic32mx/4.5.1/../../../../pic32mx/lib/speed/liblega-c.a(_iobdata.o)
                0x9d071008                _io_funcs
 .rodata        0x9d07101c       0x14 /opt/microchip/mplabc32/v2.02/bin/../lib/gcc/pic32mx/4.5.1/../../../../pic32mx/lib/speed/liblega-c.a(_iobstring.o)
                0x9d07101c                _io_strfuncs

.text.EthMACSetMaxFrame
                0x9d071030       0x14
 .text.EthMACSetMaxFrame
                0x9d071030       0x14 /opt/microchip/mplabc32/v2.02/bin/../lib/gcc/pic32mx/4.5.1/../../../../pic32mx/lib/speed/libmchp_peripheral_32MX795F512L.a(eth_mac_set_address_max_lib.o)
                0x9d071030                EthMACSetMaxFrame

.text.EthRxFiltersPMClr
                0x9d071044       0x14
 .text.EthRxFiltersPMClr
                0x9d071044       0x14 /opt/microchip/mplabc32/v2.02/bin/../lib/gcc/pic32mx/4.5.1/../../../../pic32mx/lib/speed/libmchp_peripheral_32MX795F512L.a(eth_rx_filters_lib.o)
                0x9d071044                EthRxFiltersPMClr

.text           0x9d071058       0x10
 .text          0x9d071058       0x10 /opt/microchip/mplabc32/v2.02/bin/../lib/gcc/pic32mx/4.5.1/../../../../pic32mx/lib/speed/crt0.o
                0x9d071060                __crt0_exit

.rodata         0x9d071068       0x30
 .rodata        0x9d071068       0x10 build/default/production/_ext/1472/BerkeleyTCPClientDemo.o
 .rodata        0x9d071078       0x10 build/default/production/_ext/1472/BerkeleyUDPClientDemo.o
 .rodata        0x9d071088       0x10 /opt/microchip/mplabc32/v2.02/bin/../lib/gcc/pic32mx/4.5.1/../../../../pic32mx/lib/speed/libe.a(_strtod.o)

.text.EthRxFiltersSet
                0x9d071098       0x10
 .text.EthRxFiltersSet
                0x9d071098       0x10 /opt/microchip/mplabc32/v2.02/bin/../lib/gcc/pic32mx/4.5.1/../../../../pic32mx/lib/speed/libmchp_peripheral_32MX795F512L.a(eth_rx_filters_lib.o)
                0x9d071098                EthRxFiltersSet

.text.EthRxFiltersClr
                0x9d0710a8       0x10
 .text.EthRxFiltersClr
                0x9d0710a8       0x10 /opt/microchip/mplabc32/v2.02/bin/../lib/gcc/pic32mx/4.5.1/../../../../pic32mx/lib/speed/libmchp_peripheral_32MX795F512L.a(eth_rx_filters_lib.o)
                0x9d0710a8                EthRxFiltersClr

.text.EthRxFiltersWrite
                0x9d0710b8       0x10
 .text.EthRxFiltersWrite
                0x9d0710b8       0x10 /opt/microchip/mplabc32/v2.02/bin/../lib/gcc/pic32mx/4.5.1/../../../../pic32mx/lib/speed/libmchp_peripheral_32MX795F512L.a(eth_rx_filters_lib.o)
                0x9d0710b8                EthRxFiltersWrite

.rodata         0x9d0710c8       0x1c
 .rodata        0x9d0710c8        0xc build/default/production/_ext/1295770447/SNTP.o
 .rodata        0x9d0710d4        0x8 build/default/production/_ext/1295770447/ETHPIC32IntMac.o
 .rodata        0x9d0710dc        0x8 build/default/production/_ext/1295770447/MPFS2.o

.text           0x9d0710e4       0x40
 .text          0x9d0710e4        0x8 /opt/microchip/mplabc32/v2.02/bin/../lib/gcc/pic32mx/4.5.1/../../../../pic32mx/lib/speed/liblega-c.a(default-bootstrap-exception-handler.o)
                0x9d0710e4                _bootstrap_exception_handler
 .text          0x9d0710ec        0x8 /opt/microchip/mplabc32/v2.02/bin/../lib/gcc/pic32mx/4.5.1/../../../../pic32mx/lib/speed/liblega-c.a(default-on-reset.o)
                0x9d0710ec                _on_reset
 .text          0x9d0710f4        0x8 /opt/microchip/mplabc32/v2.02/bin/../lib/gcc/pic32mx/4.5.1/../../../../pic32mx/lib/speed/liblega-c.a(default-on-bootstrap.o)
                0x9d0710f4                _on_bootstrap
 .text          0x9d0710fc        0x8 /opt/microchip/mplabc32/v2.02/bin/../lib/gcc/pic32mx/4.5.1/../../../../pic32mx/lib/speed/liblega-c.a(_mon_getc.o)
                0x9d0710fc                _mon_getc
 .text          0x9d071104        0x8 /opt/microchip/mplabc32/v2.02/bin/../lib/gcc/pic32mx/4.5.1/../../../../pic32mx/lib/speed/liblega-c.a(strtod.o)
                0x9d071104                strtod
 .text          0x9d07110c        0x8 /opt/microchip/mplabc32/v2.02/bin/../lib/gcc/pic32mx/4.5.1/../../../../pic32mx/lib/speed/liblega-c.a(strtof.o)
                0x9d07110c                strtof
 .text          0x9d071114        0x8 /opt/microchip/mplabc32/v2.02/bin/../lib/gcc/pic32mx/4.5.1/../../../../pic32mx/lib/speed/liblega-c.a(_exit.o)
                0x9d071114                _exit
 .text          0x9d07111c        0x8 /opt/microchip/mplabc32/v2.02/bin/../lib/gcc/pic32mx/4.5.1/../../../../pic32mx/lib/speed/liblega-c.a(isatty.o)
                0x9d07111c                isatty
                0x9d07111c                _weak_isatty

.text.ReadCoreTimer
                0x9d071124        0x8
 .text.ReadCoreTimer
                0x9d071124        0x8 /opt/microchip/mplabc32/v2.02/bin/../lib/gcc/pic32mx/4.5.1/../../../../pic32mx/lib/speed/libmchp_peripheral.a(read_core_timer_lib.o)
                0x9d071124                ReadCoreTimer

.text.INTDisableInterrupts
                0x9d07112c        0x8
 .text.INTDisableInterrupts
                0x9d07112c        0x8 /opt/microchip/mplabc32/v2.02/bin/../lib/gcc/pic32mx/4.5.1/../../../../pic32mx/lib/speed/libmchp_peripheral_32MX795F512L.a(int_disable_interrupts_lib.o)
                0x9d07112c                INTDisableInterrupts

.text.INTEnableInterrupts
                0x9d071134        0x8
 .text.INTEnableInterrupts
                0x9d071134        0x8 /opt/microchip/mplabc32/v2.02/bin/../lib/gcc/pic32mx/4.5.1/../../../../pic32mx/lib/speed/libmchp_peripheral_32MX795F512L.a(int_enable_interrupts_lib.o)
                0x9d071134                INTEnableInterrupts

.rodata         0x9d071140        0x8
 .rodata        0x9d071140        0x8 /opt/microchip/mplabc32/v2.02/bin/../lib/gcc/pic32mx/4.5.1/../../../../pic32mx/lib/speed/liblega-c.a(isinf.o)

.rodata         0x9d05d994        0x4
 .rodata        0x9d05d994        0x4 /opt/microchip/mplabc32/v2.02/bin/../lib/gcc/pic32mx/4.5.1/../../../../pic32mx/lib/speed/liblega-c.a(gmtime.o)

.text%z459      0x00000000        0x0
 .text          0x00000000        0x0 /opt/microchip/mplabc32/v2.02/bin/../lib/gcc/pic32mx/4.5.1/../../../../pic32mx/lib/./proc/32MX795F512L/processor.o

.text%z460      0x00000000        0x0
 .text          0x00000000        0x0 /opt/microchip/mplabc32/v2.02/bin/../lib/gcc/pic32mx/4.5.1/../../../../pic32mx/lib/speed/libe.a(_unorddf2.o)

.text%z461      0x00000000        0x0
 .text          0x00000000        0x0 /opt/microchip/mplabc32/v2.02/bin/../lib/gcc/pic32mx/4.5.1/../../../../pic32mx/lib/speed/libmchp_peripheral_32MX795F512L.a(int_enable_interrupts_lib.o)

.text%z462      0x00000000        0x0
 .text          0x00000000        0x0 /opt/microchip/mplabc32/v2.02/bin/../lib/gcc/pic32mx/4.5.1/../../../../pic32mx/lib/speed/libmchp_peripheral_32MX795F512L.a(uart_lib.o)

.text%z463      0x00000000        0x0
 .text          0x00000000        0x0 /opt/microchip/mplabc32/v2.02/bin/../lib/gcc/pic32mx/4.5.1/../../../../pic32mx/lib/speed/libmchp_peripheral_32MX795F512L.a(_ports_tbl_libp.o)

.text%z464      0x00000000        0x0
 .text          0x00000000        0x0 /opt/microchip/mplabc32/v2.02/bin/../lib/gcc/pic32mx/4.5.1/../../../../pic32mx/lib/speed/libmchp_peripheral_32MX795F512L.a(port_set_pins_digital_out_lib.o)

.text%z465      0x00000000        0x0
 .text          0x00000000        0x0 /opt/microchip/mplabc32/v2.02/bin/../lib/gcc/pic32mx/4.5.1/../../../../pic32mx/lib/speed/libmchp_peripheral_32MX795F512L.a(port_set_pins_digital_in_lib.o)

.text%z466      0x00000000        0x0
 .text          0x00000000        0x0 /opt/microchip/mplabc32/v2.02/bin/../lib/gcc/pic32mx/4.5.1/../../../../pic32mx/lib/speed/libmchp_peripheral_32MX795F512L.a(int_tbl_lib.o)

.text%z467      0x00000000        0x0
 .text          0x00000000        0x0 /opt/microchip/mplabc32/v2.02/bin/../lib/gcc/pic32mx/4.5.1/../../../../pic32mx/lib/speed/libmchp_peripheral_32MX795F512L.a(int_enable_mv_int_lib.o)

.text%z468      0x00000000        0x0
 .text          0x00000000        0x0 /opt/microchip/mplabc32/v2.02/bin/../lib/gcc/pic32mx/4.5.1/../../../../pic32mx/lib/speed/libmchp_peripheral_32MX795F512L.a(int_restore_interrupts_lib.o)

.text%z469      0x00000000        0x0
 .text          0x00000000        0x0 /opt/microchip/mplabc32/v2.02/bin/../lib/gcc/pic32mx/4.5.1/../../../../pic32mx/lib/speed/libmchp_peripheral_32MX795F512L.a(int_disable_interrupts_lib.o)

.text%z470      0x00000000        0x0
 .text          0x00000000        0x0 /opt/microchip/mplabc32/v2.02/bin/../lib/gcc/pic32mx/4.5.1/../../../../pic32mx/lib/speed/libmchp_peripheral_32MX795F512L.a(pcache.o)

.text%z471      0x00000000        0x0
 .text          0x00000000        0x0 /opt/microchip/mplabc32/v2.02/bin/../lib/gcc/pic32mx/4.5.1/../../../../pic32mx/lib/speed/libmchp_peripheral_32MX795F512L.a(soft_reset_lib.o)

.text%z472      0x00000000        0x0
 .text          0x00000000        0x0 /opt/microchip/mplabc32/v2.02/bin/../lib/gcc/pic32mx/4.5.1/../../../../pic32mx/lib/speed/libmchp_peripheral_32MX795F512L.a(eth_miim_access.o)

.text%z473      0x00000000        0x0
 .text          0x00000000        0x0 /opt/microchip/mplabc32/v2.02/bin/../lib/gcc/pic32mx/4.5.1/../../../../pic32mx/lib/speed/libmchp_peripheral_32MX795F512L.a(_eth_append_busy_list_lib.o)

.text%z474      0x00000000        0x0
 .text          0x00000000        0x0 /opt/microchip/mplabc32/v2.02/bin/../lib/gcc/pic32mx/4.5.1/../../../../pic32mx/lib/speed/libmchp_peripheral_32MX795F512L.a(eth_tx_packet_lib.o)

.text%z475      0x00000000        0x0
 .text          0x00000000        0x0 /opt/microchip/mplabc32/v2.02/bin/../lib/gcc/pic32mx/4.5.1/../../../../pic32mx/lib/speed/libmchp_peripheral_32MX795F512L.a(eth_rx_set_buffer_size_lib.o)

.text%z476      0x00000000        0x0
 .text          0x00000000        0x0 /opt/microchip/mplabc32/v2.02/bin/../lib/gcc/pic32mx/4.5.1/../../../../pic32mx/lib/speed/libmchp_peripheral_32MX795F512L.a(eth_rx_get_packet_lib.o)

.text%z477      0x00000000        0x0
 .text          0x00000000        0x0 /opt/microchip/mplabc32/v2.02/bin/../lib/gcc/pic32mx/4.5.1/../../../../pic32mx/lib/speed/libmchp_peripheral_32MX795F512L.a(eth_rx_filters_lib.o)

.text%z478      0x00000000        0x0
 .text          0x00000000        0x0 /opt/microchip/mplabc32/v2.02/bin/../lib/gcc/pic32mx/4.5.1/../../../../pic32mx/lib/speed/libmchp_peripheral_32MX795F512L.a(eth_rx_buffers_append_lib.o)

.text%z479      0x00000000        0x0
 .text          0x00000000        0x0 /opt/microchip/mplabc32/v2.02/bin/../lib/gcc/pic32mx/4.5.1/../../../../pic32mx/lib/speed/libmchp_peripheral_32MX795F512L.a(eth_mac_set_address_max_lib.o)

.text%z480      0x00000000        0x0
 .text          0x00000000        0x0 /opt/microchip/mplabc32/v2.02/bin/../lib/gcc/pic32mx/4.5.1/../../../../pic32mx/lib/speed/libmchp_peripheral_32MX795F512L.a(eth_mac_open_lib.o)

.text%z481      0x00000000        0x0
 .text          0x00000000        0x0 /opt/microchip/mplabc32/v2.02/bin/../lib/gcc/pic32mx/4.5.1/../../../../pic32mx/lib/speed/libmchp_peripheral_32MX795F512L.a(eth_init_lib.o)

.text%z482      0x00000000        0x0
 .text          0x00000000        0x0 /opt/microchip/mplabc32/v2.02/bin/../lib/gcc/pic32mx/4.5.1/../../../../pic32mx/lib/speed/libmchp_peripheral_32MX795F512L.a(eth_descriptors_add_lib.o)

.text%z483      0x00000000        0x0
 .text          0x00000000        0x0 /opt/microchip/mplabc32/v2.02/bin/../lib/gcc/pic32mx/4.5.1/../../../../pic32mx/lib/speed/libmchp_peripheral_32MX795F512L.a(eth_ack_packet_lib.o)

.text%z484      0x00000000        0x0
 .text          0x00000000        0x0 /opt/microchip/mplabc32/v2.02/bin/../lib/gcc/pic32mx/4.5.1/../../../../pic32mx/lib/speed/libmchp_peripheral.a(read_core_timer_lib.o)

.text%z485      0x00000000        0x0
 .text          0x00000000        0x0 /opt/microchip/mplabc32/v2.02/bin/../lib/gcc/pic32mx/4.5.1/../../../../pic32mx/lib/speed/libe.a(_ldexpf.o)

.text%z486      0x00000000        0x0
 .text          0x00000000        0x0 /opt/microchip/mplabc32/v2.02/bin/../lib/gcc/pic32mx/4.5.1/../../../../pic32mx/lib/speed/libe.a(_ldexp.o)

.text%z487      0x00000000        0x0
 .text          0x00000000        0x0 /opt/microchip/mplabc32/v2.02/bin/../lib/gcc/pic32mx/4.5.1/../../../../pic32mx/lib/speed/libe.a(_strtof.o)

.text%z488      0x00000000        0x0
 .text          0x00000000        0x0 /opt/microchip/mplabc32/v2.02/bin/../lib/gcc/pic32mx/4.5.1/../../../../pic32mx/lib/speed/libe.a(_strtod.o)

.text%z489      0x00000000        0x0
 .text          0x00000000        0x0 /opt/microchip/mplabc32/v2.02/bin/../lib/gcc/pic32mx/4.5.1/../../../../pic32mx/lib/speed/libm.a(s_lib_ver.o)

.text%z490      0x00000000        0x0
 .text          0x00000000        0x0 /opt/microchip/mplabc32/v2.02/bin/../lib/gcc/pic32mx/4.5.1/../../../../pic32mx/lib/speed/libm.a(w_log10.o)

.text%z491      0x00000000        0x0
 .text          0x00000000        0x0 /opt/microchip/mplabc32/v2.02/bin/../lib/gcc/pic32mx/4.5.1/../../../../pic32mx/lib/speed/liblega-c.a(_iobdata.o)

.text%z492      0x00000000        0x0
 .text          0x00000000        0x0 /opt/microchip/mplabc32/v2.02/bin/../lib/gcc/pic32mx/4.5.1/../../../../pic32mx/lib/speed/liblega-c.a(errno.o)

.text%z493      0x00000000        0x0
 .text          0x00000000        0x0 /opt/microchip/mplabc32/v2.02/bin/../lib/gcc/pic32mx/4.5.1/../../../../pic32mx/lib/speed/liblega-c.a(ctype.o)

.text%z494      0x00000000        0x0
 .text          0x00000000        0x0 /opt/microchip/mplabc32/v2.02/bin/../lib/gcc/pic32mx/4.5.1/../../../../pic32mx/lib/speed/liblega-c.a(legacy-general-exception.o)

.text%z495      0x00000000        0x0
 .text          0x00000000        0x0 build/default/production/_ext/1472/CustomSSLCert.o

.text%z496      0x00000000        0x0
 .text          0x00000000        0x0 build/default/production/_ext/1472/CustomSNMPApp.o

.text%z497      0x00000000        0x0
 .text          0x00000000        0x0 build/default/production/_ext/1295770447/BigInt_helper_C32.o

.text%z498      0x00000000        0x0
 .text          0x00000000        0x0 build/default/production/_ext/1472/MPFSImg.o

.text%z499      0x00000000        0x0
 .text          0x00000000        0x0 build/default/production/_ext/1472/MPFSImg2.o

.text%z500      0x00000000        0x0
 .text          0x00000000        0x0 build/default/production/_ext/1295770447/ZeroconfMulticastDNS.o

.text%z501      0x00000000        0x0
 .text          0x00000000        0x0 build/default/production/_ext/1295770447/ZeroconfLinkLocal.o

.text%z502      0x00000000        0x0
 .text          0x00000000        0x0 build/default/production/_ext/1295770447/ZeroconfHelper.o

.text%z503      0x00000000        0x0
 .text          0x00000000        0x0 build/default/production/_ext/1295770447/UDPPerformanceTest.o

.text%z504      0x00000000        0x0
 .text          0x00000000        0x0 build/default/production/_ext/1295770447/UART.o

.text%z505      0x00000000        0x0
 .text          0x00000000        0x0 build/default/production/_ext/1295770447/UART2TCPBridge.o

.text%z506      0x00000000        0x0
 .text          0x00000000        0x0 build/default/production/_ext/1295770447/TFTPc.o

.text%z507      0x00000000        0x0
 .text          0x00000000        0x0 build/default/production/_ext/1295770447/SSL.o

.text%z508      0x00000000        0x0
 .text          0x00000000        0x0 build/default/production/_ext/1295770447/SPIRAM.o

.text%z509      0x00000000        0x0
 .text          0x00000000        0x0 build/default/production/_ext/1295770447/SPIFlash.o

.text%z510      0x00000000        0x0
 .text          0x00000000        0x0 build/default/production/_ext/1295770447/SPIEEPROM.o

.text%z511      0x00000000        0x0
 .text          0x00000000        0x0 build/default/production/_ext/1295770447/SNMPv3USM.o

.text%z512      0x00000000        0x0
 .text          0x00000000        0x0 build/default/production/_ext/1295770447/SNMPv3.o

.text%z513      0x00000000        0x0
 .text          0x00000000        0x0 build/default/production/_ext/1295770447/SNMP.o

.text%z514      0x00000000        0x0
 .text          0x00000000        0x0 build/default/production/_ext/1295770447/RSA.o

.text%z515      0x00000000        0x0
 .text          0x00000000        0x0 build/default/production/_ext/1295770447/Random.o

.text%z516      0x00000000        0x0
 .text          0x00000000        0x0 build/default/production/_ext/1295770447/MPFS.o

.text%z517      0x00000000        0x0
 .text          0x00000000        0x0 build/default/production/_ext/1295770447/LCDBlocking.o

.text%z518      0x00000000        0x0
 .text          0x00000000        0x0 build/default/production/_ext/1295770447/HTTP.o

.text%z519      0x00000000        0x0
 .text          0x00000000        0x0 build/default/production/_ext/1295770447/FTP.o

.text%z520      0x00000000        0x0
 .text          0x00000000        0x0 build/default/production/_ext/1295770447/FileSystem.o

.text%z521      0x00000000        0x0
 .text          0x00000000        0x0 build/default/production/_ext/1295770447/ENCX24J600.o

.text%z522      0x00000000        0x0
 .text          0x00000000        0x0 build/default/production/_ext/1295770447/ENC28J60.o

.text%z523      0x00000000        0x0
 .text          0x00000000        0x0 build/default/production/_ext/1295770447/DNSs.o

.text%z524      0x00000000        0x0
 .text          0x00000000        0x0 build/default/production/_ext/1295770447/BigInt.o

.text%z525      0x00000000        0x0
 .text          0x00000000        0x0 build/default/production/_ext/1295770447/ARCFOUR.o

.text%z526      0x00000000        0x0
 .text          0x00000000        0x0 build/default/production/_ext/1472/UARTConfig.o

.text%z527      0x00000000        0x0
 .text          0x00000000        0x0 build/default/production/_ext/1472/LegacyHTTPApp.o
