MPLINK 4.48, Linker
Linker Map File - Created Wed Feb 05 13:00:59 2014

                                 Section Info
                  Section       Type    Address   Location Size(Bytes)
                ---------  ---------  ---------  ---------  ---------
               _entry_scn       code   0x000000    program   0x000006
       .code__user_putc.o       code   0x000006    program   0x000002
           tick_interrupt       code   0x000008    program   0x000006
          .code_adcbusy.o       code   0x00000e    program   0x00000a
           work_interrupt       code   0x000018    program   0x000006
                   .cinit    romdata   0x00001e    program   0x0000aa
          .code_swm8722.o       code   0x0000c8    program   0x00730c
            .code_power.o       code   0x0073d4    program   0x005734
      .code_mbmc_vector.o       code   0x00cb08    program   0x00450c
             .stringtable    romdata   0x011014    program   0x001bb6
              .code_daq.o       code   0x012bca    program   0x00195a
       .romdata_swm8722.o    romdata   0x014524    program   0x00155d
        .idata_u1open.o_i    romdata   0x015a81    program   0x000000
       .romdata_adcbusy.o    romdata   0x015a81    program   0x000000
       .idata_adcbusy.o_i    romdata   0x015a81    program   0x000000
      .idata_PackMath.o_i    romdata   0x015a81    program   0x000000
      .romdata_PackMath.o    romdata   0x015a81    program   0x000000
   .romdata_mbmc_vector.o    romdata   0x015a81    program   0x000000
         .idata_errno.o_i    romdata   0x015a81    program   0x000000
         .romdata_power.o    romdata   0x015a81    program   0x000000
         .romdata_ldexp.o    romdata   0x015a81    program   0x000000
         .idata_ldexp.o_i    romdata   0x015a81    program   0x000000
         .romdata_errno.o    romdata   0x015a81    program   0x000000
          .idata_fabs.o_i    romdata   0x015a81    program   0x000000
          .romdata_fabs.o    romdata   0x015a81    program   0x000000
          .romdata_crit.o    romdata   0x015a81    program   0x000000
         .idata_frexp.o_i    romdata   0x015a81    program   0x000000
         .romdata_frexp.o    romdata   0x015a81    program   0x000000
      .idata_writdata.o_i    romdata   0x015a81    program   0x000000
      .romdata_wcmdxlcd.o    romdata   0x015a81    program   0x000000
        .romdata_u2defs.o    romdata   0x015a81    program   0x000000
        .idata_u2defs.o_i    romdata   0x015a81    program   0x000000
       .romdata_write_B.o    romdata   0x015a81    program   0x000000
      .idata_pw4setdc.o_i    romdata   0x015a81    program   0x000000
      .romdata_adcsetch.o    romdata   0x015a81    program   0x000000
      .idata_adcsetch.o_i    romdata   0x015a81    program   0x000000
        .romdata_read_B.o    romdata   0x015a81    program   0x000000
        .idata___init.o_i    romdata   0x015a81    program   0x000000
        .romdata___init.o    romdata   0x015a81    program   0x000000
        .romdata_u2read.o    romdata   0x015a81    program   0x000000
        .idata_u2read.o_i    romdata   0x015a81    program   0x000000
        .romdata_t4open.o    romdata   0x015a81    program   0x000000
        .idata_t4open.o_i    romdata   0x015a81    program   0x000000
        .romdata_t3open.o    romdata   0x015a81    program   0x000000
        .idata_t3open.o_i    romdata   0x015a81    program   0x000000
        .romdata_t0open.o    romdata   0x015a81    program   0x000000
        .idata_t0open.o_i    romdata   0x015a81    program   0x000000
      .romdata_spi1open.o    romdata   0x015a81    program   0x000000
      .idata_spi1open.o_i    romdata   0x015a81    program   0x000000
       .romdata_pw4open.o    romdata   0x015a81    program   0x000000
       .romdata_adcopen.o    romdata   0x015a81    program   0x000000
       .idata_adcopen.o_i    romdata   0x015a81    program   0x000000
        .romdata_u1open.o    romdata   0x015a81    program   0x000000
     .idata_crc8_fast.o_i    romdata   0x015a81    program   0x000000
      .romdata_setcgram.o    romdata   0x015a81    program   0x000000
      .idata_setcgram.o_i    romdata   0x015a81    program   0x000000
       .idata_u2putrs.o_i    romdata   0x015a81    program   0x000000
       .romdata_u2putrs.o    romdata   0x015a81    program   0x000000
      .idata_busyxlcd.o_i    romdata   0x015a81    program   0x000000
      .romdata_busyxlcd.o    romdata   0x015a81    program   0x000000
      .romdata_readdata.o    romdata   0x015a81    program   0x000000
      .idata_vfprintf.o_i    romdata   0x015a81    program   0x000000
      .idata_openxlcd.o_i    romdata   0x015a81    program   0x000000
      .romdata_openxlcd.o    romdata   0x015a81    program   0x000000
      .romdata_putrxlcd.o    romdata   0x015a81    program   0x000000
      .idata_putsxlcd.o_i    romdata   0x015a81    program   0x000000
          .idata_putc.o_i    romdata   0x015a81    program   0x000000
      .idata_readaddr.o_i    romdata   0x015a81    program   0x000000
            .code_sdspi.o       code   0x015a82    program   0x000d5e
         .code_c018iz_e.o       code   0x015a82    program   0x000000
           .code_u1defs.o       code   0x015a82    program   0x000000
                     PROG       code   0x0167e0    program   0x000b9a
          .code_timelib.o       code   0x01737a    program   0x00097e
         .code_vfprintf.o       code   0x017cf8    program   0x000816
              .code_pow.o       code   0x01850e    program   0x000690
            .code_model.o       code   0x018b9e    program   0x0004f0
              .code_exp.o       code   0x01908e    program   0x00033e
     .romdata_crc8_fast.o    romdata   0x0193cc    program   0x000300
              .code_log.o       code   0x0196cc    program   0x0002b4
                   STRING       code   0x019980    program   0x000248
             .code_crit.o       code   0x019bc8    program   0x000220
           .code_hwconf.o       code   0x019de8    program   0x0001da
            .code_fchop.o       code   0x019fc2    program   0x0001d6
        .code_crc8_fast.o       code   0x01a198    program   0x0001b6
                   STDLIB       code   0x01a34e    program   0x000174
         .code_PackMath.o       code   0x01a4c2    program   0x000116
         .code_UnpkMath.o       code   0x01a5d8    program   0x0000e6
            .code_ldexp.o       code   0x01a6be    program   0x0000bc
            .code_frexp.o       code   0x01a77a    program   0x0000b4
               _cinit_scn       code   0x01a82e    program   0x00009e
         .code_openxlcd.o       code   0x01a8cc    program   0x00009a
           .code_u2open.o       code   0x01a966    program   0x000084
           .code_u1open.o       code   0x01a9ea    program   0x00007a
          .code_sprintf.o       code   0x01aa64    program   0x000072
             .code_putc.o       code   0x01aad6    program   0x000066
          .code_write_B.o       code   0x01ab3c    program   0x000064
          .code_adcopen.o       code   0x01aba0    program   0x000064
         .code_spi1open.o       code   0x01ac04    program   0x00005e
          .code_u2putrs.o       code   0x01ac62    program   0x00005c
             .code_fabs.o       code   0x01acbe    program   0x000050
         .code_putrxlcd.o       code   0x01ad0e    program   0x00004e
         .code_pw4setdc.o       code   0x01ad5c    program   0x00004c
         .code_setddram.o       code   0x01ada8    program   0x000048
         .code_setcgram.o       code   0x01adf0    program   0x000048
           .code_u2puts.o       code   0x01ae38    program   0x000046
         .code_writdata.o       code   0x01ae7e    program   0x000044
         .code_wcmdxlcd.o       code   0x01aec2    program   0x000044
         .code_readdata.o       code   0x01af06    program   0x000044
         .code_readaddr.o       code   0x01af4a    program   0x000044
           .code_read_B.o       code   0x01af8e    program   0x000042
          .code_pw4open.o       code   0x01afd0    program   0x000042
           .code_t3open.o       code   0x01b012    program   0x000040
         .code_putsxlcd.o       code   0x01b052    program   0x000040
           .code_u2read.o       code   0x01b092    program   0x00003e
           .code_u1read.o       code   0x01b0d0    program   0x00003e
       .romdata_timelib.o    romdata   0x01b10e    program   0x00003c
             D10KTCYXCODE       code   0x01b14a    program   0x000036
           .code_t0open.o       code   0x01b180    program   0x000036
           .code_t4open.o       code   0x01b1b6    program   0x000034
          .code_t3write.o       code   0x01b1ea    program   0x000030
          .code_t0write.o       code   0x01b21a    program   0x000030
         .code_adcsetch.o       code   0x01b24a    program   0x000030
          .code_u2write.o       code   0x01b27a    program   0x00002e
         .code_busyxlcd.o       code   0x01b2a8    program   0x00002c
                    CTYPE       code   0x01b2d4    program   0x000024
                    .code       code   0x01b2f8    program   0x000020
             _startup_scn       code   0x01b318    program   0x00001e
                    STDIO       code   0x01b336    program   0x00001c
          .code_adcread.o       code   0x01b352    program   0x000018
              D10TCYXCODE       code   0x01b36a    program   0x000016
      .romdata_vfprintf.o    romdata   0x01b380    program   0x000011
           .romdata_pow.o    romdata   0x01b391    program   0x000000
       .idata_t3write.o_i    romdata   0x01b391    program   0x000000
       .romdata_t3write.o    romdata   0x01b391    program   0x000000
      .idata_UnpkMath.o_i    romdata   0x01b391    program   0x000000
      .romdata_UnpkMath.o    romdata   0x01b391    program   0x000000
           .idata_pow.o_i    romdata   0x01b391    program   0x000000
       .idata_write_B.o_i    romdata   0x01b391    program   0x000000
         .idata_fchop.o_i    romdata   0x01b391    program   0x000000
        .idata_u2puts.o_i    romdata   0x01b391    program   0x000000
        .romdata_u2puts.o    romdata   0x01b391    program   0x000000
    .romdata__user_putc.o    romdata   0x01b391    program   0x000000
         .romdata_fchop.o    romdata   0x01b391    program   0x000000
    .idata__user_putc.o_i    romdata   0x01b391    program   0x000000
       .idata_sprintf.o_i    romdata   0x01b391    program   0x000000
           .idata_log.o_i    romdata   0x01b391    program   0x000000
       .romdata_sprintf.o    romdata   0x01b391    program   0x000000
          .romdata_putc.o    romdata   0x01b391    program   0x000000
           .romdata_exp.o    romdata   0x01b391    program   0x000000
           .idata_exp.o_i    romdata   0x01b391    program   0x000000
           .romdata_log.o    romdata   0x01b391    program   0x000000
       .idata_adcconv.o_i    romdata   0x01b391    program   0x000000
      .romdata_busy_eep.o    romdata   0x01b391    program   0x000000
      .idata_busy_eep.o_i    romdata   0x01b391    program   0x000000
           .romdata_daq.o    romdata   0x01b391    program   0x000000
           .idata_daq.o_i    romdata   0x01b391    program   0x000000
         .romdata_model.o    romdata   0x01b391    program   0x000000
        .romdata_hwconf.o    romdata   0x01b391    program   0x000000
        .idata_hwconf.o_i    romdata   0x01b391    program   0x000000
         .romdata_sdspi.o    romdata   0x01b391    program   0x000000
      .romdata_writdata.o    romdata   0x01b391    program   0x000000
      .idata_wcmdxlcd.o_i    romdata   0x01b391    program   0x000000
      .romdata_setddram.o    romdata   0x01b391    program   0x000000
      .idata_setddram.o_i    romdata   0x01b391    program   0x000000
      .idata_readdata.o_i    romdata   0x01b391    program   0x000000
      .romdata_readaddr.o    romdata   0x01b391    program   0x000000
      .romdata_putsxlcd.o    romdata   0x01b391    program   0x000000
      .idata_putrxlcd.o_i    romdata   0x01b391    program   0x000000
      .romdata_c018iz_e.o    romdata   0x01b391    program   0x000000
      .idata_c018iz_e.o_i    romdata   0x01b391    program   0x000000
       .romdata_t0write.o    romdata   0x01b391    program   0x000000
       .idata_t0write.o_i    romdata   0x01b391    program   0x000000
       .romdata_u2write.o    romdata   0x01b391    program   0x000000
       .idata_u2write.o_i    romdata   0x01b391    program   0x000000
        .romdata_u1defs.o    romdata   0x01b391    program   0x000000
        .idata_u1defs.o_i    romdata   0x01b391    program   0x000000
      .romdata_pw4setdc.o    romdata   0x01b391    program   0x000000
        .idata_read_B.o_i    romdata   0x01b391    program   0x000000
       .romdata_adcread.o    romdata   0x01b391    program   0x000000
       .idata_adcread.o_i    romdata   0x01b391    program   0x000000
        .romdata_u1read.o    romdata   0x01b391    program   0x000000
        .idata_u2open.o_i    romdata   0x01b391    program   0x000000
        .romdata_u2open.o    romdata   0x01b391    program   0x000000
       .idata_pw4open.o_i    romdata   0x01b391    program   0x000000
        .idata_u1read.o_i    romdata   0x01b391    program   0x000000
       .romdata_adcconv.o    romdata   0x01b391    program   0x000000
            .code_errno.o       code   0x01b392    program   0x000000
         .code_busy_eep.o       code   0x01b392    program   0x000006
           .code_u2defs.o       code   0x01b392    program   0x000000
          .code_adcconv.o       code   0x01b398    program   0x000004
           .code___init.o       code   0x01b39c    program   0x000002
                   gpr4_i    romdata   0x01b39e    program   0x000100
                   gpr3_i    romdata   0x01b49e    program   0x000096
                  gpr15_i    romdata   0x01b534    program   0x0000b8
                  gpr13_i    romdata   0x01b5ec    program   0x00007c
                   gpr0_i    romdata   0x01b668    program   0x0000ee
                bigdata_i    romdata   0x01b756    program   0x000842
              SEED_DATA_i    romdata   0x01bf98    program   0x000002
       .idata_timelib.o_i    romdata   0x01bf9a    program   0x000039
       .idata_swm8722.o_i    romdata   0x01bfd3    program   0x000091
         .idata_sdspi.o_i    romdata   0x01c064    program   0x000004
         .idata_power.o_i    romdata   0x01c068    program   0x00004a
         .idata_model.o_i    romdata   0x01c0b2    program   0x000003
   .idata_mbmc_vector.o_i    romdata   0x01c0b5    program   0x000010
          .idata_crit.o_i    romdata   0x01c0c5    program   0x000002
 .config_300001_swm8722.o    romdata   0x300001    program   0x000001
 .config_300002_swm8722.o    romdata   0x300002    program   0x000001
 .config_300003_swm8722.o    romdata   0x300003    program   0x000001
 .config_300004_swm8722.o    romdata   0x300004    program   0x000001
 .config_300005_swm8722.o    romdata   0x300005    program   0x000001
 .config_300006_swm8722.o    romdata   0x300006    program   0x000001
 .config_300008_swm8722.o    romdata   0x300008    program   0x000001
 .config_300009_swm8722.o    romdata   0x300009    program   0x000001
 .config_30000a_swm8722.o    romdata   0x30000a    program   0x000001
 .config_30000b_swm8722.o    romdata   0x30000b    program   0x000001
 .config_30000c_swm8722.o    romdata   0x30000c    program   0x000001
 .config_30000d_swm8722.o    romdata   0x30000d    program   0x000001
           .idata_power.o      idata   0x000000       data   0x00004a
                 .tmpdata      udata   0x00004a       data   0x000013
           .idata_model.o      idata   0x00005d       data   0x000003
                     gpr3      idata   0x000060       data   0x000096
        .udata_c018iz_e.o      udata   0x0000f6       data   0x00000a
                     gpr4      idata   0x000100       data   0x000100
                     gpr0      idata   0x000200       data   0x0000ee
     .idata_mbmc_vector.o      idata   0x0002ee       data   0x000010
                SEED_DATA      idata   0x0002fe       data   0x000002
                    gpr15      idata   0x000300       data   0x0000b8
         .udata_swm8722.o      udata   0x0003b8       data   0x000041
         tick_handler_tmp      udata   0x0003f9       data   0x000006
              temp_tblptr      udata   0x0003ff       data   0x000001
                    gpr13      idata   0x000400       data   0x00007c
           .udata_sdspi.o      udata   0x00047c       data   0x00002b
                  bigdata      idata   0x000500       data   0x000842
         .idata_swm8722.o      idata   0x000d50       data   0x000091
     .udata_mbmc_vector.o      udata   0x000de1       data   0x00001f
                   .stack      udata   0x000e00       data   0x000100
         .idata_timelib.o      idata   0x000f00       data   0x000039
           .udata_power.o      udata   0x000f39       data   0x000009
         work_handler_tmp      udata   0x000f42       data   0x000004
                MATH_DATA      udata   0x000f46       data   0x000004
           .idata_sdspi.o      idata   0x000f4a       data   0x000004
           .udata_model.o      udata   0x000f4e       data   0x000002
           .udata_errno.o      udata   0x000f50       data   0x000002
             .udata_daq.o      udata   0x000f52       data   0x000002
            .idata_crit.o      idata   0x000f54       data   0x000002
                DELAYDAT2      udata   0x000f56       data   0x000001
                DELAYDAT1      udata   0x000f57       data   0x000001
          .udata_u2defs.o      udata   0x000f58       data   0x000001
          .udata_u1defs.o      udata   0x000f59       data   0x000001
          .udata_hwconf.o      udata   0x000f5a       data   0x000001
             .udata_pow.o      udata   0x000f5b       data   0x000000
       .idata_crc8_fast.o      idata   0x000f5b       data   0x000000
          .idata___init.o      idata   0x000f5b       data   0x000000
             .idata_pow.o      idata   0x000f5b       data   0x000000
          .udata___init.o      udata   0x000f5b       data   0x000000
        .udata_UnpkMath.o      udata   0x000f5b       data   0x000000
        .idata_UnpkMath.o      idata   0x000f5b       data   0x000000
           .udata_fchop.o      udata   0x000f5b       data   0x000000
         .idata_write_B.o      idata   0x000f5b       data   0x000000
         .udata_write_B.o      udata   0x000f5b       data   0x000000
         .idata_t3write.o      idata   0x000f5b       data   0x000000
         .udata_t3write.o      udata   0x000f5b       data   0x000000
         .idata_t0write.o      idata   0x000f5b       data   0x000000
         .udata_t0write.o      udata   0x000f5b       data   0x000000
         .idata_u2write.o      idata   0x000f5b       data   0x000000
         .udata_u2write.o      udata   0x000f5b       data   0x000000
          .idata_u2defs.o      idata   0x000f5b       data   0x000000
          .idata_u1defs.o      idata   0x000f5b       data   0x000000
        .idata_pw4setdc.o      idata   0x000f5b       data   0x000000
        .udata_pw4setdc.o      udata   0x000f5b       data   0x000000
        .idata_adcsetch.o      idata   0x000f5b       data   0x000000
        .udata_adcsetch.o      udata   0x000f5b       data   0x000000
          .idata_read_B.o      idata   0x000f5b       data   0x000000
        .idata_c018iz_e.o      idata   0x000f5b       data   0x000000
      .idata__user_putc.o      idata   0x000f5b       data   0x000000
      .udata__user_putc.o      udata   0x000f5b       data   0x000000
            .idata_putc.o      idata   0x000f5b       data   0x000000
            .udata_putc.o      udata   0x000f5b       data   0x000000
        .idata_vfprintf.o      idata   0x000f5b       data   0x000000
        .udata_vfprintf.o      udata   0x000f5b       data   0x000000
         .idata_sprintf.o      idata   0x000f5b       data   0x000000
         .udata_sprintf.o      udata   0x000f5b       data   0x000000
       .udata_crc8_fast.o      udata   0x000f5b       data   0x000000
          .idata_u2puts.o      idata   0x000f5b       data   0x000000
          .udata_u2puts.o      udata   0x000f5b       data   0x000000
         .idata_u2putrs.o      idata   0x000f5b       data   0x000000
         .udata_u2putrs.o      udata   0x000f5b       data   0x000000
             .idata_log.o      idata   0x000f5b       data   0x000000
             .udata_log.o      udata   0x000f5b       data   0x000000
           .idata_ldexp.o      idata   0x000f5b       data   0x000000
           .udata_ldexp.o      udata   0x000f5b       data   0x000000
           .idata_frexp.o      idata   0x000f5b       data   0x000000
           .udata_frexp.o      udata   0x000f5b       data   0x000000
            .idata_fabs.o      idata   0x000f5b       data   0x000000
            .udata_fabs.o      udata   0x000f5b       data   0x000000
             .idata_exp.o      idata   0x000f5b       data   0x000000
             .udata_exp.o      udata   0x000f5b       data   0x000000
           .idata_errno.o      idata   0x000f5b       data   0x000000
        .idata_PackMath.o      idata   0x000f5b       data   0x000000
        .udata_PackMath.o      udata   0x000f5b       data   0x000000
           .idata_fchop.o      idata   0x000f5b       data   0x000000
         .udata_adcbusy.o      udata   0x000f5b       data   0x000000
         .udata_timelib.o      udata   0x000f5b       data   0x000000
             .idata_daq.o      idata   0x000f5b       data   0x000000
        .udata_busyxlcd.o      udata   0x000f5b       data   0x000000
              ISRLtmpdata      udata   0x000f5b       data   0x000000
              ISRHtmpdata      udata   0x000f5b       data   0x000000
        .idata_busyxlcd.o      idata   0x000f5b       data   0x000000
        .udata_openxlcd.o      udata   0x000f5b       data   0x000000
        .idata_openxlcd.o      idata   0x000f5b       data   0x000000
        .udata_putrxlcd.o      udata   0x000f5b       data   0x000000
          .idata_hwconf.o      idata   0x000f5b       data   0x000000
        .idata_putrxlcd.o      idata   0x000f5b       data   0x000000
            .udata_crit.o      udata   0x000f5b       data   0x000000
        .idata_writdata.o      idata   0x000f5b       data   0x000000
        .udata_writdata.o      udata   0x000f5b       data   0x000000
        .idata_wcmdxlcd.o      idata   0x000f5b       data   0x000000
        .udata_wcmdxlcd.o      udata   0x000f5b       data   0x000000
        .idata_setddram.o      idata   0x000f5b       data   0x000000
        .udata_setddram.o      udata   0x000f5b       data   0x000000
        .idata_setcgram.o      idata   0x000f5b       data   0x000000
        .udata_setcgram.o      udata   0x000f5b       data   0x000000
        .idata_readdata.o      idata   0x000f5b       data   0x000000
        .udata_readdata.o      udata   0x000f5b       data   0x000000
        .idata_readaddr.o      idata   0x000f5b       data   0x000000
        .udata_readaddr.o      udata   0x000f5b       data   0x000000
        .idata_putsxlcd.o      idata   0x000f5b       data   0x000000
        .udata_putsxlcd.o      udata   0x000f5b       data   0x000000
          .udata_read_B.o      udata   0x000f5b       data   0x000000
         .idata_adcread.o      idata   0x000f5b       data   0x000000
         .udata_adcread.o      udata   0x000f5b       data   0x000000
          .idata_u2read.o      idata   0x000f5b       data   0x000000
          .udata_u2read.o      udata   0x000f5b       data   0x000000
          .idata_u1read.o      idata   0x000f5b       data   0x000000
          .udata_u1read.o      udata   0x000f5b       data   0x000000
          .idata_t4open.o      idata   0x000f5b       data   0x000000
          .udata_t4open.o      udata   0x000f5b       data   0x000000
          .idata_t3open.o      idata   0x000f5b       data   0x000000
          .udata_t3open.o      udata   0x000f5b       data   0x000000
          .idata_t0open.o      idata   0x000f5b       data   0x000000
          .udata_t0open.o      udata   0x000f5b       data   0x000000
        .idata_spi1open.o      idata   0x000f5b       data   0x000000
        .udata_spi1open.o      udata   0x000f5b       data   0x000000
         .idata_pw4open.o      idata   0x000f5b       data   0x000000
         .udata_pw4open.o      udata   0x000f5b       data   0x000000
         .idata_adcopen.o      idata   0x000f5b       data   0x000000
         .udata_adcopen.o      udata   0x000f5b       data   0x000000
          .idata_u2open.o      idata   0x000f5b       data   0x000000
          .udata_u2open.o      udata   0x000f5b       data   0x000000
          .idata_u1open.o      idata   0x000f5b       data   0x000000
          .udata_u1open.o      udata   0x000f5b       data   0x000000
         .idata_adcconv.o      idata   0x000f5b       data   0x000000
         .udata_adcconv.o      udata   0x000f5b       data   0x000000
        .idata_busy_eep.o      idata   0x000f5b       data   0x000000
        .udata_busy_eep.o      udata   0x000f5b       data   0x000000
         .idata_adcbusy.o      idata   0x000f5b       data   0x000000
            SFR_UNBANKED0      udata   0x000f62       data   0x00009e



                              Program Memory Usage 
                               Start         End      
                           ---------   ---------      
                            0x000000    0x015a80      
                            0x015a82    0x01b390      
                            0x01b392    0x01c0c6      
                            0x300001    0x300006      
                            0x300008    0x30000d      
            114897 out of 132120 program addresses used, program memory utilization is 86%



                              Symbols - Sorted by Name
                     Name    Address   Location    Storage File                     
                ---------  ---------  ---------  --------- ---------                
                     ABSI   0x002f08    program     extern L:\solarpic_rewrite\swm8722\solar18f8722\swm8722.c
                     ABSL   0x002f34    program     extern L:\solarpic_rewrite\swm8722\solar18f8722\swm8722.c
                 ADC_read   0x012bfc    program     extern L:\solarpic_rewrite\swm8722\solar18f8722\daq.c
                 ADC_zero   0x012bca    program     extern L:\solarpic_rewrite\swm8722\solar18f8722\daq.c
              BVSOC_TABLE   0x0159b1    program     extern L:\solarpic_rewrite\swm8722\solar18f8722\swm8722.c
                  BusyADC   0x00000e    program     extern E:\c18v3.46\pic18-lt\cxx-framework\src\pmc_common\ADC\adcbusy.c
                 BusyXLCD   0x01b2a8    program     extern L:\solarpic_rewrite\swm8722\solar18f8722\xlcd\busyxlcd.c
                 Busy_eep   0x01b392    program     extern E:\c18v3.46\pic18-lt\cxx-framework\src\pmc_common\EEP\busy_eep.c
                    CRC16   0x015a8a    program     extern L:\solarpic_rewrite\swm8722\solar18f8722\sdspi.c
               ChargeBatt   0x0087e2    program     extern L:\solarpic_rewrite\swm8722\solar18f8722\power.c
           ChargeRelayOff   0x0031c6    program     extern L:\solarpic_rewrite\swm8722\solar18f8722\swm8722.c
            ChargeRelayOn   0x0030f6    program     extern L:\solarpic_rewrite\swm8722\solar18f8722\swm8722.c
               ConvertADC   0x01b398    program     extern E:\c18v3.46\pic18-lt\cxx-framework\src\pmc_common\ADC\adcconv.c
                   D10K_1   0x01b15a    program     static E:\c18v3.46\pic18-lt\cxx-framework\src\extended\delays\d10ktcyx.asm
                    D10Kl   0x01b168    program     static E:\c18v3.46\pic18-lt\cxx-framework\src\extended\delays\d10ktcyx.asm
                    D10Kx   0x01b156    program     static E:\c18v3.46\pic18-lt\cxx-framework\src\extended\delays\d10ktcyx.asm
                    D10_1   0x01b37a    program     static E:\c18v3.46\pic18-lt\cxx-framework\src\extended\delays\d10tcyx.asm
                     D10x   0x01b372    program     static E:\c18v3.46\pic18-lt\cxx-framework\src\extended\delays\d10tcyx.asm
                   D1616S   0x016ce2    program     static E:\c18v3.46\pic18-lt\cxx-framework\src\extended\math\div16s.asm
                D1616SNEG   0x016cf0    program     static E:\c18v3.46\pic18-lt\cxx-framework\src\extended\math\div16s.asm
                 D1616SOK   0x016cec    program     static E:\c18v3.46\pic18-lt\cxx-framework\src\extended\math\div16s.asm
                D1616SPOS   0x016d00    program     static E:\c18v3.46\pic18-lt\cxx-framework\src\extended\math\div16s.asm
                  D1616SX   0x016d26    program     static E:\c18v3.46\pic18-lt\cxx-framework\src\extended\math\div16s.asm
                   D3232S   0x016df8    program     static E:\c18v3.46\pic18-lt\cxx-framework\src\extended\math\div32s.asm
                D3232SNEG   0x016e06    program     static E:\c18v3.46\pic18-lt\cxx-framework\src\extended\math\div32s.asm
                 D3232SOK   0x016e02    program     static E:\c18v3.46\pic18-lt\cxx-framework\src\extended\math\div32s.asm
                D3232SPOS   0x016e24    program     static E:\c18v3.46\pic18-lt\cxx-framework\src\extended\math\div32s.asm
                  D3232SX   0x016e5a    program     static E:\c18v3.46\pic18-lt\cxx-framework\src\extended\math\div32s.asm
                  DA1616S   0x016cd2    program     static E:\c18v3.46\pic18-lt\cxx-framework\src\extended\math\div16s.asm
                  DA3232S   0x016de2    program     static E:\c18v3.46\pic18-lt\cxx-framework\src\extended\math\div32s.asm
             Delay10KTCYx   0x01b14a    program     extern E:\c18v3.46\pic18-lt\cxx-framework\src\extended\delays\d10ktcyx.asm
              Delay10TCYx   0x01b36a    program     extern E:\c18v3.46\pic18-lt\cxx-framework\src\extended\delays\d10tcyx.asm
            DelayFor18TCY   0x0007c6    program     extern L:\solarpic_rewrite\swm8722\solar18f8722\swm8722.c
             DelayPORXLCD   0x0007dc    program     extern L:\solarpic_rewrite\swm8722\solar18f8722\swm8722.c
                DelayXLCD   0x0007e8    program     extern L:\solarpic_rewrite\swm8722\solar18f8722\swm8722.c
              Get_RestSOC   0x003a50    program     extern L:\solarpic_rewrite\swm8722\solar18f8722\swm8722.c
              LCD_VC_puts   0x00033a    program     extern L:\solarpic_rewrite\swm8722\solar18f8722\swm8722.c
      MMC_get_volume_info   0x015cf0    program     extern L:\solarpic_rewrite\swm8722\solar18f8722\sdspi.c
                  OneByte   0x01a470    program     static E:\c18v3.46\pic18-lt\cxx-framework\src\extended\stdclib\itobcd.asm
               Open1USART   0x01a9ea    program     extern E:\c18v3.46\pic18-lt\cxx-framework\src\pmc_common\USART\u1open.c
               Open2USART   0x01a966    program     extern E:\c18v3.46\pic18-lt\cxx-framework\src\pmc_common\USART\u2open.c
                  OpenADC   0x01aba0    program     extern E:\c18v3.46\pic18-lt\cxx-framework\src\pmc_common\ADC\adcopen.c
                 OpenPWM4   0x01afd0    program     extern E:\c18v3.46\pic18-lt\cxx-framework\src\pmc_common\PWM\pw4open.c
                 OpenSPI1   0x01ac04    program     extern E:\c18v3.46\pic18-lt\cxx-framework\src\pmc_common\SPI\spi1open.c
               OpenTimer0   0x01b180    program     extern E:\c18v3.46\pic18-lt\cxx-framework\src\pmc_common\Timers\t0open.c
               OpenTimer3   0x01b012    program     extern E:\c18v3.46\pic18-lt\cxx-framework\src\pmc_common\Timers\t3open.c
               OpenTimer4   0x01b1b6    program     extern E:\c18v3.46\pic18-lt\cxx-framework\src\pmc_common\Timers\t4open.c
                 OpenXLCD   0x01a8cc    program     extern L:\solarpic_rewrite\swm8722\solar18f8722\xlcd\openxlcd.c
                   P1wait   0x011008    program     extern L:\solarpic_rewrite\swm8722\solar18f8722\mbmc_vector.c
                   P2wait   0x01100e    program     extern L:\solarpic_rewrite\swm8722\solar18f8722\mbmc_vector.c
                ProcLower   0x01a424    program     static E:\c18v3.46\pic18-lt\cxx-framework\src\extended\stdclib\itoa.asm
                ProcUpper   0x01a41a    program     static E:\c18v3.46\pic18-lt\cxx-framework\src\extended\stdclib\itoa.asm
                  RESTORE   0x016d18    program     static E:\c18v3.46\pic18-lt\cxx-framework\src\extended\math\div16s.asm
                  RESTORE   0x016e4c    program     static E:\c18v3.46\pic18-lt\cxx-framework\src\extended\math\div32s.asm
                  RESTORE   0x016d9a    program     static E:\c18v3.46\pic18-lt\cxx-framework\src\extended\math\div16u.asm
                  RESTORE   0x016efa    program     static E:\c18v3.46\pic18-lt\cxx-framework\src\extended\math\div32u.asm
              RETQUOTIENT   0x016e3c    program     static E:\c18v3.46\pic18-lt\cxx-framework\src\extended\math\div32s.asm
              RETQUOTIENT   0x016d10    program     static E:\c18v3.46\pic18-lt\cxx-framework\src\extended\math\div16s.asm
              RETQUOTIENT   0x016d92    program     static E:\c18v3.46\pic18-lt\cxx-framework\src\extended\math\div16u.asm
              RETQUOTIENT   0x016eea    program     static E:\c18v3.46\pic18-lt\cxx-framework\src\extended\math\div32u.asm
               Read1USART   0x01b0d0    program     extern E:\c18v3.46\pic18-lt\cxx-framework\src\pmc_common\USART\u1read.c
               Read2USART   0x01b092    program     extern E:\c18v3.46\pic18-lt\cxx-framework\src\pmc_common\USART\u2read.c
                  ReadADC   0x01b352    program     extern E:\c18v3.46\pic18-lt\cxx-framework\src\pmc_common\ADC\adcread.c
             ReadAddrXLCD   0x01af4a    program     extern L:\solarpic_rewrite\swm8722\solar18f8722\xlcd\readaddr.c
             ReadDataXLCD   0x01af06    program     extern L:\solarpic_rewrite\swm8722\solar18f8722\xlcd\readdata.c
               Read_b_eep   0x01af8e    program     extern E:\c18v3.46\pic18-lt\cxx-framework\src\pmc_common\EEP\read_B.c
                 ResetC40   0x003278    program     extern L:\solarpic_rewrite\swm8722\solar18f8722\swm8722.c
                  SETSIGN   0x016dc8    program     static E:\c18v3.46\pic18-lt\cxx-framework\src\extended\math\div32s.asm
                  SETSIGN   0x016cc0    program     static E:\c18v3.46\pic18-lt\cxx-framework\src\extended\math\div16s.asm
                 SETUPSTK   0x016da8    program     static E:\c18v3.46\pic18-lt\cxx-framework\src\extended\math\div32s.asm
                 SETUPSTK   0x016d30    program     static E:\c18v3.46\pic18-lt\cxx-framework\src\extended\math\div16u.asm
                 SETUPSTK   0x016ca0    program     static E:\c18v3.46\pic18-lt\cxx-framework\src\extended\math\div16s.asm
                 SETUPSTK   0x016e64    program     static E:\c18v3.46\pic18-lt\cxx-framework\src\extended\math\div32u.asm
             SetCGRamAddr   0x01adf0    program     extern L:\solarpic_rewrite\swm8722\solar18f8722\xlcd\setcgram.c
               SetChanADC   0x01b24a    program     extern E:\c18v3.46\pic18-lt\cxx-framework\src\pmc_common\ADC\adcsetch.c
                SetDCPWM4   0x01ad5c    program     extern E:\c18v3.46\pic18-lt\cxx-framework\src\pmc_common\PWM\pw4setdc.c
             SetDDRamAddr   0x01ada8    program     extern L:\solarpic_rewrite\swm8722\solar18f8722\xlcd\setddram.c
                 TstLower   0x01a40e    program     static E:\c18v3.46\pic18-lt\cxx-framework\src\extended\stdclib\itoa.asm
                 TstUpper   0x01a408    program     static E:\c18v3.46\pic18-lt\cxx-framework\src\extended\stdclib\itoa.asm
             Volts_to_SOC   0x003808    program     extern L:\solarpic_rewrite\swm8722\solar18f8722\swm8722.c
               W_SDC0_EEP   0x003fb2    program     extern L:\solarpic_rewrite\swm8722\solar18f8722\swm8722.c
              Write2USART   0x01b27a    program     extern E:\c18v3.46\pic18-lt\cxx-framework\src\pmc_common\USART\u2write.c
             WriteCmdXLCD   0x01aec2    program     extern L:\solarpic_rewrite\swm8722\solar18f8722\xlcd\wcmdxlcd.c
            WriteDataXLCD   0x01ae7e    program     extern L:\solarpic_rewrite\swm8722\solar18f8722\xlcd\writdata.c
              WriteTimer0   0x01b21a    program     extern E:\c18v3.46\pic18-lt\cxx-framework\src\pmc_common\Timers\t0write.c
              WriteTimer3   0x01b1ea    program     extern E:\c18v3.46\pic18-lt\cxx-framework\src\pmc_common\Timers\t3write.c
              Write_b_eep   0x01ab3c    program     extern E:\c18v3.46\pic18-lt\cxx-framework\src\pmc_common\EEP\write_B.c
              _2jContinue   0x019a3c    program     static E:\c18v3.46\pic18-lt\cxx-framework\src\extended\stdclib\memset.asm
                   _2jEnd   0x019bb2    program     static E:\c18v3.46\pic18-lt\cxx-framework\src\extended\stdclib\slenpgm.asm
              _3jContinue   0x019b64    program     static E:\c18v3.46\pic18-lt\cxx-framework\src\extended\stdclib\sncpyp2r.asm
              _3jContinue   0x019a08    program     static E:\c18v3.46\pic18-lt\cxx-framework\src\extended\stdclib\mcpyp2r.asm
                   _3jEnd   0x019a46    program     static E:\c18v3.46\pic18-lt\cxx-framework\src\extended\stdclib\memset.asm
              _4jContinue   0x019b0a    program     static E:\c18v3.46\pic18-lt\cxx-framework\src\extended\stdclib\strncpy.asm
              _4jContinue   0x0199b4    program     static E:\c18v3.46\pic18-lt\cxx-framework\src\extended\stdclib\memcpy.asm
                   _4jEnd   0x019a12    program     static E:\c18v3.46\pic18-lt\cxx-framework\src\extended\stdclib\mcpyp2r.asm
                   _4jEnd   0x019b6e    program     static E:\c18v3.46\pic18-lt\cxx-framework\src\extended\stdclib\sncpyp2r.asm
                   _5jEnd   0x019b14    program     static E:\c18v3.46\pic18-lt\cxx-framework\src\extended\stdclib\strncpy.asm
                   _5jEnd   0x0199be    program     static E:\c18v3.46\pic18-lt\cxx-framework\src\extended\stdclib\memcpy.asm
       _D10KTCYXCODE_0014   0x01b15e    program     static E:\c18v3.46\pic18-lt\cxx-framework\src\extended\delays\d10ktcyx.asm
       _D10KTCYXCODE_0022   0x01b16c    program     static E:\c18v3.46\pic18-lt\cxx-framework\src\extended\delays\d10ktcyx.asm
        _D10TCYXCODE_000A   0x01b374    program     static E:\c18v3.46\pic18-lt\cxx-framework\src\extended\delays\d10tcyx.asm
        _D10TCYXCODE_000C   0x01b376    program     static E:\c18v3.46\pic18-lt\cxx-framework\src\extended\delays\d10tcyx.asm
        _D10TCYXCODE_000E   0x01b378    program     static E:\c18v3.46\pic18-lt\cxx-framework\src\extended\delays\d10tcyx.asm
                _PackMath   0x01a4c2    program     extern E:\c18v3.46\pic18-lt\cxx-framework\src\extended\stdclib\PackMath.c
                _UnpkMath   0x01a5d8    program     extern E:\c18v3.46\pic18-lt\cxx-framework\src\extended\stdclib\UnpkMath.c
              __FpCompare   0x016fd4    program     extern E:\c18v3.46\pic18-lt\cxx-framework\src\extended\math\compFP.asm
                 __FpPack   0x01692a    program     extern E:\c18v3.46\pic18-lt\cxx-framework\src\extended\math\packFP.asm
            __FpReturnNaN   0x0169ac    program     extern E:\c18v3.46\pic18-lt\cxx-framework\src\extended\math\packFP.asm
         __FpReturnNegInf   0x0169be    program     extern E:\c18v3.46\pic18-lt\cxx-framework\src\extended\math\packFP.asm
        __FpReturnNegZero   0x0169d6    program     extern E:\c18v3.46\pic18-lt\cxx-framework\src\extended\math\packFP.asm
         __FpReturnPosInf   0x0169c4    program     extern E:\c18v3.46\pic18-lt\cxx-framework\src\extended\math\packFP.asm
        __FpReturnPosZero   0x0169de    program     extern E:\c18v3.46\pic18-lt\cxx-framework\src\extended\math\packFP.asm
        __FpReturnSignInf   0x0169ba    program     extern E:\c18v3.46\pic18-lt\cxx-framework\src\extended\math\packFP.asm
       __FpReturnSignZero   0x0169d2    program     extern E:\c18v3.46\pic18-lt\cxx-framework\src\extended\math\packFP.asm
              __FpReturnW   0x016982    program     extern E:\c18v3.46\pic18-lt\cxx-framework\src\extended\math\packFP.asm
              __FpUnPackA   0x0169e4    program     extern E:\c18v3.46\pic18-lt\cxx-framework\src\extended\math\unpackFP.asm
              __FpUnPackB   0x016a14    program     extern E:\c18v3.46\pic18-lt\cxx-framework\src\extended\math\unpackFP.asm
           ___?:_lbl00082   0x000eda    program     static                          
           ___?:_lbl00083   0x000ed8    program     static                          
       ___case_0_lbl00048   0x00d3e8    program     static                          
     ___case_100_lbl00127   0x00dc66    program     static                          
     ___case_100_lbl00168   0x00df32    program     static                          
     ___case_100_lbl00323   0x010ef6    program     static                          
     ___case_103_lbl00152   0x00de08    program     static                          
     ___case_104_lbl00162   0x00de54    program     static                          
     ___case_110_lbl00157   0x00de28    program     static                          
     ___case_111_lbl00177   0x00df88    program     static                          
     ___case_112_lbl00175   0x00df78    program     static                          
     ___case_118_lbl00125   0x00dbf4    program     static                          
     ___case_118_lbl00166   0x00ded0    program     static                          
     ___case_118_lbl00321   0x010eae    program     static                          
     ___case_121_lbl00155   0x00de20    program     static                          
       ___case_1_lbl00049   0x00d3ee    program     static                          
       ___case_2_lbl00050   0x00d3f6    program     static                          
      ___case_33_lbl00150   0x00ddfa    program     static                          
      ___case_35_lbl00148   0x00ddea    program     static                          
      ___case_42_lbl00128   0x00dc74    program     static                          
      ___case_42_lbl00147   0x00dde2    program     static                          
      ___case_42_lbl00324   0x010f1a    program     static                          
      ___case_48_lbl00115   0x00db26    program     static                          
      ___case_48_lbl00313   0x010da2    program     static                          
      ___case_49_lbl00129   0x00dc84    program     static                          
      ___case_50_lbl00117   0x00db56    program     static                          
      ___case_50_lbl00315   0x010dc8    program     static                          
      ___case_51_lbl00118   0x00db60    program     static                          
      ___case_51_lbl00316   0x010e1c    program     static                          
      ___case_52_lbl00119   0x00db6a    program     static                          
      ___case_52_lbl00317   0x010e34    program     static                          
      ___case_53_lbl00120   0x00db74    program     static                          
      ___case_53_lbl00318   0x010e4e    program     static                          
      ___case_54_lbl00116   0x00db42    program     static                          
      ___case_54_lbl00314   0x010da4    program     static                          
      ___case_63_lbl00146   0x00ddda    program     static                          
      ___case_64_lbl00149   0x00ddf2    program     static                          
      ___case_65_lbl00141   0x00dda4    program     static                          
      ___case_66_lbl00172   0x00df3c    program     static                          
      ___case_68_lbl00126   0x00dc56    program     static                          
      ___case_68_lbl00167   0x00df2a    program     static                          
      ___case_68_lbl00322   0x010ed2    program     static                          
      ___case_69_lbl00144   0x00ddb2    program     static                          
      ___case_70_lbl00121   0x00db7e    program     static                          
      ___case_70_lbl00145   0x00ddd4    program     static                          
      ___case_70_lbl00319   0x010e66    program     static                          
      ___case_71_lbl00154   0x00de18    program     static                          
      ___case_72_lbl00159   0x00de30    program     static                          
      ___case_75_lbl00171   0x00df38    program     static                          
      ___case_78_lbl00158   0x00de28    program     static                          
      ___case_79_lbl00176   0x00df80    program     static                          
      ___case_80_lbl00174   0x00df70    program     static                          
      ___case_84_lbl00153   0x00de10    program     static                          
      ___case_86_lbl00122   0x00db8c    program     static                          
      ___case_86_lbl00165   0x00de78    program     static                          
      ___case_86_lbl00320   0x010e8a    program     static                          
      ___case_89_lbl00156   0x00de20    program     static                          
      ___case_90_lbl00178   0x00df90    program     static                          
      ___case_94_lbl00151   0x00de00    program     static                          
      ___default_lbl00051   0x00d3fe    program     static                          
      ___default_lbl00130   0x00dc8e    program     static                          
      ___default_lbl00181   0x00df98    program     static                          
      ___default_lbl00325   0x010f3e    program     static                          
           ___do_lbl00006   0x015b6e    program     static                          
           ___do_lbl00007   0x015b72    program     static                          
           ___do_lbl00009   0x015b5c    program     static                          
           ___do_lbl00012   0x015ba6    program     static                          
           ___do_lbl00013   0x015bae    program     static                          
           ___do_lbl00015   0x015b88    program     static                          
           ___do_lbl00052   0x0007a2    program     static                          
           ___do_lbl00053   0x0007be    program     static                          
           ___do_lbl00054   0x000748    program     static                          
           ___do_lbl00080   0x01622c    program     static                          
           ___do_lbl00081   0x016232    program     static                          
           ___do_lbl00085   0x0161ca    program     static                          
           ___do_lbl00107   0x0164c6    program     static                          
           ___do_lbl00108   0x0164cc    program     static                          
           ___do_lbl00112   0x01645e    program     static                          
           ___do_lbl00113   0x0164fa    program     static                          
           ___do_lbl00114   0x016502    program     static                          
           ___do_lbl00116   0x0164d2    program     static                          
           ___do_lbl00238   0x00c166    program     static                          
           ___do_lbl00239   0x00c1ca    program     static                          
           ___do_lbl00333   0x00a190    program     static                          
           ___do_lbl00400   0x004bc6    program     static                          
           ___do_lbl00401   0x004bca    program     static                          
           ___do_lbl00402   0x004bc4    program     static                          
           ___do_lbl00489   0x00624c    program     static                          
           ___do_lbl00490   0x006260    program     static                          
           ___do_lbl00510   0x005f40    program     static                          
         ___else_lbl00006   0x00cc56    program     static                          
         ___else_lbl00011   0x019d22    program     static                          
         ___else_lbl00057   0x00d49c    program     static                          
         ___else_lbl00059   0x00d4cc    program     static                          
         ___else_lbl00070   0x00d5d0    program     static                          
         ___else_lbl00072   0x00d600    program     static                          
         ___else_lbl00072   0x013e00    program     static                          
         ___else_lbl00075   0x00d584    program     static                          
         ___else_lbl00081   0x00d686    program     static                          
         ___else_lbl00083   0x0161f0    program     static                          
         ___else_lbl00092   0x0011be    program     static                          
         ___else_lbl00094   0x001432    program     static                          
         ___else_lbl00096   0x00d89c    program     static                          
         ___else_lbl00099   0x0016bc    program     static                          
         ___else_lbl00101   0x00d966    program     static                          
         ___else_lbl00104   0x0162d2    program     static                          
         ___else_lbl00105   0x001f80    program     static                          
         ___else_lbl00107   0x001b82    program     static                          
         ___else_lbl00108   0x00da82    program     static                          
         ___else_lbl00110   0x016486    program     static                          
         ___else_lbl00124   0x00dbe2    program     static                          
         ___else_lbl00129   0x016582    program     static                          
         ___else_lbl00137   0x00dcc6    program     static                          
         ___else_lbl00161   0x00de4e    program     static                          
         ___else_lbl00164   0x00de72    program     static                          
         ___else_lbl00194   0x00890e    program     static                          
         ___else_lbl00196   0x00e084    program     static                          
         ___else_lbl00204   0x008f46    program     static                          
         ___else_lbl00205   0x00e234    program     static                          
         ___else_lbl00208   0x00e2c2    program     static                          
         ___else_lbl00211   0x00e274    program     static                          
         ___else_lbl00212   0x0095d6    program     static                          
         ___else_lbl00217   0x009440    program     static                          
         ___else_lbl00220   0x00e3e6    program     static                          
         ___else_lbl00220   0x0097d0    program     static                          
         ___else_lbl00223   0x00e444    program     static                          
         ___else_lbl00225   0x00e4c0    program     static                          
         ___else_lbl00231   0x00e542    program     static                          
         ___else_lbl00241   0x00e914    program     static                          
         ___else_lbl00243   0x00eab0    program     static                          
         ___else_lbl00247   0x00ec5a    program     static                          
         ___else_lbl00251   0x00ec60    program     static                          
         ___else_lbl00261   0x00f612    program     static                          
         ___else_lbl00263   0x00f69c    program     static                          
         ___else_lbl00268   0x00f8e2    program     static                          
         ___else_lbl00274   0x00fbe0    program     static                          
         ___else_lbl00279   0x00aa9a    program     static                          
         ___else_lbl00280   0x01044e    program     static                          
         ___else_lbl00292   0x010b88    program     static                          
         ___else_lbl00295   0x010b68    program     static                          
         ___else_lbl00307   0x010c34    program     static                          
         ___else_lbl00319   0x00bba8    program     static                          
         ___else_lbl00332   0x00bec0    program     static                          
         ___else_lbl00334   0x003dac    program     static                          
         ___else_lbl00336   0x003dba    program     static                          
         ___else_lbl00407   0x004bfe    program     static                          
         ___else_lbl00409   0x004c54    program     static                          
         ___else_lbl00413   0x004d68    program     static                          
         ___else_lbl00425   0x00530e    program     static                          
         ___else_lbl00427   0x0052b6    program     static                          
         ___else_lbl00432   0x0053b6    program     static                          
         ___else_lbl00435   0x00534e    program     static                          
         ___else_lbl00443   0x0054c2    program     static                          
         ___else_lbl00462   0x005ab4    program     static                          
         ___else_lbl00498   0x00601a    program     static                          
         ___else_lbl00502   0x006154    program     static                          
          ___for_lbl00004   0x012c60    program     static                          
          ___for_lbl00005   0x012c6a    program     static                          
          ___for_lbl00008   0x012c24    program     static                          
          ___for_lbl00009   0x012d9e    program     static                          
          ___for_lbl00010   0x012da8    program     static                          
          ___for_lbl00011   0x018fee    program     static                          
          ___for_lbl00012   0x018ff4    program     static                          
          ___for_lbl00013   0x012d62    program     static                          
          ___for_lbl00013   0x018fd6    program     static                          
          ___for_lbl00014   0x012f38    program     static                          
          ___for_lbl00014   0x018fdc    program     static                          
          ___for_lbl00015   0x012f42    program     static                          
          ___for_lbl00015   0x018d68    program     static                          
          ___for_lbl00016   0x018d5a    program     static                          
          ___for_lbl00018   0x012efc    program     static                          
          ___for_lbl00021   0x0131b0    program     static                          
          ___for_lbl00022   0x0131ba    program     static                          
          ___for_lbl00025   0x013174    program     static                          
          ___for_lbl00026   0x0132d0    program     static                          
          ___for_lbl00027   0x0132da    program     static                          
          ___for_lbl00030   0x013294    program     static                          
          ___for_lbl00031   0x0133f0    program     static                          
          ___for_lbl00032   0x0133fa    program     static                          
          ___for_lbl00035   0x0133b4    program     static                          
          ___for_lbl00036   0x0135d0    program     static                          
          ___for_lbl00037   0x0135da    program     static                          
          ___for_lbl00040   0x013594    program     static                          
          ___for_lbl00043   0x01384c    program     static                          
          ___for_lbl00044   0x013856    program     static                          
          ___for_lbl00047   0x013810    program     static                          
          ___for_lbl00048   0x0006aa    program     static                          
          ___for_lbl00049   0x0006b8    program     static                          
          ___for_lbl00050   0x000692    program     static                          
          ___for_lbl00050   0x0139be    program     static                          
          ___for_lbl00051   0x0139c8    program     static                          
          ___for_lbl00054   0x013982    program     static                          
          ___for_lbl00056   0x0007d4    program     static                          
          ___for_lbl00057   0x0007da    program     static                          
          ___for_lbl00058   0x0007ca    program     static                          
          ___for_lbl00086   0x016294    program     static                          
          ___for_lbl00087   0x01629e    program     static                          
          ___for_lbl00088   0x01624a    program     static                          
          ___for_lbl00092   0x0163d4    program     static                          
          ___for_lbl00093   0x0163de    program     static                          
          ___for_lbl00094   0x01639c    program     static                          
          ___for_lbl00095   0x0163a6    program     static                          
          ___for_lbl00095   0x001b22    program     static                          
          ___for_lbl00096   0x016350    program     static                          
          ___for_lbl00096   0x001b28    program     static                          
          ___for_lbl00100   0x016322    program     static                          
          ___for_lbl00100   0x00167a    program     static                          
          ___for_lbl00101   0x002020    program     static                          
          ___for_lbl00102   0x002026    program     static                          
          ___for_lbl00108   0x001b40    program     static                          
          ___for_lbl00117   0x01655e    program     static                          
          ___for_lbl00118   0x016568    program     static                          
          ___for_lbl00119   0x016510    program     static                          
          ___for_lbl00120   0x016656    program     static                          
          ___for_lbl00121   0x016660    program     static                          
          ___for_lbl00122   0x016644    program     static                          
          ___for_lbl00123   0x01664e    program     static                          
          ___for_lbl00124   0x0165f6    program     static                          
          ___for_lbl00125   0x0165d2    program     static                          
          ___for_lbl00187   0x008906    program     static                          
          ___for_lbl00188   0x00890c    program     static                          
          ___for_lbl00189   0x0088be    program     static                          
          ___for_lbl00254   0x00f2a2    program     static                          
          ___for_lbl00255   0x00f2a8    program     static                          
          ___for_lbl00259   0x00ee76    program     static                          
          ___for_lbl00261   0x00a97c    program     static                          
          ___for_lbl00262   0x00a982    program     static                          
          ___for_lbl00263   0x00a8f4    program     static                          
          ___for_lbl00312   0x00baf0    program     static                          
          ___for_lbl00313   0x00baf6    program     static                          
          ___for_lbl00314   0x00ba68    program     static                          
          ___for_lbl00337   0x003f5e    program     static                          
          ___for_lbl00338   0x003f6c    program     static                          
          ___for_lbl00346   0x003dd6    program     static                          
          ___for_lbl00379   0x004794    program     static                          
          ___for_lbl00380   0x00479a    program     static                          
          ___for_lbl00381   0x00476e    program     static                          
          ___for_lbl00382   0x00484e    program     static                          
          ___for_lbl00383   0x004854    program     static                          
          ___for_lbl00384   0x004822    program     static                          
          ___for_lbl00410   0x00517a    program     static                          
          ___for_lbl00411   0x005180    program     static                          
          ___for_lbl00415   0x004cfe    program     static                          
          ___for_lbl00416   0x00521c    program     static                          
          ___for_lbl00417   0x005222    program     static                          
          ___for_lbl00418   0x0051ea    program     static                          
          ___for_lbl00420   0x005346    program     static                          
          ___for_lbl00421   0x00534c    program     static                          
          ___for_lbl00428   0x005254    program     static                          
          ___for_lbl00429   0x0053ee    program     static                          
          ___for_lbl00430   0x0053f4    program     static                          
          ___for_lbl00433   0x005368    program     static                          
          ___for_lbl00436   0x0054a8    program     static                          
          ___for_lbl00437   0x0054ae    program     static                          
          ___for_lbl00438   0x00543a    program     static                          
          ___for_lbl00439   0x00550e    program     static                          
          ___for_lbl00440   0x005514    program     static                          
          ___for_lbl00441   0x0054dc    program     static                          
          ___for_lbl00456   0x005aa8    program     static                          
          ___for_lbl00457   0x005aae    program     static                          
          ___for_lbl00459   0x005916    program     static                          
          ___for_lbl00469   0x005c40    program     static                          
          ___for_lbl00470   0x005c46    program     static                          
          ___for_lbl00473   0x005b96    program     static                          
          ___for_lbl00476   0x005cb2    program     static                          
          ___for_lbl00477   0x005cb8    program     static                          
          ___for_lbl00478   0x005c80    program     static                          
          ___for_lbl00480   0x005e86    program     static                          
          ___for_lbl00481   0x005e8c    program     static                          
          ___for_lbl00486   0x005d30    program     static                          
          ___for_lbl00504   0x006224    program     static                          
          ___for_lbl00505   0x00622a    program     static                          
          ___for_lbl00508   0x0061d0    program     static                          
          ___for_lbl00513   0x0065fa    program     static                          
          ___for_lbl00514   0x006600    program     static                          
          ___for_lbl00518   0x0062a6    program     static                          
           ___if_lbl00001   0x019bf6    program     static                          
           ___if_lbl00001   0x019e0c    program     static                          
           ___if_lbl00001   0x00cb6a    program     static                          
           ___if_lbl00002   0x019c18    program     static                          
           ___if_lbl00003   0x00cb84    program     static                          
           ___if_lbl00003   0x019e1e    program     static                          
           ___if_lbl00003   0x019c38    program     static                          
           ___if_lbl00004   0x019c60    program     static                          
           ___if_lbl00004   0x00cbf6    program     static                          
           ___if_lbl00005   0x019c6c    program     static                          
           ___if_lbl00005   0x00cc5c    program     static                          
           ___if_lbl00007   0x019caa    program     static                          
           ___if_lbl00007   0x00cc7e    program     static                          
           ___if_lbl00008   0x00cca0    program     static                          
           ___if_lbl00008   0x019ce4    program     static                          
           ___if_lbl00008   0x015b6e    program     static                          
           ___if_lbl00008   0x019f8c    program     static                          
           ___if_lbl00009   0x019cf0    program     static                          
           ___if_lbl00010   0x019d2a    program     static                          
           ___if_lbl00012   0x00cce2    program     static                          
           ___if_lbl00013   0x00cce2    program     static                          
           ___if_lbl00014   0x015ba6    program     static                          
           ___if_lbl00019   0x00cec6    program     static                          
           ___if_lbl00019   0x01306e    program     static                          
           ___if_lbl00020   0x01314e    program     static                          
           ___if_lbl00020   0x00cf5c    program     static                          
           ___if_lbl00021   0x00cf5c    program     static                          
           ___if_lbl00022   0x00cf5c    program     static                          
           ___if_lbl00023   0x00cf62    program     static                          
           ___if_lbl00024   0x00cf74    program     static                          
           ___if_lbl00025   0x00cfc0    program     static                          
           ___if_lbl00029   0x00d0d6    program     static                          
           ___if_lbl00030   0x00d0d6    program     static                          
           ___if_lbl00034   0x00d10a    program     static                          
           ___if_lbl00035   0x00d1e0    program     static                          
           ___if_lbl00036   0x00d1ee    program     static                          
           ___if_lbl00037   0x00d2e4    program     static                          
           ___if_lbl00038   0x00d2e4    program     static                          
           ___if_lbl00039   0x00d2e4    program     static                          
           ___if_lbl00041   0x013706    program     static                          
           ___if_lbl00042   0x0137e8    program     static                          
           ___if_lbl00045   0x00d3aa    program     static                          
           ___if_lbl00046   0x00d3d6    program     static                          
           ___if_lbl00049   0x013956    program     static                          
           ___if_lbl00052   0x00d404    program     static                          
           ___if_lbl00053   0x00d404    program     static                          
           ___if_lbl00054   0x00d432    program     static                          
           ___if_lbl00055   0x00d458    program     static                          
           ___if_lbl00055   0x013af4    program     static                          
           ___if_lbl00056   0x00d4ca    program     static                          
           ___if_lbl00056   0x013bc2    program     static                          
           ___if_lbl00057   0x013c08    program     static                          
           ___if_lbl00058   0x00d4d6    program     static                          
           ___if_lbl00059   0x013c6c    program     static                          
           ___if_lbl00060   0x00d4d6    program     static                          
           ___if_lbl00060   0x013c7e    program     static                          
           ___if_lbl00061   0x00d4d6    program     static                          
           ___if_lbl00061   0x013c86    program     static                          
           ___if_lbl00062   0x013c9a    program     static                          
           ___if_lbl00063   0x013d04    program     static                          
           ___if_lbl00064   0x013d98    program     static                          
           ___if_lbl00066   0x013dfe    program     static                          
           ___if_lbl00067   0x00d53a    program     static                          
           ___if_lbl00067   0x013e94    program     static                          
           ___if_lbl00068   0x00d582    program     static                          
           ___if_lbl00068   0x013ef2    program     static                          
           ___if_lbl00069   0x00d5fe    program     static                          
           ___if_lbl00070   0x013f58    program     static                          
           ___if_lbl00071   0x00d60a    program     static                          
           ___if_lbl00071   0x013f58    program     static                          
           ___if_lbl00073   0x00d60a    program     static                          
           ___if_lbl00074   0x00d60a    program     static                          
           ___if_lbl00074   0x014166    program     static                          
           ___if_lbl00075   0x0141d4    program     static                          
           ___if_lbl00076   0x0141da    program     static                          
           ___if_lbl00076   0x00d632    program     static                          
           ___if_lbl00077   0x00d63c    program     static                          
           ___if_lbl00077   0x0141e0    program     static                          
           ___if_lbl00079   0x00d6aa    program     static                          
           ___if_lbl00079   0x0161be    program     static                          
           ___if_lbl00080   0x00d6aa    program     static                          
           ___if_lbl00081   0x000a84    program     static                          
           ___if_lbl00082   0x01620c    program     static                          
           ___if_lbl00082   0x00d6e0    program     static                          
           ___if_lbl00084   0x01622a    program     static                          
           ___if_lbl00085   0x001112    program     static                          
           ___if_lbl00086   0x001128    program     static                          
           ___if_lbl00087   0x00113a    program     static                          
           ___if_lbl00088   0x001150    program     static                          
           ___if_lbl00089   0x0162bc    program     static                          
           ___if_lbl00089   0x001168    program     static                          
           ___if_lbl00089   0x00d828    program     static                          
           ___if_lbl00090   0x00117e    program     static                          
           ___if_lbl00090   0x00d89a    program     static                          
           ___if_lbl00091   0x00d89a    program     static                          
           ___if_lbl00091   0x0011f8    program     static                          
           ___if_lbl00093   0x00d914    program     static                          
           ___if_lbl00093   0x0014b2    program     static                          
           ___if_lbl00094   0x00d918    program     static                          
           ___if_lbl00095   0x00d918    program     static                          
           ___if_lbl00097   0x00d918    program     static                          
           ___if_lbl00097   0x0163ca    program     static                          
           ___if_lbl00098   0x001b12    program     static                          
           ___if_lbl00099   0x00d964    program     static                          
           ___if_lbl00100   0x00d986    program     static                          
           ___if_lbl00102   0x00d986    program     static                          
           ___if_lbl00103   0x00d9a6    program     static                          
           ___if_lbl00103   0x0163fe    program     static                          
           ___if_lbl00104   0x002010    program     static                          
           ___if_lbl00106   0x016452    program     static                          
           ___if_lbl00106   0x002010    program     static                          
           ___if_lbl00107   0x00dab2    program     static                          
           ___if_lbl00109   0x0164a4    program     static                          
           ___if_lbl00109   0x00dab8    program     static                          
           ___if_lbl00110   0x00dac0    program     static                          
           ___if_lbl00111   0x00dac0    program     static                          
           ___if_lbl00111   0x0164c4    program     static                          
           ___if_lbl00112   0x00dac0    program     static                          
           ___if_lbl00115   0x0164fa    program     static                          
           ___if_lbl00123   0x00dbe6    program     static                          
           ___if_lbl00128   0x01669c    program     static                          
           ___if_lbl00131   0x00dc98    program     static                          
           ___if_lbl00132   0x00dc98    program     static                          
           ___if_lbl00133   0x00dc98    program     static                          
           ___if_lbl00135   0x00dcc4    program     static                          
           ___if_lbl00136   0x00dcf2    program     static                          
           ___if_lbl00138   0x00dcf2    program     static                          
           ___if_lbl00139   0x00dd0a    program     static                          
           ___if_lbl00142   0x00ddc4    program     static                          
           ___if_lbl00143   0x00ddd2    program     static                          
           ___if_lbl00160   0x00de52    program     static                          
           ___if_lbl00163   0x00de76    program     static                          
           ___if_lbl00173   0x00df68    program     static                          
           ___if_lbl00180   0x00dfac    program     static                          
           ___if_lbl00182   0x00dfbe    program     static                          
           ___if_lbl00185   0x00dfe0    program     static                          
           ___if_lbl00186   0x00dfe0    program     static                          
           ___if_lbl00187   0x00e00c    program     static                          
           ___if_lbl00188   0x00e00c    program     static                          
           ___if_lbl00189   0x00e010    program     static                          
           ___if_lbl00190   0x00890c    program     static                          
           ___if_lbl00190   0x00e014    program     static                          
           ___if_lbl00191   0x008a3a    program     static                          
           ___if_lbl00191   0x00e04e    program     static                          
           ___if_lbl00192   0x008a3e    program     static                          
           ___if_lbl00193   0x00e068    program     static                          
           ___if_lbl00193   0x008a78    program     static                          
           ___if_lbl00194   0x00e078    program     static                          
           ___if_lbl00195   0x00e088    program     static                          
           ___if_lbl00196   0x008ad2    program     static                          
           ___if_lbl00197   0x008b1e    program     static                          
           ___if_lbl00197   0x00e088    program     static                          
           ___if_lbl00199   0x00e0a2    program     static                          
           ___if_lbl00200   0x008d04    program     static                          
           ___if_lbl00201   0x00e19e    program     static                          
           ___if_lbl00201   0x008d2c    program     static                          
           ___if_lbl00202   0x00e1d6    program     static                          
           ___if_lbl00202   0x008d8e    program     static                          
           ___if_lbl00203   0x008f50    program     static                          
           ___if_lbl00204   0x00e250    program     static                          
           ___if_lbl00206   0x008f72    program     static                          
           ___if_lbl00206   0x00e272    program     static                          
           ___if_lbl00207   0x00909c    program     static                          
           ___if_lbl00207   0x00e2de    program     static                          
           ___if_lbl00209   0x00e300    program     static                          
           ___if_lbl00209   0x00920c    program     static                          
           ___if_lbl00210   0x00e300    program     static                          
           ___if_lbl00210   0x0092be    program     static                          
           ___if_lbl00211   0x0095fa    program     static                          
           ___if_lbl00212   0x00e350    program     static                          
           ___if_lbl00213   0x00e356    program     static                          
           ___if_lbl00214   0x00e356    program     static                          
           ___if_lbl00214   0x00966e    program     static                          
           ___if_lbl00215   0x009720    program     static                          
           ___if_lbl00216   0x00e3cc    program     static                          
           ___if_lbl00216   0x0097ce    program     static                          
           ___if_lbl00217   0x00e3e4    program     static                          
           ___if_lbl00218   0x00e3f0    program     static                          
           ___if_lbl00218   0x009a0a    program     static                          
           ___if_lbl00219   0x00e3f0    program     static                          
           ___if_lbl00219   0x009a20    program     static                          
           ___if_lbl00222   0x00e492    program     static                          
           ___if_lbl00222   0x009a9a    program     static                          
           ___if_lbl00223   0x009b24    program     static                          
           ___if_lbl00224   0x00e4e4    program     static                          
           ___if_lbl00224   0x009b72    program     static                          
           ___if_lbl00225   0x009bc0    program     static                          
           ___if_lbl00227   0x009cd2    program     static                          
           ___if_lbl00228   0x009dc8    program     static                          
           ___if_lbl00229   0x00e57e    program     static                          
           ___if_lbl00229   0x009dc8    program     static                          
           ___if_lbl00230   0x00e57e    program     static                          
           ___if_lbl00230   0x009ec0    program     static                          
           ___if_lbl00231   0x009ec0    program     static                          
           ___if_lbl00232   0x009f28    program     static                          
           ___if_lbl00233   0x00e5ca    program     static                          
           ___if_lbl00233   0x009f54    program     static                          
           ___if_lbl00234   0x00e5f0    program     static                          
           ___if_lbl00234   0x009f80    program     static                          
           ___if_lbl00235   0x00e616    program     static                          
           ___if_lbl00236   0x009fe4    program     static                          
           ___if_lbl00236   0x00e63c    program     static                          
           ___if_lbl00237   0x00a16a    program     static                          
           ___if_lbl00237   0x00e662    program     static                          
           ___if_lbl00238   0x00e676    program     static                          
           ___if_lbl00239   0x00e828    program     static                          
           ___if_lbl00240   0x00a1d4    program     static                          
           ___if_lbl00240   0x00e9c4    program     static                          
           ___if_lbl00241   0x00a1f6    program     static                          
           ___if_lbl00242   0x00a3f6    program     static                          
           ___if_lbl00242   0x00eb60    program     static                          
           ___if_lbl00243   0x00a412    program     static                          
           ___if_lbl00245   0x00ec58    program     static                          
           ___if_lbl00246   0x00ec5e    program     static                          
           ___if_lbl00246   0x00a540    program     static                          
           ___if_lbl00247   0x00a59a    program     static                          
           ___if_lbl00248   0x00ed2a    program     static                          
           ___if_lbl00248   0x00a5b4    program     static                          
           ___if_lbl00249   0x00ed34    program     static                          
           ___if_lbl00249   0x00a65a    program     static                          
           ___if_lbl00250   0x00ed34    program     static                          
           ___if_lbl00250   0x00a6b4    program     static                          
           ___if_lbl00251   0x00a6e4    program     static                          
           ___if_lbl00252   0x00a6e4    program     static                          
           ___if_lbl00252   0x00ee70    program     static                          
           ___if_lbl00253   0x00a756    program     static                          
           ___if_lbl00253   0x00ee70    program     static                          
           ___if_lbl00254   0x00a7c0    program     static                          
           ___if_lbl00255   0x00a81a    program     static                          
           ___if_lbl00256   0x00a834    program     static                          
           ___if_lbl00256   0x00f210    program     static                          
           ___if_lbl00257   0x00a834    program     static                          
           ___if_lbl00257   0x00f2a2    program     static                          
           ___if_lbl00258   0x00a874    program     static                          
           ___if_lbl00258   0x00f2a2    program     static                          
           ___if_lbl00259   0x00a8ce    program     static                          
           ___if_lbl00260   0x00f650    program     static                          
           ___if_lbl00262   0x00f6da    program     static                          
           ___if_lbl00264   0x00a982    program     static                          
           ___if_lbl00264   0x00f8e0    program     static                          
           ___if_lbl00265   0x00a986    program     static                          
           ___if_lbl00265   0x00fbde    program     static                          
           ___if_lbl00266   0x00fbde    program     static                          
           ___if_lbl00266   0x00a9d0    program     static                          
           ___if_lbl00267   0x00aa2a    program     static                          
           ___if_lbl00267   0x00fbde    program     static                          
           ___if_lbl00268   0x00aa5a    program     static                          
           ___if_lbl00269   0x00fd8e    program     static                          
           ___if_lbl00270   0x00ffb6    program     static                          
           ___if_lbl00271   0x00ffb6    program     static                          
           ___if_lbl00271   0x00aa98    program     static                          
           ___if_lbl00272   0x00ffb6    program     static                          
           ___if_lbl00273   0x00ffb6    program     static                          
           ___if_lbl00275   0x01004e    program     static                          
           ___if_lbl00276   0x0100e6    program     static                          
           ___if_lbl00276   0x00ab1e    program     static                          
           ___if_lbl00277   0x01017e    program     static                          
           ___if_lbl00277   0x00ab1e    program     static                          
           ___if_lbl00278   0x010216    program     static                          
           ___if_lbl00278   0x00ab1e    program     static                          
           ___if_lbl00279   0x0108a2    program     static                          
           ___if_lbl00281   0x0109f4    program     static                          
           ___if_lbl00282   0x00aba0    program     static                          
           ___if_lbl00282   0x010abe    program     static                          
           ___if_lbl00283   0x010abe    program     static                          
           ___if_lbl00283   0x00aba0    program     static                          
           ___if_lbl00284   0x010b26    program     static                          
           ___if_lbl00285   0x00ad0a    program     static                          
           ___if_lbl00286   0x00ad64    program     static                          
           ___if_lbl00287   0x00ad7e    program     static                          
           ___if_lbl00289   0x00afce    program     static                          
           ___if_lbl00290   0x010b86    program     static                          
           ___if_lbl00290   0x00b03e    program     static                          
           ___if_lbl00291   0x00b0ae    program     static                          
           ___if_lbl00291   0x010b8c    program     static                          
           ___if_lbl00292   0x00b11e    program     static                          
           ___if_lbl00293   0x00b152    program     static                          
           ___if_lbl00293   0x010b9a    program     static                          
           ___if_lbl00294   0x010b9a    program     static                          
           ___if_lbl00294   0x00b152    program     static                          
           ___if_lbl00296   0x010ba6    program     static                          
           ___if_lbl00296   0x00b1be    program     static                          
           ___if_lbl00297   0x010bb2    program     static                          
           ___if_lbl00298   0x010bb2    program     static                          
           ___if_lbl00299   0x00b310    program     static                          
           ___if_lbl00299   0x010bbe    program     static                          
           ___if_lbl00300   0x00b310    program     static                          
           ___if_lbl00301   0x010bce    program     static                          
           ___if_lbl00302   0x00b34c    program     static                          
           ___if_lbl00303   0x010bee    program     static                          
           ___if_lbl00303   0x00b366    program     static                          
           ___if_lbl00304   0x00b676    program     static                          
           ___if_lbl00305   0x00b6e6    program     static                          
           ___if_lbl00306   0x00b756    program     static                          
           ___if_lbl00306   0x010c4a    program     static                          
           ___if_lbl00307   0x00b7c6    program     static                          
           ___if_lbl00308   0x010c4a    program     static                          
           ___if_lbl00308   0x00b7fa    program     static                          
           ___if_lbl00309   0x010c4a    program     static                          
           ___if_lbl00309   0x00b7fa    program     static                          
           ___if_lbl00310   0x00b85a    program     static                          
           ___if_lbl00311   0x010cce    program     static                          
           ___if_lbl00315   0x00baf6    program     static                          
           ___if_lbl00318   0x00bbbe    program     static                          
           ___if_lbl00320   0x00bbbe    program     static                          
           ___if_lbl00321   0x00bbc2    program     static                          
           ___if_lbl00322   0x00bbe2    program     static                          
           ___if_lbl00324   0x00bc2a    program     static                          
           ___if_lbl00325   0x00bc2a    program     static                          
           ___if_lbl00326   0x00bc62    program     static                          
           ___if_lbl00326   0x010f46    program     static                          
           ___if_lbl00327   0x010f4e    program     static                          
           ___if_lbl00328   0x00bc78    program     static                          
           ___if_lbl00328   0x010f9e    program     static                          
           ___if_lbl00329   0x00bd28    program     static                          
           ___if_lbl00329   0x010f9e    program     static                          
           ___if_lbl00330   0x00bd34    program     static                          
           ___if_lbl00331   0x00c026    program     static                          
           ___if_lbl00331   0x010fec    program     static                          
           ___if_lbl00332   0x003d38    program     static                          
           ___if_lbl00332   0x010fee    program     static                          
           ___if_lbl00333   0x003db8    program     static                          
           ___if_lbl00335   0x003dc6    program     static                          
           ___if_lbl00339   0x003e46    program     static                          
           ___if_lbl00340   0x003e94    program     static                          
           ___if_lbl00341   0x003e94    program     static                          
           ___if_lbl00342   0x003ee6    program     static                          
           ___if_lbl00345   0x003f5a    program     static                          
           ___if_lbl00347   0x003f6c    program     static                          
           ___if_lbl00393   0x004992    program     static                          
           ___if_lbl00394   0x0049c4    program     static                          
           ___if_lbl00395   0x0049f8    program     static                          
           ___if_lbl00396   0x004a2c    program     static                          
           ___if_lbl00403   0x004bca    program     static                          
           ___if_lbl00404   0x004bd4    program     static                          
           ___if_lbl00406   0x004c02    program     static                          
           ___if_lbl00408   0x004c78    program     static                          
           ___if_lbl00412   0x004d84    program     static                          
           ___if_lbl00414   0x004d84    program     static                          
           ___if_lbl00419   0x005222    program     static                          
           ___if_lbl00424   0x005346    program     static                          
           ___if_lbl00426   0x005346    program     static                          
           ___if_lbl00431   0x0053ee    program     static                          
           ___if_lbl00434   0x0053f4    program     static                          
           ___if_lbl00442   0x005514    program     static                          
           ___if_lbl00446   0x00551e    program     static                          
           ___if_lbl00447   0x00552c    program     static                          
           ___if_lbl00448   0x0055d4    program     static                          
           ___if_lbl00451   0x005636    program     static                          
           ___if_lbl00454   0x0058dc    program     static                          
           ___if_lbl00455   0x005910    program     static                          
           ___if_lbl00458   0x005aa8    program     static                          
           ___if_lbl00460   0x005ad4    program     static                          
           ___if_lbl00461   0x005ad4    program     static                          
           ___if_lbl00463   0x005af6    program     static                          
           ___if_lbl00464   0x005afa    program     static                          
           ___if_lbl00465   0x005b28    program     static                          
           ___if_lbl00471   0x005bcc    program     static                          
           ___if_lbl00472   0x005c40    program     static                          
           ___if_lbl00474   0x005c50    program     static                          
           ___if_lbl00475   0x005c50    program     static                          
           ___if_lbl00479   0x005cb8    program     static                          
           ___if_lbl00483   0x005e28    program     static                          
           ___if_lbl00484   0x005e86    program     static                          
           ___if_lbl00485   0x005e86    program     static                          
           ___if_lbl00487   0x005e8c    program     static                          
           ___if_lbl00492   0x005f92    program     static                          
           ___if_lbl00493   0x005fb8    program     static                          
           ___if_lbl00494   0x005fd6    program     static                          
           ___if_lbl00496   0x006028    program     static                          
           ___if_lbl00497   0x006058    program     static                          
           ___if_lbl00500   0x006152    program     static                          
           ___if_lbl00501   0x006196    program     static                          
           ___if_lbl00503   0x006196    program     static                          
           ___if_lbl00506   0x006206    program     static                          
           ___if_lbl00507   0x006224    program     static                          
           ___if_lbl00509   0x00624c    program     static                          
           ___if_lbl00511   0x006260    program     static                          
           ___if_lbl00512   0x00627a    program     static                          
           ___if_lbl00515   0x0063f2    program     static                          
           ___if_lbl00516   0x0065ea    program     static                          
           ___if_lbl00517   0x0065fa    program     static                          
           ___if_lbl00524   0x006848    program     static                          
           ___if_lbl00525   0x0068c2    program     static                          
           ___if_lbl00526   0x0068c2    program     static                          
           ___if_lbl00527   0x0068d8    program     static                          
           ___if_lbl00528   0x0068fa    program     static                          
       ___return_lbl00000   0x00000c    program     static                          
       ___return_lbl00000   0x019f8c    program     static                          
       ___return_lbl00000   0x012bfa    program     static                          
       ___return_lbl00000   0x000004    program     static                          
       ___return_lbl00000   0x00e0e8    program     static                          
       ___return_lbl00000   0x019c6c    program     static                          
       ___return_lbl00000   0x01afc4    program     static                          
       ___return_lbl00001   0x00001c    program     static                          
       ___return_lbl00001   0x01b334    program     static                          
       ___return_lbl00002   0x01a8ca    program     static                          
       ___return_lbl00003   0x013f62    program     static                          
       ___return_lbl00005   0x015b76    program     static                          
       ___return_lbl00006   0x019d2a    program     static                          
       ___return_lbl00010   0x018ff4    program     static                          
       ___return_lbl00011   0x015bb4    program     static                          
       ___return_lbl00047   0x0006b8    program     static                          
       ___return_lbl00051   0x0007be    program     static                          
       ___return_lbl00055   0x0007da    program     static                          
       ___return_lbl00073   0x0141e0    program     static                          
       ___return_lbl00075   0x0009f4    program     static                          
       ___return_lbl00078   0x0163fe    program     static                          
       ___return_lbl00080   0x002038    program     static                          
       ___return_lbl00105   0x01669c    program     static                          
       ___return_lbl00185   0x00c2da    program     static                          
       ___return_lbl00200   0x010c90    program     static                          
       ___return_lbl00310   0x011000    program     static                          
       ___return_lbl00331   0x003faa    program     static                          
       ___return_lbl00378   0x006922    program     static                          
   ___switchexit_lbl00047   0x00d404    program     static                          
   ___switchexit_lbl00114   0x00dc98    program     static                          
   ___switchexit_lbl00140   0x00dfe2    program     static                          
   ___switchexit_lbl00312   0x010f40    program     static                          
        ___while_lbl00001   0x012be4    program     static                          
        ___while_lbl00002   0x012bee    program     static                          
        ___while_lbl00004   0x019eb4    program     static                          
        ___while_lbl00005   0x019ec2    program     static                          
        ___while_lbl00006   0x012c34    program     static                          
        ___while_lbl00006   0x019ec2    program     static                          
        ___while_lbl00007   0x019ed0    program     static                          
        ___while_lbl00007   0x012c3e    program     static                          
        ___while_lbl00011   0x012d72    program     static                          
        ___while_lbl00012   0x012d7c    program     static                          
        ___while_lbl00016   0x012f0c    program     static                          
        ___while_lbl00017   0x012f16    program     static                          
        ___while_lbl00023   0x013184    program     static                          
        ___while_lbl00024   0x01318e    program     static                          
        ___while_lbl00028   0x0132a4    program     static                          
        ___while_lbl00029   0x0132ae    program     static                          
        ___while_lbl00033   0x0133c4    program     static                          
        ___while_lbl00034   0x0133ce    program     static                          
        ___while_lbl00038   0x0135a4    program     static                          
        ___while_lbl00039   0x0135ae    program     static                          
        ___while_lbl00045   0x013820    program     static                          
        ___while_lbl00046   0x01382a    program     static                          
        ___while_lbl00052   0x013992    program     static                          
        ___while_lbl00053   0x01399c    program     static                          
        ___while_lbl00090   0x0162bc    program     static                          
        ___while_lbl00091   0x0162c4    program     static                          
        ___while_lbl00098   0x0163ca    program     static                          
        ___while_lbl00099   0x0163d4    program     static                          
        ___while_lbl00101   0x0163e8    program     static                          
        ___while_lbl00102   0x0163f2    program     static                          
        ___while_lbl00126   0x016682    program     static                          
        ___while_lbl00127   0x01668c    program     static                          
        ___while_lbl00169   0x00df38    program     static                          
        ___while_lbl00170   0x00df3a    program     static                          
        ___while_lbl00343   0x003f12    program     static                          
        ___while_lbl00344   0x003f1a    program     static                          
        ___while_lbl00385   0x0048f8    program     static                          
        ___while_lbl00386   0x004902    program     static                          
        ___while_lbl00387   0x00491e    program     static                          
        ___while_lbl00388   0x004928    program     static                          
        ___while_lbl00389   0x004932    program     static                          
        ___while_lbl00390   0x00493c    program     static                          
        ___while_lbl00391   0x004958    program     static                          
        ___while_lbl00392   0x004962    program     static                          
        ___while_lbl00444   0x00551c    program     static                          
        ___while_lbl00445   0x00551e    program     static                          
        ___while_lbl00452   0x0057b8    program     static                          
        ___while_lbl00453   0x006922    program     static                          
        ___while_lbl00466   0x005b66    program     static                          
        ___while_lbl00467   0x006618    program     static                          
        ___while_lbl00519   0x00665c    program     static                          
        ___while_lbl00520   0x0068fc    program     static                          
                  __addFP   0x0167e4    program     extern E:\c18v3.46\pic18-lt\cxx-framework\src\extended\math\addFP.asm
              __cast08sFP   0x016a44    program     extern E:\c18v3.46\pic18-lt\cxx-framework\src\extended\math\cast08FP.asm
              __cast08uFP   0x016a40    program     extern E:\c18v3.46\pic18-lt\cxx-framework\src\extended\math\cast08FP.asm
              __cast16sFP   0x016a7e    program     extern E:\c18v3.46\pic18-lt\cxx-framework\src\extended\math\cast16FP.asm
              __cast16uFP   0x016a7a    program     extern E:\c18v3.46\pic18-lt\cxx-framework\src\extended\math\cast16FP.asm
              __cast32sFP   0x016ac0    program     extern E:\c18v3.46\pic18-lt\cxx-framework\src\extended\math\cast32FP.asm
              __cast32uFP   0x016abc    program     extern E:\c18v3.46\pic18-lt\cxx-framework\src\extended\math\cast32FP.asm
               __castFP08   0x016b0a    program     extern E:\c18v3.46\pic18-lt\cxx-framework\src\extended\math\castFP08.asm
               __castFP16   0x016b7c    program     extern E:\c18v3.46\pic18-lt\cxx-framework\src\extended\math\castFP16.asm
               __castFP32   0x016c02    program     extern E:\c18v3.46\pic18-lt\cxx-framework\src\extended\math\castFP32.asm
               __config_0   0x300001    program     static L:\solarpic_rewrite\swm8722\solar18f8722\swm8722.c
               __config_1   0x300002    program     static L:\solarpic_rewrite\swm8722\solar18f8722\swm8722.c
              __config_10   0x30000c    program     static L:\solarpic_rewrite\swm8722\solar18f8722\swm8722.c
              __config_11   0x30000d    program     static L:\solarpic_rewrite\swm8722\solar18f8722\swm8722.c
               __config_2   0x300003    program     static L:\solarpic_rewrite\swm8722\solar18f8722\swm8722.c
               __config_3   0x300004    program     static L:\solarpic_rewrite\swm8722\solar18f8722\swm8722.c
               __config_4   0x300005    program     static L:\solarpic_rewrite\swm8722\solar18f8722\swm8722.c
               __config_5   0x300006    program     static L:\solarpic_rewrite\swm8722\solar18f8722\swm8722.c
               __config_6   0x300008    program     static L:\solarpic_rewrite\swm8722\solar18f8722\swm8722.c
               __config_7   0x300009    program     static L:\solarpic_rewrite\swm8722\solar18f8722\swm8722.c
               __config_8   0x30000a    program     static L:\solarpic_rewrite\swm8722\solar18f8722\swm8722.c
               __config_9   0x30000b    program     static L:\solarpic_rewrite\swm8722\solar18f8722\swm8722.c
                 __div16s   0x016cb8    program     extern E:\c18v3.46\pic18-lt\cxx-framework\src\extended\math\div16s.asm
                 __div16u   0x016d48    program     extern E:\c18v3.46\pic18-lt\cxx-framework\src\extended\math\div16u.asm
                 __div32s   0x016dc0    program     extern E:\c18v3.46\pic18-lt\cxx-framework\src\extended\math\div32s.asm
                 __div32u   0x016e7c    program     extern E:\c18v3.46\pic18-lt\cxx-framework\src\extended\math\div32u.asm
                  __divFP   0x016f08    program     extern E:\c18v3.46\pic18-lt\cxx-framework\src\extended\math\divFP.asm
                   __eqFP   0x01736c    program     extern E:\c18v3.46\pic18-lt\cxx-framework\src\extended\math\eqFP.asm
                   __gtFP   0x016fc2    program     extern E:\c18v3.46\pic18-lt\cxx-framework\src\extended\math\gtFP.asm
                   __init   0x01b39c    program     extern E:\c18v3.46\pic18-lt\cxx-framework\src\extended\stdclib\__init.c
                   __ltFP   0x0170a2    program     extern E:\c18v3.46\pic18-lt\cxx-framework\src\extended\math\ltFP.asm
                 __mod16s   0x016cbe    program     extern E:\c18v3.46\pic18-lt\cxx-framework\src\extended\math\div16s.asm
                 __mod16u   0x016d4e    program     extern E:\c18v3.46\pic18-lt\cxx-framework\src\extended\math\div16u.asm
                 __mod32s   0x016dc6    program     extern E:\c18v3.46\pic18-lt\cxx-framework\src\extended\math\div32s.asm
                 __mod32u   0x016e82    program     extern E:\c18v3.46\pic18-lt\cxx-framework\src\extended\math\div32u.asm
                  __mul16   0x0170b4    program     extern E:\c18v3.46\pic18-lt\cxx-framework\src\extended\math\mul16.asm
                  __mul24   0x01711c    program     extern E:\c18v3.46\pic18-lt\cxx-framework\src\extended\math\mul24.asm
                  __mul32   0x0171dc    program     extern E:\c18v3.46\pic18-lt\cxx-framework\src\extended\math\mul32.asm
                  __mulFP   0x01727e    program     extern E:\c18v3.46\pic18-lt\cxx-framework\src\extended\math\mulFP.asm
                   __pa_0   0x018a2c    program     static E:\c18v3.46\pic18-lt\cxx-framework\src\extended\stdclib\pow.c
                   __pa_0   0x01448a    program     static L:\solarpic_rewrite\swm8722\solar18f8722\daq.c
                   __pa_0   0x01aeb4    program     static L:\solarpic_rewrite\swm8722\solar18f8722\xlcd\writdata.c
                   __pa_0   0x019dc4    program     static L:\solarpic_rewrite\swm8722\solar18f8722\crit.c
                   __pa_0   0x01799e    program     static L:\solarpic_rewrite\swm8722\solar18f8722\timelib.c
                   __pa_0   0x01aef8    program     static L:\solarpic_rewrite\swm8722\solar18f8722\xlcd\wcmdxlcd.c
                   __pa_0   0x0192fa    program     static E:\c18v3.46\pic18-lt\cxx-framework\src\extended\stdclib\exp.c
                   __pa_0   0x01a6b4    program     static E:\c18v3.46\pic18-lt\cxx-framework\src\extended\stdclib\UnpkMath.c
                   __pa_0   0x018ff6    program     static L:\solarpic_rewrite\swm8722\solar18f8722\model.c
                   __pa_0   0x01a17c    program     static E:\c18v3.46\pic18-lt\cxx-framework\src\extended\stdclib\fchop.c
                   __pa_0   0x0166bc    program     static L:\solarpic_rewrite\swm8722\solar18f8722\sdspi.c
                   __pa_0   0x01a344    program     static L:\solarpic_rewrite\swm8722\solar18f8722\crc8_fast.c
                   __pa_0   0x01b2c2    program     static L:\solarpic_rewrite\swm8722\solar18f8722\xlcd\busyxlcd.c
                   __pa_0   0x01ad4c    program     static L:\solarpic_rewrite\swm8722\solar18f8722\xlcd\putrxlcd.c
                   __pa_0   0x01a58e    program     static E:\c18v3.46\pic18-lt\cxx-framework\src\extended\stdclib\PackMath.c
                   __pa_0   0x0183ba    program     static E:\c18v3.46\pic18-lt\cxx-framework\src\extended\stdclib\vfprintf.c
                   __pa_0   0x0198bc    program     static E:\c18v3.46\pic18-lt\cxx-framework\src\extended\stdclib\log.c
                   __pa_0   0x01a76c    program     static E:\c18v3.46\pic18-lt\cxx-framework\src\extended\stdclib\ldexp.c
                   __pa_0   0x01a820    program     static E:\c18v3.46\pic18-lt\cxx-framework\src\extended\stdclib\frexp.c
                   __pa_0   0x01a954    program     static L:\solarpic_rewrite\swm8722\solar18f8722\xlcd\openxlcd.c
                   __pa_0   0x00c2e2    program     static L:\solarpic_rewrite\swm8722\solar18f8722\power.c
                   __pa_0   0x01ae2a    program     static L:\solarpic_rewrite\swm8722\solar18f8722\xlcd\setcgram.c
                   __pa_0   0x006924    program     static L:\solarpic_rewrite\swm8722\solar18f8722\swm8722.c
                   __pa_0   0x01ade2    program     static L:\solarpic_rewrite\swm8722\solar18f8722\xlcd\setddram.c
                   __pa_1   0x018ffa    program     static L:\solarpic_rewrite\swm8722\solar18f8722\model.c
                   __pa_1   0x0198d4    program     static E:\c18v3.46\pic18-lt\cxx-framework\src\extended\stdclib\log.c
                   __pa_1   0x01a95e    program     static L:\solarpic_rewrite\swm8722\solar18f8722\xlcd\openxlcd.c
                   __pa_1   0x01a59e    program     static E:\c18v3.46\pic18-lt\cxx-framework\src\extended\stdclib\PackMath.c
                   __pa_1   0x0183c8    program     static E:\c18v3.46\pic18-lt\cxx-framework\src\extended\stdclib\vfprintf.c
                   __pa_1   0x01a18a    program     static E:\c18v3.46\pic18-lt\cxx-framework\src\extended\stdclib\fchop.c
                   __pa_1   0x01449e    program     static L:\solarpic_rewrite\swm8722\solar18f8722\daq.c
                   __pa_1   0x018a34    program     static E:\c18v3.46\pic18-lt\cxx-framework\src\extended\stdclib\pow.c
                   __pa_1   0x019312    program     static E:\c18v3.46\pic18-lt\cxx-framework\src\extended\stdclib\exp.c
                   __pa_1   0x006934    program     static L:\solarpic_rewrite\swm8722\solar18f8722\swm8722.c
                   __pa_1   0x019dd0    program     static L:\solarpic_rewrite\swm8722\solar18f8722\crit.c
                   __pa_1   0x00c2f0    program     static L:\solarpic_rewrite\swm8722\solar18f8722\power.c
                   __pa_1   0x0166c4    program     static L:\solarpic_rewrite\swm8722\solar18f8722\sdspi.c
                   __pa_1   0x0179a4    program     static L:\solarpic_rewrite\swm8722\solar18f8722\timelib.c
                  __pa_10   0x01906e    program     static L:\solarpic_rewrite\swm8722\solar18f8722\model.c
                  __pa_10   0x018ad2    program     static E:\c18v3.46\pic18-lt\cxx-framework\src\extended\stdclib\pow.c
                  __pa_10   0x0069e0    program     static L:\solarpic_rewrite\swm8722\solar18f8722\swm8722.c
                  __pa_10   0x0193b6    program     static E:\c18v3.46\pic18-lt\cxx-framework\src\extended\stdclib\exp.c
                  __pa_10   0x01673a    program     static L:\solarpic_rewrite\swm8722\solar18f8722\sdspi.c
                  __pa_10   0x017a76    program     static L:\solarpic_rewrite\swm8722\solar18f8722\timelib.c
                  __pa_10   0x00c3a4    program     static L:\solarpic_rewrite\swm8722\solar18f8722\power.c
                  __pa_10   0x018456    program     static E:\c18v3.46\pic18-lt\cxx-framework\src\extended\stdclib\vfprintf.c
                  __pa_10   0x01451c    program     static L:\solarpic_rewrite\swm8722\solar18f8722\daq.c
                  __pa_10   0x019968    program     static E:\c18v3.46\pic18-lt\cxx-framework\src\extended\stdclib\log.c
                 __pa_100   0x00c89e    program     static L:\solarpic_rewrite\swm8722\solar18f8722\power.c
                 __pa_100   0x006f28    program     static L:\solarpic_rewrite\swm8722\solar18f8722\swm8722.c
                 __pa_101   0x006f30    program     static L:\solarpic_rewrite\swm8722\solar18f8722\swm8722.c
                 __pa_101   0x00c8aa    program     static L:\solarpic_rewrite\swm8722\solar18f8722\power.c
                 __pa_102   0x006f40    program     static L:\solarpic_rewrite\swm8722\solar18f8722\swm8722.c
                 __pa_102   0x00c8b8    program     static L:\solarpic_rewrite\swm8722\solar18f8722\power.c
                 __pa_103   0x00c8c4    program     static L:\solarpic_rewrite\swm8722\solar18f8722\power.c
                 __pa_103   0x006f50    program     static L:\solarpic_rewrite\swm8722\solar18f8722\swm8722.c
                 __pa_104   0x00c8d2    program     static L:\solarpic_rewrite\swm8722\solar18f8722\power.c
                 __pa_104   0x006f5e    program     static L:\solarpic_rewrite\swm8722\solar18f8722\swm8722.c
                 __pa_105   0x006f6c    program     static L:\solarpic_rewrite\swm8722\solar18f8722\swm8722.c
                 __pa_105   0x00c8e4    program     static L:\solarpic_rewrite\swm8722\solar18f8722\power.c
                 __pa_106   0x006f74    program     static L:\solarpic_rewrite\swm8722\solar18f8722\swm8722.c
                 __pa_106   0x00c8ec    program     static L:\solarpic_rewrite\swm8722\solar18f8722\power.c
                 __pa_107   0x006f7e    program     static L:\solarpic_rewrite\swm8722\solar18f8722\swm8722.c
                 __pa_107   0x00c8f4    program     static L:\solarpic_rewrite\swm8722\solar18f8722\power.c
                 __pa_108   0x00c8fc    program     static L:\solarpic_rewrite\swm8722\solar18f8722\power.c
                 __pa_108   0x006f84    program     static L:\solarpic_rewrite\swm8722\solar18f8722\swm8722.c
                 __pa_109   0x00c908    program     static L:\solarpic_rewrite\swm8722\solar18f8722\power.c
                 __pa_109   0x006f8e    program     static L:\solarpic_rewrite\swm8722\solar18f8722\swm8722.c
                  __pa_11   0x019976    program     static E:\c18v3.46\pic18-lt\cxx-framework\src\extended\stdclib\log.c
                  __pa_11   0x00c3aa    program     static L:\solarpic_rewrite\swm8722\solar18f8722\power.c
                  __pa_11   0x0069ea    program     static L:\solarpic_rewrite\swm8722\solar18f8722\swm8722.c
                  __pa_11   0x0193c4    program     static E:\c18v3.46\pic18-lt\cxx-framework\src\extended\stdclib\exp.c
                  __pa_11   0x016742    program     static L:\solarpic_rewrite\swm8722\solar18f8722\sdspi.c
                  __pa_11   0x01907a    program     static L:\solarpic_rewrite\swm8722\solar18f8722\model.c
                  __pa_11   0x018adc    program     static E:\c18v3.46\pic18-lt\cxx-framework\src\extended\stdclib\pow.c
                  __pa_11   0x018466    program     static E:\c18v3.46\pic18-lt\cxx-framework\src\extended\stdclib\vfprintf.c
                  __pa_11   0x017a8a    program     static L:\solarpic_rewrite\swm8722\solar18f8722\timelib.c
                 __pa_110   0x00c914    program     static L:\solarpic_rewrite\swm8722\solar18f8722\power.c
                 __pa_110   0x006f98    program     static L:\solarpic_rewrite\swm8722\solar18f8722\swm8722.c
                 __pa_111   0x00c91e    program     static L:\solarpic_rewrite\swm8722\solar18f8722\power.c
                 __pa_111   0x006fa0    program     static L:\solarpic_rewrite\swm8722\solar18f8722\swm8722.c
                 __pa_112   0x006fac    program     static L:\solarpic_rewrite\swm8722\solar18f8722\swm8722.c
                 __pa_112   0x00c926    program     static L:\solarpic_rewrite\swm8722\solar18f8722\power.c
                 __pa_113   0x006fae    program     static L:\solarpic_rewrite\swm8722\solar18f8722\swm8722.c
                 __pa_113   0x00c932    program     static L:\solarpic_rewrite\swm8722\solar18f8722\power.c
                 __pa_114   0x006fca    program     static L:\solarpic_rewrite\swm8722\solar18f8722\swm8722.c
                 __pa_114   0x00c93e    program     static L:\solarpic_rewrite\swm8722\solar18f8722\power.c
                 __pa_115   0x006fd2    program     static L:\solarpic_rewrite\swm8722\solar18f8722\swm8722.c
                 __pa_115   0x00c944    program     static L:\solarpic_rewrite\swm8722\solar18f8722\power.c
                 __pa_116   0x00c952    program     static L:\solarpic_rewrite\swm8722\solar18f8722\power.c
                 __pa_116   0x006fd8    program     static L:\solarpic_rewrite\swm8722\solar18f8722\swm8722.c
                 __pa_117   0x006fde    program     static L:\solarpic_rewrite\swm8722\solar18f8722\swm8722.c
                 __pa_117   0x00c95a    program     static L:\solarpic_rewrite\swm8722\solar18f8722\power.c
                 __pa_118   0x00c960    program     static L:\solarpic_rewrite\swm8722\solar18f8722\power.c
                 __pa_118   0x006fe4    program     static L:\solarpic_rewrite\swm8722\solar18f8722\swm8722.c
                 __pa_119   0x006ff6    program     static L:\solarpic_rewrite\swm8722\solar18f8722\swm8722.c
                 __pa_119   0x00c966    program     static L:\solarpic_rewrite\swm8722\solar18f8722\power.c
                  __pa_12   0x018476    program     static E:\c18v3.46\pic18-lt\cxx-framework\src\extended\stdclib\vfprintf.c
                  __pa_12   0x0069fe    program     static L:\solarpic_rewrite\swm8722\solar18f8722\swm8722.c
                  __pa_12   0x018aea    program     static E:\c18v3.46\pic18-lt\cxx-framework\src\extended\stdclib\pow.c
                  __pa_12   0x016750    program     static L:\solarpic_rewrite\swm8722\solar18f8722\sdspi.c
                  __pa_12   0x00c3b8    program     static L:\solarpic_rewrite\swm8722\solar18f8722\power.c
                  __pa_12   0x017aa8    program     static L:\solarpic_rewrite\swm8722\solar18f8722\timelib.c
                  __pa_12   0x019084    program     static L:\solarpic_rewrite\swm8722\solar18f8722\model.c
                 __pa_120   0x00c96c    program     static L:\solarpic_rewrite\swm8722\solar18f8722\power.c
                 __pa_120   0x006ffe    program     static L:\solarpic_rewrite\swm8722\solar18f8722\swm8722.c
                 __pa_121   0x007004    program     static L:\solarpic_rewrite\swm8722\solar18f8722\swm8722.c
                 __pa_121   0x00c972    program     static L:\solarpic_rewrite\swm8722\solar18f8722\power.c
                 __pa_122   0x00c978    program     static L:\solarpic_rewrite\swm8722\solar18f8722\power.c
                 __pa_122   0x00700c    program     static L:\solarpic_rewrite\swm8722\solar18f8722\swm8722.c
                 __pa_123   0x00c98a    program     static L:\solarpic_rewrite\swm8722\solar18f8722\power.c
                 __pa_123   0x007022    program     static L:\solarpic_rewrite\swm8722\solar18f8722\swm8722.c
                 __pa_124   0x007036    program     static L:\solarpic_rewrite\swm8722\solar18f8722\swm8722.c
                 __pa_124   0x00c996    program     static L:\solarpic_rewrite\swm8722\solar18f8722\power.c
                 __pa_125   0x007044    program     static L:\solarpic_rewrite\swm8722\solar18f8722\swm8722.c
                 __pa_125   0x00c9aa    program     static L:\solarpic_rewrite\swm8722\solar18f8722\power.c
                 __pa_126   0x00704a    program     static L:\solarpic_rewrite\swm8722\solar18f8722\swm8722.c
                 __pa_126   0x00c9b2    program     static L:\solarpic_rewrite\swm8722\solar18f8722\power.c
                 __pa_127   0x007066    program     static L:\solarpic_rewrite\swm8722\solar18f8722\swm8722.c
                 __pa_127   0x00c9b8    program     static L:\solarpic_rewrite\swm8722\solar18f8722\power.c
                 __pa_128   0x007078    program     static L:\solarpic_rewrite\swm8722\solar18f8722\swm8722.c
                 __pa_128   0x00c9c2    program     static L:\solarpic_rewrite\swm8722\solar18f8722\power.c
                 __pa_129   0x00c9cc    program     static L:\solarpic_rewrite\swm8722\solar18f8722\power.c
                 __pa_129   0x007082    program     static L:\solarpic_rewrite\swm8722\solar18f8722\swm8722.c
                  __pa_13   0x00c3c6    program     static L:\solarpic_rewrite\swm8722\solar18f8722\power.c
                  __pa_13   0x018af4    program     static E:\c18v3.46\pic18-lt\cxx-framework\src\extended\stdclib\pow.c
                  __pa_13   0x016758    program     static L:\solarpic_rewrite\swm8722\solar18f8722\sdspi.c
                  __pa_13   0x018484    program     static E:\c18v3.46\pic18-lt\cxx-framework\src\extended\stdclib\vfprintf.c
                  __pa_13   0x017abc    program     static L:\solarpic_rewrite\swm8722\solar18f8722\timelib.c
                  __pa_13   0x006a12    program     static L:\solarpic_rewrite\swm8722\solar18f8722\swm8722.c
                 __pa_130   0x00c9d2    program     static L:\solarpic_rewrite\swm8722\solar18f8722\power.c
                 __pa_130   0x007096    program     static L:\solarpic_rewrite\swm8722\solar18f8722\swm8722.c
                 __pa_131   0x00709e    program     static L:\solarpic_rewrite\swm8722\solar18f8722\swm8722.c
                 __pa_131   0x00c9e8    program     static L:\solarpic_rewrite\swm8722\solar18f8722\power.c
                 __pa_132   0x0070a6    program     static L:\solarpic_rewrite\swm8722\solar18f8722\swm8722.c
                 __pa_132   0x00ca02    program     static L:\solarpic_rewrite\swm8722\solar18f8722\power.c
                 __pa_133   0x0070b0    program     static L:\solarpic_rewrite\swm8722\solar18f8722\swm8722.c
                 __pa_133   0x00ca08    program     static L:\solarpic_rewrite\swm8722\solar18f8722\power.c
                 __pa_134   0x00ca18    program     static L:\solarpic_rewrite\swm8722\solar18f8722\power.c
                 __pa_134   0x0070b6    program     static L:\solarpic_rewrite\swm8722\solar18f8722\swm8722.c
                 __pa_135   0x00ca22    program     static L:\solarpic_rewrite\swm8722\solar18f8722\power.c
                 __pa_135   0x0070c6    program     static L:\solarpic_rewrite\swm8722\solar18f8722\swm8722.c
                 __pa_136   0x00ca2e    program     static L:\solarpic_rewrite\swm8722\solar18f8722\power.c
                 __pa_136   0x0070ce    program     static L:\solarpic_rewrite\swm8722\solar18f8722\swm8722.c
                 __pa_137   0x00ca34    program     static L:\solarpic_rewrite\swm8722\solar18f8722\power.c
                 __pa_137   0x0070d6    program     static L:\solarpic_rewrite\swm8722\solar18f8722\swm8722.c
                 __pa_138   0x00ca42    program     static L:\solarpic_rewrite\swm8722\solar18f8722\power.c
                 __pa_138   0x0070e0    program     static L:\solarpic_rewrite\swm8722\solar18f8722\swm8722.c
                 __pa_139   0x00ca50    program     static L:\solarpic_rewrite\swm8722\solar18f8722\power.c
                 __pa_139   0x0070f4    program     static L:\solarpic_rewrite\swm8722\solar18f8722\swm8722.c
                  __pa_14   0x01676a    program     static L:\solarpic_rewrite\swm8722\solar18f8722\sdspi.c
                  __pa_14   0x0184a2    program     static E:\c18v3.46\pic18-lt\cxx-framework\src\extended\stdclib\vfprintf.c
                  __pa_14   0x018b06    program     static E:\c18v3.46\pic18-lt\cxx-framework\src\extended\stdclib\pow.c
                  __pa_14   0x006a1c    program     static L:\solarpic_rewrite\swm8722\solar18f8722\swm8722.c
                  __pa_14   0x017adc    program     static L:\solarpic_rewrite\swm8722\solar18f8722\timelib.c
                  __pa_14   0x00c3ce    program     static L:\solarpic_rewrite\swm8722\solar18f8722\power.c
                 __pa_140   0x00ca64    program     static L:\solarpic_rewrite\swm8722\solar18f8722\power.c
                 __pa_140   0x0070fa    program     static L:\solarpic_rewrite\swm8722\solar18f8722\swm8722.c
                 __pa_141   0x00710a    program     static L:\solarpic_rewrite\swm8722\solar18f8722\swm8722.c
                 __pa_141   0x00ca6e    program     static L:\solarpic_rewrite\swm8722\solar18f8722\power.c
                 __pa_142   0x00711c    program     static L:\solarpic_rewrite\swm8722\solar18f8722\swm8722.c
                 __pa_142   0x00ca7a    program     static L:\solarpic_rewrite\swm8722\solar18f8722\power.c
                 __pa_143   0x00712c    program     static L:\solarpic_rewrite\swm8722\solar18f8722\swm8722.c
                 __pa_143   0x00ca88    program     static L:\solarpic_rewrite\swm8722\solar18f8722\power.c
                 __pa_144   0x00713e    program     static L:\solarpic_rewrite\swm8722\solar18f8722\swm8722.c
                 __pa_144   0x00ca90    program     static L:\solarpic_rewrite\swm8722\solar18f8722\power.c
                 __pa_145   0x007150    program     static L:\solarpic_rewrite\swm8722\solar18f8722\swm8722.c
                 __pa_145   0x00ca9a    program     static L:\solarpic_rewrite\swm8722\solar18f8722\power.c
                 __pa_146   0x00715c    program     static L:\solarpic_rewrite\swm8722\solar18f8722\swm8722.c
                 __pa_146   0x00caa4    program     static L:\solarpic_rewrite\swm8722\solar18f8722\power.c
                 __pa_147   0x00716e    program     static L:\solarpic_rewrite\swm8722\solar18f8722\swm8722.c
                 __pa_147   0x00caaa    program     static L:\solarpic_rewrite\swm8722\solar18f8722\power.c
                 __pa_148   0x007178    program     static L:\solarpic_rewrite\swm8722\solar18f8722\swm8722.c
                 __pa_148   0x00cab0    program     static L:\solarpic_rewrite\swm8722\solar18f8722\power.c
                 __pa_149   0x007184    program     static L:\solarpic_rewrite\swm8722\solar18f8722\swm8722.c
                 __pa_149   0x00caba    program     static L:\solarpic_rewrite\swm8722\solar18f8722\power.c
                  __pa_15   0x00c3dc    program     static L:\solarpic_rewrite\swm8722\solar18f8722\power.c
                  __pa_15   0x0184ac    program     static E:\c18v3.46\pic18-lt\cxx-framework\src\extended\stdclib\vfprintf.c
                  __pa_15   0x018b18    program     static E:\c18v3.46\pic18-lt\cxx-framework\src\extended\stdclib\pow.c
                  __pa_15   0x017ae8    program     static L:\solarpic_rewrite\swm8722\solar18f8722\timelib.c
                  __pa_15   0x006a26    program     static L:\solarpic_rewrite\swm8722\solar18f8722\swm8722.c
                  __pa_15   0x016776    program     static L:\solarpic_rewrite\swm8722\solar18f8722\sdspi.c
                 __pa_150   0x00cac4    program     static L:\solarpic_rewrite\swm8722\solar18f8722\power.c
                 __pa_150   0x00718e    program     static L:\solarpic_rewrite\swm8722\solar18f8722\swm8722.c
                 __pa_151   0x00caca    program     static L:\solarpic_rewrite\swm8722\solar18f8722\power.c
                 __pa_151   0x007196    program     static L:\solarpic_rewrite\swm8722\solar18f8722\swm8722.c
                 __pa_152   0x00cad0    program     static L:\solarpic_rewrite\swm8722\solar18f8722\power.c
                 __pa_152   0x0071a0    program     static L:\solarpic_rewrite\swm8722\solar18f8722\swm8722.c
                 __pa_153   0x00cade    program     static L:\solarpic_rewrite\swm8722\solar18f8722\power.c
                 __pa_153   0x0071ae    program     static L:\solarpic_rewrite\swm8722\solar18f8722\swm8722.c
                 __pa_154   0x00caec    program     static L:\solarpic_rewrite\swm8722\solar18f8722\power.c
                 __pa_154   0x0071bc    program     static L:\solarpic_rewrite\swm8722\solar18f8722\swm8722.c
                 __pa_155   0x00caf8    program     static L:\solarpic_rewrite\swm8722\solar18f8722\power.c
                 __pa_155   0x0071c2    program     static L:\solarpic_rewrite\swm8722\solar18f8722\swm8722.c
                 __pa_156   0x00cb02    program     static L:\solarpic_rewrite\swm8722\solar18f8722\power.c
                 __pa_156   0x0071ca    program     static L:\solarpic_rewrite\swm8722\solar18f8722\swm8722.c
                 __pa_157   0x0071d0    program     static L:\solarpic_rewrite\swm8722\solar18f8722\swm8722.c
                 __pa_158   0x0071dc    program     static L:\solarpic_rewrite\swm8722\solar18f8722\swm8722.c
                 __pa_159   0x0071e6    program     static L:\solarpic_rewrite\swm8722\solar18f8722\swm8722.c
                  __pa_16   0x006a2c    program     static L:\solarpic_rewrite\swm8722\solar18f8722\swm8722.c
                  __pa_16   0x00c3ec    program     static L:\solarpic_rewrite\swm8722\solar18f8722\power.c
                  __pa_16   0x018b2a    program     static E:\c18v3.46\pic18-lt\cxx-framework\src\extended\stdclib\pow.c
                  __pa_16   0x0184b2    program     static E:\c18v3.46\pic18-lt\cxx-framework\src\extended\stdclib\vfprintf.c
                  __pa_16   0x017b06    program     static L:\solarpic_rewrite\swm8722\solar18f8722\timelib.c
                  __pa_16   0x016786    program     static L:\solarpic_rewrite\swm8722\solar18f8722\sdspi.c
                 __pa_160   0x0071f4    program     static L:\solarpic_rewrite\swm8722\solar18f8722\swm8722.c
                 __pa_161   0x0071fc    program     static L:\solarpic_rewrite\swm8722\solar18f8722\swm8722.c
                 __pa_162   0x007208    program     static L:\solarpic_rewrite\swm8722\solar18f8722\swm8722.c
                 __pa_163   0x007212    program     static L:\solarpic_rewrite\swm8722\solar18f8722\swm8722.c
                 __pa_164   0x00721c    program     static L:\solarpic_rewrite\swm8722\solar18f8722\swm8722.c
                 __pa_165   0x007226    program     static L:\solarpic_rewrite\swm8722\solar18f8722\swm8722.c
                 __pa_166   0x007230    program     static L:\solarpic_rewrite\swm8722\solar18f8722\swm8722.c
                 __pa_167   0x007234    program     static L:\solarpic_rewrite\swm8722\solar18f8722\swm8722.c
                 __pa_168   0x00723c    program     static L:\solarpic_rewrite\swm8722\solar18f8722\swm8722.c
                 __pa_169   0x007244    program     static L:\solarpic_rewrite\swm8722\solar18f8722\swm8722.c
                  __pa_17   0x017b10    program     static L:\solarpic_rewrite\swm8722\solar18f8722\timelib.c
                  __pa_17   0x018b3c    program     static E:\c18v3.46\pic18-lt\cxx-framework\src\extended\stdclib\pow.c
                  __pa_17   0x00c3fe    program     static L:\solarpic_rewrite\swm8722\solar18f8722\power.c
                  __pa_17   0x006a34    program     static L:\solarpic_rewrite\swm8722\solar18f8722\swm8722.c
                  __pa_17   0x0184c2    program     static E:\c18v3.46\pic18-lt\cxx-framework\src\extended\stdclib\vfprintf.c
                  __pa_17   0x016794    program     static L:\solarpic_rewrite\swm8722\solar18f8722\sdspi.c
                 __pa_170   0x00724c    program     static L:\solarpic_rewrite\swm8722\solar18f8722\swm8722.c
                 __pa_171   0x00725a    program     static L:\solarpic_rewrite\swm8722\solar18f8722\swm8722.c
                 __pa_172   0x007276    program     static L:\solarpic_rewrite\swm8722\solar18f8722\swm8722.c
                 __pa_173   0x00727c    program     static L:\solarpic_rewrite\swm8722\solar18f8722\swm8722.c
                 __pa_174   0x00728c    program     static L:\solarpic_rewrite\swm8722\solar18f8722\swm8722.c
                 __pa_175   0x0072a0    program     static L:\solarpic_rewrite\swm8722\solar18f8722\swm8722.c
                 __pa_176   0x0072b2    program     static L:\solarpic_rewrite\swm8722\solar18f8722\swm8722.c
                 __pa_177   0x0072ba    program     static L:\solarpic_rewrite\swm8722\solar18f8722\swm8722.c
                 __pa_178   0x0072c4    program     static L:\solarpic_rewrite\swm8722\solar18f8722\swm8722.c
                 __pa_179   0x0072d0    program     static L:\solarpic_rewrite\swm8722\solar18f8722\swm8722.c
                  __pa_18   0x018b48    program     static E:\c18v3.46\pic18-lt\cxx-framework\src\extended\stdclib\pow.c
                  __pa_18   0x0184ce    program     static E:\c18v3.46\pic18-lt\cxx-framework\src\extended\stdclib\vfprintf.c
                  __pa_18   0x00c40c    program     static L:\solarpic_rewrite\swm8722\solar18f8722\power.c
                  __pa_18   0x006a3a    program     static L:\solarpic_rewrite\swm8722\solar18f8722\swm8722.c
                  __pa_18   0x017b1a    program     static L:\solarpic_rewrite\swm8722\solar18f8722\timelib.c
                  __pa_18   0x0167a2    program     static L:\solarpic_rewrite\swm8722\solar18f8722\sdspi.c
                 __pa_180   0x0072da    program     static L:\solarpic_rewrite\swm8722\solar18f8722\swm8722.c
                 __pa_181   0x0072e6    program     static L:\solarpic_rewrite\swm8722\solar18f8722\swm8722.c
                 __pa_182   0x0072f6    program     static L:\solarpic_rewrite\swm8722\solar18f8722\swm8722.c
                 __pa_183   0x007300    program     static L:\solarpic_rewrite\swm8722\solar18f8722\swm8722.c
                 __pa_184   0x007308    program     static L:\solarpic_rewrite\swm8722\solar18f8722\swm8722.c
                 __pa_185   0x007310    program     static L:\solarpic_rewrite\swm8722\solar18f8722\swm8722.c
                 __pa_186   0x007318    program     static L:\solarpic_rewrite\swm8722\solar18f8722\swm8722.c
                 __pa_187   0x007322    program     static L:\solarpic_rewrite\swm8722\solar18f8722\swm8722.c
                 __pa_188   0x007330    program     static L:\solarpic_rewrite\swm8722\solar18f8722\swm8722.c
                 __pa_189   0x00733c    program     static L:\solarpic_rewrite\swm8722\solar18f8722\swm8722.c
                  __pa_19   0x017b2c    program     static L:\solarpic_rewrite\swm8722\solar18f8722\timelib.c
                  __pa_19   0x0167ac    program     static L:\solarpic_rewrite\swm8722\solar18f8722\sdspi.c
                  __pa_19   0x006a4a    program     static L:\solarpic_rewrite\swm8722\solar18f8722\swm8722.c
                  __pa_19   0x018b5e    program     static E:\c18v3.46\pic18-lt\cxx-framework\src\extended\stdclib\pow.c
                  __pa_19   0x0184dc    program     static E:\c18v3.46\pic18-lt\cxx-framework\src\extended\stdclib\vfprintf.c
                  __pa_19   0x00c418    program     static L:\solarpic_rewrite\swm8722\solar18f8722\power.c
                 __pa_190   0x007342    program     static L:\solarpic_rewrite\swm8722\solar18f8722\swm8722.c
                 __pa_191   0x00734c    program     static L:\solarpic_rewrite\swm8722\solar18f8722\swm8722.c
                 __pa_192   0x007356    program     static L:\solarpic_rewrite\swm8722\solar18f8722\swm8722.c
                 __pa_193   0x007362    program     static L:\solarpic_rewrite\swm8722\solar18f8722\swm8722.c
                 __pa_194   0x00736c    program     static L:\solarpic_rewrite\swm8722\solar18f8722\swm8722.c
                 __pa_195   0x007372    program     static L:\solarpic_rewrite\swm8722\solar18f8722\swm8722.c
                 __pa_196   0x00737c    program     static L:\solarpic_rewrite\swm8722\solar18f8722\swm8722.c
                 __pa_197   0x007386    program     static L:\solarpic_rewrite\swm8722\solar18f8722\swm8722.c
                 __pa_198   0x00738c    program     static L:\solarpic_rewrite\swm8722\solar18f8722\swm8722.c
                 __pa_199   0x007392    program     static L:\solarpic_rewrite\swm8722\solar18f8722\swm8722.c
                   __pa_2   0x01900c    program     static L:\solarpic_rewrite\swm8722\solar18f8722\model.c
                   __pa_2   0x01a5a8    program     static E:\c18v3.46\pic18-lt\cxx-framework\src\extended\stdclib\PackMath.c
                   __pa_2   0x019324    program     static E:\c18v3.46\pic18-lt\cxx-framework\src\extended\stdclib\exp.c
                   __pa_2   0x019dde    program     static L:\solarpic_rewrite\swm8722\solar18f8722\crit.c
                   __pa_2   0x0183d8    program     static E:\c18v3.46\pic18-lt\cxx-framework\src\extended\stdclib\vfprintf.c
                   __pa_2   0x0198e8    program     static E:\c18v3.46\pic18-lt\cxx-framework\src\extended\stdclib\log.c
                   __pa_2   0x0166d6    program     static L:\solarpic_rewrite\swm8722\solar18f8722\sdspi.c
                   __pa_2   0x018a46    program     static E:\c18v3.46\pic18-lt\cxx-framework\src\extended\stdclib\pow.c
                   __pa_2   0x0179aa    program     static L:\solarpic_rewrite\swm8722\solar18f8722\timelib.c
                   __pa_2   0x0144ac    program     static L:\solarpic_rewrite\swm8722\solar18f8722\daq.c
                   __pa_2   0x00c2fe    program     static L:\solarpic_rewrite\swm8722\solar18f8722\power.c
                   __pa_2   0x00693c    program     static L:\solarpic_rewrite\swm8722\solar18f8722\swm8722.c
                  __pa_20   0x017b36    program     static L:\solarpic_rewrite\swm8722\solar18f8722\timelib.c
                  __pa_20   0x0184e6    program     static E:\c18v3.46\pic18-lt\cxx-framework\src\extended\stdclib\vfprintf.c
                  __pa_20   0x00c43a    program     static L:\solarpic_rewrite\swm8722\solar18f8722\power.c
                  __pa_20   0x006a56    program     static L:\solarpic_rewrite\swm8722\solar18f8722\swm8722.c
                  __pa_20   0x0167b4    program     static L:\solarpic_rewrite\swm8722\solar18f8722\sdspi.c
                  __pa_20   0x018b68    program     static E:\c18v3.46\pic18-lt\cxx-framework\src\extended\stdclib\pow.c
                 __pa_200   0x007398    program     static L:\solarpic_rewrite\swm8722\solar18f8722\swm8722.c
                 __pa_201   0x00739e    program     static L:\solarpic_rewrite\swm8722\solar18f8722\swm8722.c
                 __pa_202   0x0073a6    program     static L:\solarpic_rewrite\swm8722\solar18f8722\swm8722.c
                 __pa_203   0x0073ae    program     static L:\solarpic_rewrite\swm8722\solar18f8722\swm8722.c
                 __pa_204   0x0073b6    program     static L:\solarpic_rewrite\swm8722\solar18f8722\swm8722.c
                 __pa_205   0x0073be    program     static L:\solarpic_rewrite\swm8722\solar18f8722\swm8722.c
                 __pa_206   0x0073c6    program     static L:\solarpic_rewrite\swm8722\solar18f8722\swm8722.c
                 __pa_207   0x0073cc    program     static L:\solarpic_rewrite\swm8722\solar18f8722\swm8722.c
                  __pa_21   0x0167c2    program     static L:\solarpic_rewrite\swm8722\solar18f8722\sdspi.c
                  __pa_21   0x0184f0    program     static E:\c18v3.46\pic18-lt\cxx-framework\src\extended\stdclib\vfprintf.c
                  __pa_21   0x018b7c    program     static E:\c18v3.46\pic18-lt\cxx-framework\src\extended\stdclib\pow.c
                  __pa_21   0x017b40    program     static L:\solarpic_rewrite\swm8722\solar18f8722\timelib.c
                  __pa_21   0x006a5c    program     static L:\solarpic_rewrite\swm8722\solar18f8722\swm8722.c
                  __pa_21   0x00c44e    program     static L:\solarpic_rewrite\swm8722\solar18f8722\power.c
                  __pa_22   0x006a64    program     static L:\solarpic_rewrite\swm8722\solar18f8722\swm8722.c
                  __pa_22   0x0167ce    program     static L:\solarpic_rewrite\swm8722\solar18f8722\sdspi.c
                  __pa_22   0x018b86    program     static E:\c18v3.46\pic18-lt\cxx-framework\src\extended\stdclib\pow.c
                  __pa_22   0x0184fa    program     static E:\c18v3.46\pic18-lt\cxx-framework\src\extended\stdclib\vfprintf.c
                  __pa_22   0x017b50    program     static L:\solarpic_rewrite\swm8722\solar18f8722\timelib.c
                  __pa_22   0x00c458    program     static L:\solarpic_rewrite\swm8722\solar18f8722\power.c
                  __pa_23   0x017b5c    program     static L:\solarpic_rewrite\swm8722\solar18f8722\timelib.c
                  __pa_23   0x00c462    program     static L:\solarpic_rewrite\swm8722\solar18f8722\power.c
                  __pa_23   0x006a70    program     static L:\solarpic_rewrite\swm8722\solar18f8722\swm8722.c
                  __pa_23   0x0167d6    program     static L:\solarpic_rewrite\swm8722\solar18f8722\sdspi.c
                  __pa_23   0x018b90    program     static E:\c18v3.46\pic18-lt\cxx-framework\src\extended\stdclib\pow.c
                  __pa_23   0x018508    program     static E:\c18v3.46\pic18-lt\cxx-framework\src\extended\stdclib\vfprintf.c
                  __pa_24   0x006a76    program     static L:\solarpic_rewrite\swm8722\solar18f8722\swm8722.c
                  __pa_24   0x00c472    program     static L:\solarpic_rewrite\swm8722\solar18f8722\power.c
                  __pa_24   0x018b98    program     static E:\c18v3.46\pic18-lt\cxx-framework\src\extended\stdclib\pow.c
                  __pa_24   0x017b62    program     static L:\solarpic_rewrite\swm8722\solar18f8722\timelib.c
                  __pa_25   0x00c47c    program     static L:\solarpic_rewrite\swm8722\solar18f8722\power.c
                  __pa_25   0x017b74    program     static L:\solarpic_rewrite\swm8722\solar18f8722\timelib.c
                  __pa_25   0x006a7c    program     static L:\solarpic_rewrite\swm8722\solar18f8722\swm8722.c
                  __pa_26   0x00c49a    program     static L:\solarpic_rewrite\swm8722\solar18f8722\power.c
                  __pa_26   0x017b7c    program     static L:\solarpic_rewrite\swm8722\solar18f8722\timelib.c
                  __pa_26   0x006a8a    program     static L:\solarpic_rewrite\swm8722\solar18f8722\swm8722.c
                  __pa_27   0x00c4a6    program     static L:\solarpic_rewrite\swm8722\solar18f8722\power.c
                  __pa_27   0x017b8e    program     static L:\solarpic_rewrite\swm8722\solar18f8722\timelib.c
                  __pa_27   0x006a9e    program     static L:\solarpic_rewrite\swm8722\solar18f8722\swm8722.c
                  __pa_28   0x00c4ae    program     static L:\solarpic_rewrite\swm8722\solar18f8722\power.c
                  __pa_28   0x017b9a    program     static L:\solarpic_rewrite\swm8722\solar18f8722\timelib.c
                  __pa_28   0x006ab2    program     static L:\solarpic_rewrite\swm8722\solar18f8722\swm8722.c
                  __pa_29   0x006ac8    program     static L:\solarpic_rewrite\swm8722\solar18f8722\swm8722.c
                  __pa_29   0x00c4ba    program     static L:\solarpic_rewrite\swm8722\solar18f8722\power.c
                  __pa_29   0x017ba4    program     static L:\solarpic_rewrite\swm8722\solar18f8722\timelib.c
                   __pa_3   0x01a5b2    program     static E:\c18v3.46\pic18-lt\cxx-framework\src\extended\stdclib\PackMath.c
                   __pa_3   0x0144b6    program     static L:\solarpic_rewrite\swm8722\solar18f8722\daq.c
                   __pa_3   0x0166e0    program     static L:\solarpic_rewrite\swm8722\solar18f8722\sdspi.c
                   __pa_3   0x00c304    program     static L:\solarpic_rewrite\swm8722\solar18f8722\power.c
                   __pa_3   0x01901a    program     static L:\solarpic_rewrite\swm8722\solar18f8722\model.c
                   __pa_3   0x018a58    program     static E:\c18v3.46\pic18-lt\cxx-framework\src\extended\stdclib\pow.c
                   __pa_3   0x0183e4    program     static E:\c18v3.46\pic18-lt\cxx-framework\src\extended\stdclib\vfprintf.c
                   __pa_3   0x0198fa    program     static E:\c18v3.46\pic18-lt\cxx-framework\src\extended\stdclib\log.c
                   __pa_3   0x006944    program     static L:\solarpic_rewrite\swm8722\solar18f8722\swm8722.c
                   __pa_3   0x0179b2    program     static L:\solarpic_rewrite\swm8722\solar18f8722\timelib.c
                   __pa_3   0x019336    program     static E:\c18v3.46\pic18-lt\cxx-framework\src\extended\stdclib\exp.c
                  __pa_30   0x017bae    program     static L:\solarpic_rewrite\swm8722\solar18f8722\timelib.c
                  __pa_30   0x00c4c4    program     static L:\solarpic_rewrite\swm8722\solar18f8722\power.c
                  __pa_30   0x006ada    program     static L:\solarpic_rewrite\swm8722\solar18f8722\swm8722.c
                  __pa_31   0x006aec    program     static L:\solarpic_rewrite\swm8722\solar18f8722\swm8722.c
                  __pa_31   0x00c4d2    program     static L:\solarpic_rewrite\swm8722\solar18f8722\power.c
                  __pa_31   0x017bb8    program     static L:\solarpic_rewrite\swm8722\solar18f8722\timelib.c
                  __pa_32   0x006b1e    program     static L:\solarpic_rewrite\swm8722\solar18f8722\swm8722.c
                  __pa_32   0x017bbe    program     static L:\solarpic_rewrite\swm8722\solar18f8722\timelib.c
                  __pa_32   0x00c4dc    program     static L:\solarpic_rewrite\swm8722\solar18f8722\power.c
                  __pa_33   0x006b50    program     static L:\solarpic_rewrite\swm8722\solar18f8722\swm8722.c
                  __pa_33   0x00c4e6    program     static L:\solarpic_rewrite\swm8722\solar18f8722\power.c
                  __pa_33   0x017bc8    program     static L:\solarpic_rewrite\swm8722\solar18f8722\timelib.c
                  __pa_34   0x017bf0    program     static L:\solarpic_rewrite\swm8722\solar18f8722\timelib.c
                  __pa_34   0x006b6a    program     static L:\solarpic_rewrite\swm8722\solar18f8722\swm8722.c
                  __pa_34   0x00c4ec    program     static L:\solarpic_rewrite\swm8722\solar18f8722\power.c
                  __pa_35   0x00c4fa    program     static L:\solarpic_rewrite\swm8722\solar18f8722\power.c
                  __pa_35   0x006b72    program     static L:\solarpic_rewrite\swm8722\solar18f8722\swm8722.c
                  __pa_35   0x017c02    program     static L:\solarpic_rewrite\swm8722\solar18f8722\timelib.c
                  __pa_36   0x00c50c    program     static L:\solarpic_rewrite\swm8722\solar18f8722\power.c
                  __pa_36   0x006b80    program     static L:\solarpic_rewrite\swm8722\solar18f8722\swm8722.c
                  __pa_36   0x017c0c    program     static L:\solarpic_rewrite\swm8722\solar18f8722\timelib.c
                  __pa_37   0x017c16    program     static L:\solarpic_rewrite\swm8722\solar18f8722\timelib.c
                  __pa_37   0x006b8c    program     static L:\solarpic_rewrite\swm8722\solar18f8722\swm8722.c
                  __pa_37   0x00c51a    program     static L:\solarpic_rewrite\swm8722\solar18f8722\power.c
                  __pa_38   0x006b9a    program     static L:\solarpic_rewrite\swm8722\solar18f8722\swm8722.c
                  __pa_38   0x00c526    program     static L:\solarpic_rewrite\swm8722\solar18f8722\power.c
                  __pa_38   0x017c1e    program     static L:\solarpic_rewrite\swm8722\solar18f8722\timelib.c
                  __pa_39   0x006ba4    program     static L:\solarpic_rewrite\swm8722\solar18f8722\swm8722.c
                  __pa_39   0x017c2e    program     static L:\solarpic_rewrite\swm8722\solar18f8722\timelib.c
                  __pa_39   0x00c52e    program     static L:\solarpic_rewrite\swm8722\solar18f8722\power.c
                   __pa_4   0x0183f8    program     static E:\c18v3.46\pic18-lt\cxx-framework\src\extended\stdclib\vfprintf.c
                   __pa_4   0x019910    program     static E:\c18v3.46\pic18-lt\cxx-framework\src\extended\stdclib\log.c
                   __pa_4   0x01a5ba    program     static E:\c18v3.46\pic18-lt\cxx-framework\src\extended\stdclib\PackMath.c
                   __pa_4   0x01902a    program     static L:\solarpic_rewrite\swm8722\solar18f8722\model.c
                   __pa_4   0x018a6a    program     static E:\c18v3.46\pic18-lt\cxx-framework\src\extended\stdclib\pow.c
                   __pa_4   0x00c318    program     static L:\solarpic_rewrite\swm8722\solar18f8722\power.c
                   __pa_4   0x0166f4    program     static L:\solarpic_rewrite\swm8722\solar18f8722\sdspi.c
                   __pa_4   0x0144c6    program     static L:\solarpic_rewrite\swm8722\solar18f8722\daq.c
                   __pa_4   0x006954    program     static L:\solarpic_rewrite\swm8722\solar18f8722\swm8722.c
                   __pa_4   0x0179ea    program     static L:\solarpic_rewrite\swm8722\solar18f8722\timelib.c
                   __pa_4   0x019348    program     static E:\c18v3.46\pic18-lt\cxx-framework\src\extended\stdclib\exp.c
                  __pa_40   0x00c544    program     static L:\solarpic_rewrite\swm8722\solar18f8722\power.c
                  __pa_40   0x006bac    program     static L:\solarpic_rewrite\swm8722\solar18f8722\swm8722.c
                  __pa_40   0x017c40    program     static L:\solarpic_rewrite\swm8722\solar18f8722\timelib.c
                  __pa_41   0x017c4e    program     static L:\solarpic_rewrite\swm8722\solar18f8722\timelib.c
                  __pa_41   0x006bd0    program     static L:\solarpic_rewrite\swm8722\solar18f8722\swm8722.c
                  __pa_41   0x00c550    program     static L:\solarpic_rewrite\swm8722\solar18f8722\power.c
                  __pa_42   0x006bda    program     static L:\solarpic_rewrite\swm8722\solar18f8722\swm8722.c
                  __pa_42   0x017c54    program     static L:\solarpic_rewrite\swm8722\solar18f8722\timelib.c
                  __pa_42   0x00c55a    program     static L:\solarpic_rewrite\swm8722\solar18f8722\power.c
                  __pa_43   0x017c66    program     static L:\solarpic_rewrite\swm8722\solar18f8722\timelib.c
                  __pa_43   0x006be4    program     static L:\solarpic_rewrite\swm8722\solar18f8722\swm8722.c
                  __pa_43   0x00c564    program     static L:\solarpic_rewrite\swm8722\solar18f8722\power.c
                  __pa_44   0x017c72    program     static L:\solarpic_rewrite\swm8722\solar18f8722\timelib.c
                  __pa_44   0x00c57c    program     static L:\solarpic_rewrite\swm8722\solar18f8722\power.c
                  __pa_44   0x006bec    program     static L:\solarpic_rewrite\swm8722\solar18f8722\swm8722.c
                  __pa_45   0x00c58e    program     static L:\solarpic_rewrite\swm8722\solar18f8722\power.c
                  __pa_45   0x017c7e    program     static L:\solarpic_rewrite\swm8722\solar18f8722\timelib.c
                  __pa_45   0x006bf4    program     static L:\solarpic_rewrite\swm8722\solar18f8722\swm8722.c
                  __pa_46   0x00c5a0    program     static L:\solarpic_rewrite\swm8722\solar18f8722\power.c
                  __pa_46   0x006c06    program     static L:\solarpic_rewrite\swm8722\solar18f8722\swm8722.c
                  __pa_46   0x017c86    program     static L:\solarpic_rewrite\swm8722\solar18f8722\timelib.c
                  __pa_47   0x017c94    program     static L:\solarpic_rewrite\swm8722\solar18f8722\timelib.c
                  __pa_47   0x006c18    program     static L:\solarpic_rewrite\swm8722\solar18f8722\swm8722.c
                  __pa_47   0x00c5b6    program     static L:\solarpic_rewrite\swm8722\solar18f8722\power.c
                  __pa_48   0x017ca4    program     static L:\solarpic_rewrite\swm8722\solar18f8722\timelib.c
                  __pa_48   0x006c20    program     static L:\solarpic_rewrite\swm8722\solar18f8722\swm8722.c
                  __pa_48   0x00c5c4    program     static L:\solarpic_rewrite\swm8722\solar18f8722\power.c
                  __pa_49   0x017cac    program     static L:\solarpic_rewrite\swm8722\solar18f8722\timelib.c
                  __pa_49   0x006c2c    program     static L:\solarpic_rewrite\swm8722\solar18f8722\swm8722.c
                  __pa_49   0x00c5d2    program     static L:\solarpic_rewrite\swm8722\solar18f8722\power.c
                   __pa_5   0x0166fc    program     static L:\solarpic_rewrite\swm8722\solar18f8722\sdspi.c
                   __pa_5   0x0179fe    program     static L:\solarpic_rewrite\swm8722\solar18f8722\timelib.c
                   __pa_5   0x00c32c    program     static L:\solarpic_rewrite\swm8722\solar18f8722\power.c
                   __pa_5   0x019362    program     static E:\c18v3.46\pic18-lt\cxx-framework\src\extended\stdclib\exp.c
                   __pa_5   0x00696a    program     static L:\solarpic_rewrite\swm8722\solar18f8722\swm8722.c
                   __pa_5   0x0144da    program     static L:\solarpic_rewrite\swm8722\solar18f8722\daq.c
                   __pa_5   0x01a5c2    program     static E:\c18v3.46\pic18-lt\cxx-framework\src\extended\stdclib\PackMath.c
                   __pa_5   0x018a7c    program     static E:\c18v3.46\pic18-lt\cxx-framework\src\extended\stdclib\pow.c
                   __pa_5   0x019922    program     static E:\c18v3.46\pic18-lt\cxx-framework\src\extended\stdclib\log.c
                   __pa_5   0x019032    program     static L:\solarpic_rewrite\swm8722\solar18f8722\model.c
                   __pa_5   0x01840a    program     static E:\c18v3.46\pic18-lt\cxx-framework\src\extended\stdclib\vfprintf.c
                  __pa_50   0x006c3e    program     static L:\solarpic_rewrite\swm8722\solar18f8722\swm8722.c
                  __pa_50   0x00c5da    program     static L:\solarpic_rewrite\swm8722\solar18f8722\power.c
                  __pa_50   0x017cba    program     static L:\solarpic_rewrite\swm8722\solar18f8722\timelib.c
                  __pa_51   0x00c5ec    program     static L:\solarpic_rewrite\swm8722\solar18f8722\power.c
                  __pa_51   0x017cc4    program     static L:\solarpic_rewrite\swm8722\solar18f8722\timelib.c
                  __pa_51   0x006c50    program     static L:\solarpic_rewrite\swm8722\solar18f8722\swm8722.c
                  __pa_52   0x00c5fe    program     static L:\solarpic_rewrite\swm8722\solar18f8722\power.c
                  __pa_52   0x017cd0    program     static L:\solarpic_rewrite\swm8722\solar18f8722\timelib.c
                  __pa_52   0x006c62    program     static L:\solarpic_rewrite\swm8722\solar18f8722\swm8722.c
                  __pa_53   0x00c610    program     static L:\solarpic_rewrite\swm8722\solar18f8722\power.c
                  __pa_53   0x017cda    program     static L:\solarpic_rewrite\swm8722\solar18f8722\timelib.c
                  __pa_53   0x006c74    program     static L:\solarpic_rewrite\swm8722\solar18f8722\swm8722.c
                  __pa_54   0x00c622    program     static L:\solarpic_rewrite\swm8722\solar18f8722\power.c
                  __pa_54   0x017ce2    program     static L:\solarpic_rewrite\swm8722\solar18f8722\timelib.c
                  __pa_54   0x006c82    program     static L:\solarpic_rewrite\swm8722\solar18f8722\swm8722.c
                  __pa_55   0x017cee    program     static L:\solarpic_rewrite\swm8722\solar18f8722\timelib.c
                  __pa_55   0x00c634    program     static L:\solarpic_rewrite\swm8722\solar18f8722\power.c
                  __pa_55   0x006c94    program     static L:\solarpic_rewrite\swm8722\solar18f8722\swm8722.c
                  __pa_56   0x006c9a    program     static L:\solarpic_rewrite\swm8722\solar18f8722\swm8722.c
                  __pa_56   0x00c646    program     static L:\solarpic_rewrite\swm8722\solar18f8722\power.c
                  __pa_57   0x006caa    program     static L:\solarpic_rewrite\swm8722\solar18f8722\swm8722.c
                  __pa_57   0x00c652    program     static L:\solarpic_rewrite\swm8722\solar18f8722\power.c
                  __pa_58   0x006cb6    program     static L:\solarpic_rewrite\swm8722\solar18f8722\swm8722.c
                  __pa_58   0x00c65e    program     static L:\solarpic_rewrite\swm8722\solar18f8722\power.c
                  __pa_59   0x006cbc    program     static L:\solarpic_rewrite\swm8722\solar18f8722\swm8722.c
                  __pa_59   0x00c668    program     static L:\solarpic_rewrite\swm8722\solar18f8722\power.c
                   __pa_6   0x00c340    program     static L:\solarpic_rewrite\swm8722\solar18f8722\power.c
                   __pa_6   0x019042    program     static L:\solarpic_rewrite\swm8722\solar18f8722\model.c
                   __pa_6   0x019934    program     static E:\c18v3.46\pic18-lt\cxx-framework\src\extended\stdclib\log.c
                   __pa_6   0x01841a    program     static E:\c18v3.46\pic18-lt\cxx-framework\src\extended\stdclib\vfprintf.c
                   __pa_6   0x018a8a    program     static E:\c18v3.46\pic18-lt\cxx-framework\src\extended\stdclib\pow.c
                   __pa_6   0x0144e8    program     static L:\solarpic_rewrite\swm8722\solar18f8722\daq.c
                   __pa_6   0x00699e    program     static L:\solarpic_rewrite\swm8722\solar18f8722\swm8722.c
                   __pa_6   0x01936e    program     static E:\c18v3.46\pic18-lt\cxx-framework\src\extended\stdclib\exp.c
                   __pa_6   0x017a04    program     static L:\solarpic_rewrite\swm8722\solar18f8722\timelib.c
                   __pa_6   0x016704    program     static L:\solarpic_rewrite\swm8722\solar18f8722\sdspi.c
                   __pa_6   0x01a5ce    program     static E:\c18v3.46\pic18-lt\cxx-framework\src\extended\stdclib\PackMath.c
                  __pa_60   0x00c672    program     static L:\solarpic_rewrite\swm8722\solar18f8722\power.c
                  __pa_60   0x006cd4    program     static L:\solarpic_rewrite\swm8722\solar18f8722\swm8722.c
                  __pa_61   0x006ce8    program     static L:\solarpic_rewrite\swm8722\solar18f8722\swm8722.c
                  __pa_61   0x00c682    program     static L:\solarpic_rewrite\swm8722\solar18f8722\power.c
                  __pa_62   0x006cf6    program     static L:\solarpic_rewrite\swm8722\solar18f8722\swm8722.c
                  __pa_62   0x00c68e    program     static L:\solarpic_rewrite\swm8722\solar18f8722\power.c
                  __pa_63   0x006d0e    program     static L:\solarpic_rewrite\swm8722\solar18f8722\swm8722.c
                  __pa_63   0x00c694    program     static L:\solarpic_rewrite\swm8722\solar18f8722\power.c
                  __pa_64   0x00c69a    program     static L:\solarpic_rewrite\swm8722\solar18f8722\power.c
                  __pa_64   0x006d22    program     static L:\solarpic_rewrite\swm8722\solar18f8722\swm8722.c
                  __pa_65   0x006d36    program     static L:\solarpic_rewrite\swm8722\solar18f8722\swm8722.c
                  __pa_65   0x00c6a4    program     static L:\solarpic_rewrite\swm8722\solar18f8722\power.c
                  __pa_66   0x006d4a    program     static L:\solarpic_rewrite\swm8722\solar18f8722\swm8722.c
                  __pa_66   0x00c6ac    program     static L:\solarpic_rewrite\swm8722\solar18f8722\power.c
                  __pa_67   0x006d62    program     static L:\solarpic_rewrite\swm8722\solar18f8722\swm8722.c
                  __pa_67   0x00c6b4    program     static L:\solarpic_rewrite\swm8722\solar18f8722\power.c
                  __pa_68   0x00c6bc    program     static L:\solarpic_rewrite\swm8722\solar18f8722\power.c
                  __pa_68   0x006d68    program     static L:\solarpic_rewrite\swm8722\solar18f8722\swm8722.c
                  __pa_69   0x006d70    program     static L:\solarpic_rewrite\swm8722\solar18f8722\swm8722.c
                  __pa_69   0x00c6c4    program     static L:\solarpic_rewrite\swm8722\solar18f8722\power.c
                   __pa_7   0x018a9c    program     static E:\c18v3.46\pic18-lt\cxx-framework\src\extended\stdclib\pow.c
                   __pa_7   0x017a16    program     static L:\solarpic_rewrite\swm8722\solar18f8722\timelib.c
                   __pa_7   0x019382    program     static E:\c18v3.46\pic18-lt\cxx-framework\src\extended\stdclib\exp.c
                   __pa_7   0x019048    program     static L:\solarpic_rewrite\swm8722\solar18f8722\model.c
                   __pa_7   0x0069b2    program     static L:\solarpic_rewrite\swm8722\solar18f8722\swm8722.c
                   __pa_7   0x0144f6    program     static L:\solarpic_rewrite\swm8722\solar18f8722\daq.c
                   __pa_7   0x01993c    program     static E:\c18v3.46\pic18-lt\cxx-framework\src\extended\stdclib\log.c
                   __pa_7   0x01842c    program     static E:\c18v3.46\pic18-lt\cxx-framework\src\extended\stdclib\vfprintf.c
                   __pa_7   0x00c346    program     static L:\solarpic_rewrite\swm8722\solar18f8722\power.c
                   __pa_7   0x016712    program     static L:\solarpic_rewrite\swm8722\solar18f8722\sdspi.c
                  __pa_70   0x00c6cc    program     static L:\solarpic_rewrite\swm8722\solar18f8722\power.c
                  __pa_70   0x006d82    program     static L:\solarpic_rewrite\swm8722\solar18f8722\swm8722.c
                  __pa_71   0x006d8a    program     static L:\solarpic_rewrite\swm8722\solar18f8722\swm8722.c
                  __pa_71   0x00c6f2    program     static L:\solarpic_rewrite\swm8722\solar18f8722\power.c
                  __pa_72   0x00c6fa    program     static L:\solarpic_rewrite\swm8722\solar18f8722\power.c
                  __pa_72   0x006d98    program     static L:\solarpic_rewrite\swm8722\solar18f8722\swm8722.c
                  __pa_73   0x006d9e    program     static L:\solarpic_rewrite\swm8722\solar18f8722\swm8722.c
                  __pa_73   0x00c704    program     static L:\solarpic_rewrite\swm8722\solar18f8722\power.c
                  __pa_74   0x00c70a    program     static L:\solarpic_rewrite\swm8722\solar18f8722\power.c
                  __pa_74   0x006da8    program     static L:\solarpic_rewrite\swm8722\solar18f8722\swm8722.c
                  __pa_75   0x00c712    program     static L:\solarpic_rewrite\swm8722\solar18f8722\power.c
                  __pa_75   0x006db2    program     static L:\solarpic_rewrite\swm8722\solar18f8722\swm8722.c
                  __pa_76   0x006dbc    program     static L:\solarpic_rewrite\swm8722\solar18f8722\swm8722.c
                  __pa_76   0x00c71a    program     static L:\solarpic_rewrite\swm8722\solar18f8722\power.c
                  __pa_77   0x006dc4    program     static L:\solarpic_rewrite\swm8722\solar18f8722\swm8722.c
                  __pa_77   0x00c74a    program     static L:\solarpic_rewrite\swm8722\solar18f8722\power.c
                  __pa_78   0x006dd8    program     static L:\solarpic_rewrite\swm8722\solar18f8722\swm8722.c
                  __pa_78   0x00c766    program     static L:\solarpic_rewrite\swm8722\solar18f8722\power.c
                  __pa_79   0x006dec    program     static L:\solarpic_rewrite\swm8722\solar18f8722\swm8722.c
                  __pa_79   0x00c76e    program     static L:\solarpic_rewrite\swm8722\solar18f8722\power.c
                   __pa_8   0x00c384    program     static L:\solarpic_rewrite\swm8722\solar18f8722\power.c
                   __pa_8   0x019056    program     static L:\solarpic_rewrite\swm8722\solar18f8722\model.c
                   __pa_8   0x01671c    program     static L:\solarpic_rewrite\swm8722\solar18f8722\sdspi.c
                   __pa_8   0x019948    program     static E:\c18v3.46\pic18-lt\cxx-framework\src\extended\stdclib\log.c
                   __pa_8   0x014500    program     static L:\solarpic_rewrite\swm8722\solar18f8722\daq.c
                   __pa_8   0x0069bc    program     static L:\solarpic_rewrite\swm8722\solar18f8722\swm8722.c
                   __pa_8   0x018ab0    program     static E:\c18v3.46\pic18-lt\cxx-framework\src\extended\stdclib\pow.c
                   __pa_8   0x018438    program     static E:\c18v3.46\pic18-lt\cxx-framework\src\extended\stdclib\vfprintf.c
                   __pa_8   0x017a2c    program     static L:\solarpic_rewrite\swm8722\solar18f8722\timelib.c
                   __pa_8   0x019394    program     static E:\c18v3.46\pic18-lt\cxx-framework\src\extended\stdclib\exp.c
                  __pa_80   0x006e00    program     static L:\solarpic_rewrite\swm8722\solar18f8722\swm8722.c
                  __pa_80   0x00c778    program     static L:\solarpic_rewrite\swm8722\solar18f8722\power.c
                  __pa_81   0x006e14    program     static L:\solarpic_rewrite\swm8722\solar18f8722\swm8722.c
                  __pa_81   0x00c78c    program     static L:\solarpic_rewrite\swm8722\solar18f8722\power.c
                  __pa_82   0x00c79e    program     static L:\solarpic_rewrite\swm8722\solar18f8722\power.c
                  __pa_82   0x006e26    program     static L:\solarpic_rewrite\swm8722\solar18f8722\swm8722.c
                  __pa_83   0x00c7a8    program     static L:\solarpic_rewrite\swm8722\solar18f8722\power.c
                  __pa_83   0x006e38    program     static L:\solarpic_rewrite\swm8722\solar18f8722\swm8722.c
                  __pa_84   0x006e40    program     static L:\solarpic_rewrite\swm8722\solar18f8722\swm8722.c
                  __pa_84   0x00c7c2    program     static L:\solarpic_rewrite\swm8722\solar18f8722\power.c
                  __pa_85   0x00c7ca    program     static L:\solarpic_rewrite\swm8722\solar18f8722\power.c
                  __pa_85   0x006e4c    program     static L:\solarpic_rewrite\swm8722\solar18f8722\swm8722.c
                  __pa_86   0x00c7d8    program     static L:\solarpic_rewrite\swm8722\solar18f8722\power.c
                  __pa_86   0x006e5e    program     static L:\solarpic_rewrite\swm8722\solar18f8722\swm8722.c
                  __pa_87   0x00c7e4    program     static L:\solarpic_rewrite\swm8722\solar18f8722\power.c
                  __pa_87   0x006e70    program     static L:\solarpic_rewrite\swm8722\solar18f8722\swm8722.c
                  __pa_88   0x006e82    program     static L:\solarpic_rewrite\swm8722\solar18f8722\swm8722.c
                  __pa_88   0x00c7f6    program     static L:\solarpic_rewrite\swm8722\solar18f8722\power.c
                  __pa_89   0x006e94    program     static L:\solarpic_rewrite\swm8722\solar18f8722\swm8722.c
                  __pa_89   0x00c800    program     static L:\solarpic_rewrite\swm8722\solar18f8722\power.c
                   __pa_9   0x018ac0    program     static E:\c18v3.46\pic18-lt\cxx-framework\src\extended\stdclib\pow.c
                   __pa_9   0x01844a    program     static E:\c18v3.46\pic18-lt\cxx-framework\src\extended\stdclib\vfprintf.c
                   __pa_9   0x017a60    program     static L:\solarpic_rewrite\swm8722\solar18f8722\timelib.c
                   __pa_9   0x00c38a    program     static L:\solarpic_rewrite\swm8722\solar18f8722\power.c
                   __pa_9   0x019062    program     static L:\solarpic_rewrite\swm8722\solar18f8722\model.c
                   __pa_9   0x016728    program     static L:\solarpic_rewrite\swm8722\solar18f8722\sdspi.c
                   __pa_9   0x019950    program     static E:\c18v3.46\pic18-lt\cxx-framework\src\extended\stdclib\log.c
                   __pa_9   0x014510    program     static L:\solarpic_rewrite\swm8722\solar18f8722\daq.c
                   __pa_9   0x0069c6    program     static L:\solarpic_rewrite\swm8722\solar18f8722\swm8722.c
                   __pa_9   0x0193a6    program     static E:\c18v3.46\pic18-lt\cxx-framework\src\extended\stdclib\exp.c
                  __pa_90   0x006ea6    program     static L:\solarpic_rewrite\swm8722\solar18f8722\swm8722.c
                  __pa_90   0x00c80c    program     static L:\solarpic_rewrite\swm8722\solar18f8722\power.c
                  __pa_91   0x006eb8    program     static L:\solarpic_rewrite\swm8722\solar18f8722\swm8722.c
                  __pa_91   0x00c828    program     static L:\solarpic_rewrite\swm8722\solar18f8722\power.c
                  __pa_92   0x00c830    program     static L:\solarpic_rewrite\swm8722\solar18f8722\power.c
                  __pa_92   0x006eca    program     static L:\solarpic_rewrite\swm8722\solar18f8722\swm8722.c
                  __pa_93   0x006ed0    program     static L:\solarpic_rewrite\swm8722\solar18f8722\swm8722.c
                  __pa_93   0x00c836    program     static L:\solarpic_rewrite\swm8722\solar18f8722\power.c
                  __pa_94   0x00c84a    program     static L:\solarpic_rewrite\swm8722\solar18f8722\power.c
                  __pa_94   0x006ee2    program     static L:\solarpic_rewrite\swm8722\solar18f8722\swm8722.c
                  __pa_95   0x006ef4    program     static L:\solarpic_rewrite\swm8722\solar18f8722\swm8722.c
                  __pa_95   0x00c85a    program     static L:\solarpic_rewrite\swm8722\solar18f8722\power.c
                  __pa_96   0x00c86a    program     static L:\solarpic_rewrite\swm8722\solar18f8722\power.c
                  __pa_96   0x006f00    program     static L:\solarpic_rewrite\swm8722\solar18f8722\swm8722.c
                  __pa_97   0x00c872    program     static L:\solarpic_rewrite\swm8722\solar18f8722\power.c
                  __pa_97   0x006f0a    program     static L:\solarpic_rewrite\swm8722\solar18f8722\swm8722.c
                  __pa_98   0x00c886    program     static L:\solarpic_rewrite\swm8722\solar18f8722\power.c
                  __pa_98   0x006f14    program     static L:\solarpic_rewrite\swm8722\solar18f8722\swm8722.c
                  __pa_99   0x00c892    program     static L:\solarpic_rewrite\swm8722\solar18f8722\power.c
                  __pa_99   0x006f1e    program     static L:\solarpic_rewrite\swm8722\solar18f8722\swm8722.c
               __string_0   0x012b5a    program     static L:\solarpic_rewrite\swm8722\solar18f8722\daq.c
               __string_0   0x012bc6    program     static L:\solarpic_rewrite\swm8722\solar18f8722\timelib.c
               __string_0   0x012ab8    program     static L:\solarpic_rewrite\swm8722\solar18f8722\power.c
               __string_0   0x01242f    program     static L:\solarpic_rewrite\swm8722\solar18f8722\model.c
               __string_1   0x012aad    program     static L:\solarpic_rewrite\swm8722\solar18f8722\power.c
               __string_1   0x012b2c    program     static L:\solarpic_rewrite\swm8722\solar18f8722\daq.c
               __string_1   0x012bc2    program     static L:\solarpic_rewrite\swm8722\solar18f8722\timelib.c
               __string_1   0x0123d1    program     static L:\solarpic_rewrite\swm8722\solar18f8722\model.c
              __string_10   0x012a42    program     static L:\solarpic_rewrite\swm8722\solar18f8722\power.c
              __string_10   0x012b9e    program     static L:\solarpic_rewrite\swm8722\solar18f8722\timelib.c
             __string_102   0x0123c5    program     static L:\solarpic_rewrite\swm8722\solar18f8722\swm8722.c
             __string_103   0x0123bc    program     static L:\solarpic_rewrite\swm8722\solar18f8722\swm8722.c
             __string_104   0x0123a3    program     static L:\solarpic_rewrite\swm8722\solar18f8722\swm8722.c
             __string_105   0x012394    program     static L:\solarpic_rewrite\swm8722\solar18f8722\swm8722.c
             __string_106   0x01237e    program     static L:\solarpic_rewrite\swm8722\solar18f8722\swm8722.c
             __string_107   0x012362    program     static L:\solarpic_rewrite\swm8722\solar18f8722\swm8722.c
             __string_108   0x01235b    program     static L:\solarpic_rewrite\swm8722\solar18f8722\swm8722.c
             __string_109   0x012354    program     static L:\solarpic_rewrite\swm8722\solar18f8722\swm8722.c
              __string_11   0x012a35    program     static L:\solarpic_rewrite\swm8722\solar18f8722\power.c
              __string_11   0x012b9a    program     static L:\solarpic_rewrite\swm8722\solar18f8722\timelib.c
             __string_110   0x01234d    program     static L:\solarpic_rewrite\swm8722\solar18f8722\swm8722.c
             __string_111   0x01234a    program     static L:\solarpic_rewrite\swm8722\solar18f8722\swm8722.c
             __string_112   0x012323    program     static L:\solarpic_rewrite\swm8722\solar18f8722\swm8722.c
             __string_113   0x01231e    program     static L:\solarpic_rewrite\swm8722\solar18f8722\swm8722.c
             __string_114   0x01231c    program     static L:\solarpic_rewrite\swm8722\solar18f8722\swm8722.c
             __string_115   0x012307    program     static L:\solarpic_rewrite\swm8722\solar18f8722\swm8722.c
             __string_116   0x01224d    program     static L:\solarpic_rewrite\swm8722\solar18f8722\swm8722.c
             __string_117   0x01217a    program     static L:\solarpic_rewrite\swm8722\solar18f8722\swm8722.c
             __string_118   0x01210a    program     static L:\solarpic_rewrite\swm8722\solar18f8722\swm8722.c
             __string_119   0x012092    program     static L:\solarpic_rewrite\swm8722\solar18f8722\swm8722.c
              __string_12   0x012b96    program     static L:\solarpic_rewrite\swm8722\solar18f8722\timelib.c
              __string_12   0x012a1b    program     static L:\solarpic_rewrite\swm8722\solar18f8722\power.c
             __string_120   0x011ff6    program     static L:\solarpic_rewrite\swm8722\solar18f8722\swm8722.c
             __string_121   0x011f3c    program     static L:\solarpic_rewrite\swm8722\solar18f8722\swm8722.c
             __string_122   0x011f1a    program     static L:\solarpic_rewrite\swm8722\solar18f8722\swm8722.c
             __string_123   0x011ef8    program     static L:\solarpic_rewrite\swm8722\solar18f8722\swm8722.c
             __string_124   0x011ed6    program     static L:\solarpic_rewrite\swm8722\solar18f8722\swm8722.c
             __string_125   0x011eb5    program     static L:\solarpic_rewrite\swm8722\solar18f8722\swm8722.c
             __string_126   0x011e93    program     static L:\solarpic_rewrite\swm8722\solar18f8722\swm8722.c
             __string_127   0x011e3b    program     static L:\solarpic_rewrite\swm8722\solar18f8722\swm8722.c
             __string_128   0x011ddb    program     static L:\solarpic_rewrite\swm8722\solar18f8722\swm8722.c
             __string_129   0x011d58    program     static L:\solarpic_rewrite\swm8722\solar18f8722\swm8722.c
              __string_13   0x0129fd    program     static L:\solarpic_rewrite\swm8722\solar18f8722\power.c
              __string_13   0x012b92    program     static L:\solarpic_rewrite\swm8722\solar18f8722\timelib.c
             __string_130   0x011ccd    program     static L:\solarpic_rewrite\swm8722\solar18f8722\swm8722.c
             __string_131   0x011c30    program     static L:\solarpic_rewrite\swm8722\solar18f8722\swm8722.c
             __string_132   0x011c12    program     static L:\solarpic_rewrite\swm8722\solar18f8722\swm8722.c
             __string_133   0x011bdd    program     static L:\solarpic_rewrite\swm8722\solar18f8722\swm8722.c
             __string_134   0x011b89    program     static L:\solarpic_rewrite\swm8722\solar18f8722\swm8722.c
             __string_135   0x011b6b    program     static L:\solarpic_rewrite\swm8722\solar18f8722\swm8722.c
             __string_136   0x011b35    program     static L:\solarpic_rewrite\swm8722\solar18f8722\swm8722.c
             __string_137   0x011af9    program     static L:\solarpic_rewrite\swm8722\solar18f8722\swm8722.c
             __string_138   0x011ad4    program     static L:\solarpic_rewrite\swm8722\solar18f8722\swm8722.c
             __string_139   0x011ab3    program     static L:\solarpic_rewrite\swm8722\solar18f8722\swm8722.c
              __string_14   0x0129e6    program     static L:\solarpic_rewrite\swm8722\solar18f8722\power.c
              __string_14   0x012b8e    program     static L:\solarpic_rewrite\swm8722\solar18f8722\timelib.c
             __string_140   0x011a81    program     static L:\solarpic_rewrite\swm8722\solar18f8722\swm8722.c
             __string_141   0x011a57    program     static L:\solarpic_rewrite\swm8722\solar18f8722\swm8722.c
             __string_142   0x011a38    program     static L:\solarpic_rewrite\swm8722\solar18f8722\swm8722.c
             __string_143   0x011a18    program     static L:\solarpic_rewrite\swm8722\solar18f8722\swm8722.c
             __string_144   0x0119e6    program     static L:\solarpic_rewrite\swm8722\solar18f8722\swm8722.c
             __string_145   0x0119c6    program     static L:\solarpic_rewrite\swm8722\solar18f8722\swm8722.c
             __string_146   0x0119af    program     static L:\solarpic_rewrite\swm8722\solar18f8722\swm8722.c
             __string_147   0x011980    program     static L:\solarpic_rewrite\swm8722\solar18f8722\swm8722.c
             __string_148   0x011955    program     static L:\solarpic_rewrite\swm8722\solar18f8722\swm8722.c
             __string_149   0x011915    program     static L:\solarpic_rewrite\swm8722\solar18f8722\swm8722.c
              __string_15   0x012b8a    program     static L:\solarpic_rewrite\swm8722\solar18f8722\timelib.c
              __string_15   0x0129c2    program     static L:\solarpic_rewrite\swm8722\solar18f8722\power.c
             __string_150   0x0118d7    program     static L:\solarpic_rewrite\swm8722\solar18f8722\swm8722.c
             __string_151   0x0118bd    program     static L:\solarpic_rewrite\swm8722\solar18f8722\swm8722.c
             __string_152   0x01187c    program     static L:\solarpic_rewrite\swm8722\solar18f8722\swm8722.c
             __string_153   0x01183f    program     static L:\solarpic_rewrite\swm8722\solar18f8722\swm8722.c
             __string_154   0x011812    program     static L:\solarpic_rewrite\swm8722\solar18f8722\swm8722.c
             __string_155   0x0117e4    program     static L:\solarpic_rewrite\swm8722\solar18f8722\swm8722.c
             __string_156   0x0117d2    program     static L:\solarpic_rewrite\swm8722\solar18f8722\swm8722.c
             __string_157   0x0117c6    program     static L:\solarpic_rewrite\swm8722\solar18f8722\swm8722.c
             __string_158   0x0117be    program     static L:\solarpic_rewrite\swm8722\solar18f8722\swm8722.c
             __string_159   0x0117b6    program     static L:\solarpic_rewrite\swm8722\solar18f8722\swm8722.c
              __string_16   0x012b86    program     static L:\solarpic_rewrite\swm8722\solar18f8722\timelib.c
              __string_16   0x01299e    program     static L:\solarpic_rewrite\swm8722\solar18f8722\power.c
             __string_160   0x0117b0    program     static L:\solarpic_rewrite\swm8722\solar18f8722\swm8722.c
             __string_161   0x0117a3    program     static L:\solarpic_rewrite\swm8722\solar18f8722\swm8722.c
             __string_162   0x011799    program     static L:\solarpic_rewrite\swm8722\solar18f8722\swm8722.c
             __string_163   0x011770    program     static L:\solarpic_rewrite\swm8722\solar18f8722\swm8722.c
             __string_164   0x011718    program     static L:\solarpic_rewrite\swm8722\solar18f8722\swm8722.c
             __string_165   0x0116fe    program     static L:\solarpic_rewrite\swm8722\solar18f8722\swm8722.c
             __string_166   0x0116e4    program     static L:\solarpic_rewrite\swm8722\solar18f8722\swm8722.c
             __string_167   0x0116b7    program     static L:\solarpic_rewrite\swm8722\solar18f8722\swm8722.c
             __string_168   0x011685    program     static L:\solarpic_rewrite\swm8722\solar18f8722\swm8722.c
             __string_169   0x01166b    program     static L:\solarpic_rewrite\swm8722\solar18f8722\swm8722.c
              __string_17   0x012973    program     static L:\solarpic_rewrite\swm8722\solar18f8722\power.c
              __string_17   0x012b82    program     static L:\solarpic_rewrite\swm8722\solar18f8722\timelib.c
             __string_170   0x01164e    program     static L:\solarpic_rewrite\swm8722\solar18f8722\swm8722.c
             __string_171   0x011629    program     static L:\solarpic_rewrite\swm8722\solar18f8722\swm8722.c
             __string_172   0x011609    program     static L:\solarpic_rewrite\swm8722\solar18f8722\swm8722.c
             __string_173   0x011601    program     static L:\solarpic_rewrite\swm8722\solar18f8722\swm8722.c
             __string_174   0x0115ec    program     static L:\solarpic_rewrite\swm8722\solar18f8722\swm8722.c
             __string_175   0x0115d6    program     static L:\solarpic_rewrite\swm8722\solar18f8722\swm8722.c
             __string_176   0x0115bc    program     static L:\solarpic_rewrite\swm8722\solar18f8722\swm8722.c
             __string_177   0x0115a7    program     static L:\solarpic_rewrite\swm8722\solar18f8722\swm8722.c
             __string_178   0x01158f    program     static L:\solarpic_rewrite\swm8722\solar18f8722\swm8722.c
             __string_179   0x01157d    program     static L:\solarpic_rewrite\swm8722\solar18f8722\swm8722.c
              __string_18   0x012b7e    program     static L:\solarpic_rewrite\swm8722\solar18f8722\timelib.c
              __string_18   0x012948    program     static L:\solarpic_rewrite\swm8722\solar18f8722\power.c
             __string_180   0x011558    program     static L:\solarpic_rewrite\swm8722\solar18f8722\swm8722.c
             __string_181   0x011538    program     static L:\solarpic_rewrite\swm8722\solar18f8722\swm8722.c
             __string_182   0x01151f    program     static L:\solarpic_rewrite\swm8722\solar18f8722\swm8722.c
             __string_183   0x011509    program     static L:\solarpic_rewrite\swm8722\solar18f8722\swm8722.c
             __string_184   0x0114ed    program     static L:\solarpic_rewrite\swm8722\solar18f8722\swm8722.c
             __string_185   0x0114d4    program     static L:\solarpic_rewrite\swm8722\solar18f8722\swm8722.c
             __string_186   0x0114be    program     static L:\solarpic_rewrite\swm8722\solar18f8722\swm8722.c
             __string_187   0x0114a1    program     static L:\solarpic_rewrite\swm8722\solar18f8722\swm8722.c
             __string_188   0x01148c    program     static L:\solarpic_rewrite\swm8722\solar18f8722\swm8722.c
             __string_189   0x011467    program     static L:\solarpic_rewrite\swm8722\solar18f8722\swm8722.c
              __string_19   0x012920    program     static L:\solarpic_rewrite\swm8722\solar18f8722\power.c
             __string_190   0x01143d    program     static L:\solarpic_rewrite\swm8722\solar18f8722\swm8722.c
             __string_191   0x011414    program     static L:\solarpic_rewrite\swm8722\solar18f8722\swm8722.c
             __string_192   0x0113eb    program     static L:\solarpic_rewrite\swm8722\solar18f8722\swm8722.c
             __string_193   0x0113c7    program     static L:\solarpic_rewrite\swm8722\solar18f8722\swm8722.c
             __string_194   0x0113a3    program     static L:\solarpic_rewrite\swm8722\solar18f8722\swm8722.c
             __string_195   0x011387    program     static L:\solarpic_rewrite\swm8722\solar18f8722\swm8722.c
             __string_196   0x011360    program     static L:\solarpic_rewrite\swm8722\solar18f8722\swm8722.c
             __string_197   0x01134a    program     static L:\solarpic_rewrite\swm8722\solar18f8722\swm8722.c
             __string_198   0x01131a    program     static L:\solarpic_rewrite\swm8722\solar18f8722\swm8722.c
             __string_199   0x0112fd    program     static L:\solarpic_rewrite\swm8722\solar18f8722\swm8722.c
               __string_2   0x012bbe    program     static L:\solarpic_rewrite\swm8722\solar18f8722\timelib.c
               __string_2   0x012aa2    program     static L:\solarpic_rewrite\swm8722\solar18f8722\power.c
               __string_2   0x012af8    program     static L:\solarpic_rewrite\swm8722\solar18f8722\daq.c
              __string_20   0x012913    program     static L:\solarpic_rewrite\swm8722\solar18f8722\power.c
             __string_200   0x0112d8    program     static L:\solarpic_rewrite\swm8722\solar18f8722\swm8722.c
             __string_201   0x0112b8    program     static L:\solarpic_rewrite\swm8722\solar18f8722\swm8722.c
             __string_202   0x01129f    program     static L:\solarpic_rewrite\swm8722\solar18f8722\swm8722.c
             __string_203   0x01128d    program     static L:\solarpic_rewrite\swm8722\solar18f8722\swm8722.c
             __string_204   0x011288    program     static L:\solarpic_rewrite\swm8722\solar18f8722\swm8722.c
             __string_205   0x01126c    program     static L:\solarpic_rewrite\swm8722\solar18f8722\swm8722.c
             __string_206   0x011253    program     static L:\solarpic_rewrite\swm8722\solar18f8722\swm8722.c
             __string_207   0x01123b    program     static L:\solarpic_rewrite\swm8722\solar18f8722\swm8722.c
             __string_208   0x011221    program     static L:\solarpic_rewrite\swm8722\solar18f8722\swm8722.c
             __string_209   0x0111de    program     static L:\solarpic_rewrite\swm8722\solar18f8722\swm8722.c
              __string_21   0x0128f6    program     static L:\solarpic_rewrite\swm8722\solar18f8722\power.c
             __string_210   0x0111ca    program     static L:\solarpic_rewrite\swm8722\solar18f8722\swm8722.c
             __string_211   0x0111a8    program     static L:\solarpic_rewrite\swm8722\solar18f8722\swm8722.c
             __string_212   0x01118d    program     static L:\solarpic_rewrite\swm8722\solar18f8722\swm8722.c
             __string_213   0x011175    program     static L:\solarpic_rewrite\swm8722\solar18f8722\swm8722.c
             __string_214   0x011164    program     static L:\solarpic_rewrite\swm8722\solar18f8722\swm8722.c
             __string_215   0x011154    program     static L:\solarpic_rewrite\swm8722\solar18f8722\swm8722.c
             __string_216   0x011141    program     static L:\solarpic_rewrite\swm8722\solar18f8722\swm8722.c
             __string_217   0x011128    program     static L:\solarpic_rewrite\swm8722\solar18f8722\swm8722.c
             __string_218   0x011112    program     static L:\solarpic_rewrite\swm8722\solar18f8722\swm8722.c
             __string_219   0x0110fb    program     static L:\solarpic_rewrite\swm8722\solar18f8722\swm8722.c
              __string_22   0x0128d5    program     static L:\solarpic_rewrite\swm8722\solar18f8722\power.c
             __string_220   0x0110e5    program     static L:\solarpic_rewrite\swm8722\solar18f8722\swm8722.c
             __string_221   0x0110cf    program     static L:\solarpic_rewrite\swm8722\solar18f8722\swm8722.c
             __string_222   0x0110ad    program     static L:\solarpic_rewrite\swm8722\solar18f8722\swm8722.c
             __string_223   0x01108c    program     static L:\solarpic_rewrite\swm8722\solar18f8722\swm8722.c
             __string_224   0x011075    program     static L:\solarpic_rewrite\swm8722\solar18f8722\swm8722.c
             __string_225   0x01105d    program     static L:\solarpic_rewrite\swm8722\solar18f8722\swm8722.c
             __string_226   0x011055    program     static L:\solarpic_rewrite\swm8722\solar18f8722\swm8722.c
             __string_227   0x01104d    program     static L:\solarpic_rewrite\swm8722\solar18f8722\swm8722.c
             __string_228   0x011034    program     static L:\solarpic_rewrite\swm8722\solar18f8722\swm8722.c
             __string_229   0x01101c    program     static L:\solarpic_rewrite\swm8722\solar18f8722\swm8722.c
              __string_23   0x0128bf    program     static L:\solarpic_rewrite\swm8722\solar18f8722\power.c
             __string_230   0x011014    program     static L:\solarpic_rewrite\swm8722\solar18f8722\swm8722.c
              __string_24   0x01287b    program     static L:\solarpic_rewrite\swm8722\solar18f8722\power.c
              __string_25   0x01286e    program     static L:\solarpic_rewrite\swm8722\solar18f8722\power.c
              __string_26   0x012837    program     static L:\solarpic_rewrite\swm8722\solar18f8722\power.c
              __string_27   0x0127d9    program     static L:\solarpic_rewrite\swm8722\solar18f8722\power.c
              __string_28   0x0127c4    program     static L:\solarpic_rewrite\swm8722\solar18f8722\power.c
              __string_29   0x0127a4    program     static L:\solarpic_rewrite\swm8722\solar18f8722\power.c
               __string_3   0x012ac3    program     static L:\solarpic_rewrite\swm8722\solar18f8722\daq.c
               __string_3   0x012bba    program     static L:\solarpic_rewrite\swm8722\solar18f8722\timelib.c
               __string_3   0x012a97    program     static L:\solarpic_rewrite\swm8722\solar18f8722\power.c
              __string_30   0x012771    program     static L:\solarpic_rewrite\swm8722\solar18f8722\power.c
              __string_31   0x01272e    program     static L:\solarpic_rewrite\swm8722\solar18f8722\power.c
              __string_32   0x01270c    program     static L:\solarpic_rewrite\swm8722\solar18f8722\power.c
              __string_33   0x0126e0    program     static L:\solarpic_rewrite\swm8722\solar18f8722\power.c
              __string_34   0x01268d    program     static L:\solarpic_rewrite\swm8722\solar18f8722\power.c
              __string_35   0x012668    program     static L:\solarpic_rewrite\swm8722\solar18f8722\power.c
              __string_36   0x01264b    program     static L:\solarpic_rewrite\swm8722\solar18f8722\power.c
              __string_37   0x012638    program     static L:\solarpic_rewrite\swm8722\solar18f8722\power.c
              __string_38   0x01262a    program     static L:\solarpic_rewrite\swm8722\solar18f8722\power.c
              __string_39   0x0125f8    program     static L:\solarpic_rewrite\swm8722\solar18f8722\power.c
               __string_4   0x012a8d    program     static L:\solarpic_rewrite\swm8722\solar18f8722\power.c
               __string_4   0x012bb6    program     static L:\solarpic_rewrite\swm8722\solar18f8722\timelib.c
              __string_40   0x0125c1    program     static L:\solarpic_rewrite\swm8722\solar18f8722\power.c
              __string_41   0x012579    program     static L:\solarpic_rewrite\swm8722\solar18f8722\power.c
              __string_42   0x012515    program     static L:\solarpic_rewrite\swm8722\solar18f8722\power.c
              __string_43   0x0124bd    program     static L:\solarpic_rewrite\swm8722\solar18f8722\power.c
              __string_44   0x0124b3    program     static L:\solarpic_rewrite\swm8722\solar18f8722\power.c
              __string_45   0x0124a4    program     static L:\solarpic_rewrite\swm8722\solar18f8722\power.c
              __string_46   0x012488    program     static L:\solarpic_rewrite\swm8722\solar18f8722\power.c
              __string_47   0x01246e    program     static L:\solarpic_rewrite\swm8722\solar18f8722\power.c
              __string_48   0x012455    program     static L:\solarpic_rewrite\swm8722\solar18f8722\power.c
              __string_49   0x012432    program     static L:\solarpic_rewrite\swm8722\solar18f8722\power.c
               __string_5   0x012a83    program     static L:\solarpic_rewrite\swm8722\solar18f8722\power.c
               __string_5   0x012bb2    program     static L:\solarpic_rewrite\swm8722\solar18f8722\timelib.c
               __string_6   0x012bae    program     static L:\solarpic_rewrite\swm8722\solar18f8722\timelib.c
               __string_6   0x012a79    program     static L:\solarpic_rewrite\swm8722\solar18f8722\power.c
               __string_7   0x012a6f    program     static L:\solarpic_rewrite\swm8722\solar18f8722\power.c
               __string_7   0x012baa    program     static L:\solarpic_rewrite\swm8722\solar18f8722\timelib.c
               __string_8   0x012a5c    program     static L:\solarpic_rewrite\swm8722\solar18f8722\power.c
               __string_8   0x012ba6    program     static L:\solarpic_rewrite\swm8722\solar18f8722\timelib.c
               __string_9   0x012a4f    program     static L:\solarpic_rewrite\swm8722\solar18f8722\power.c
               __string_9   0x012ba2    program     static L:\solarpic_rewrite\swm8722\solar18f8722\timelib.c
                  __subFP   0x0167e0    program     extern E:\c18v3.46\pic18-lt\cxx-framework\src\extended\math\addFP.asm
               __tmplbl_0   0x019e18    program     static                          
               __tmplbl_0   0x00cb76    program     static                          
               __tmplbl_0   0x013062    program     static                          
               __tmplbl_1   0x019e12    program     static                          
               __tmplbl_1   0x0136fa    program     static                          
               __tmplbl_1   0x00cb70    program     static                          
              __tmplbl_10   0x001b5e    program     static                          
              __tmplbl_10   0x00cd2c    program     static                          
              __tmplbl_10   0x016260    program     static                          
              __tmplbl_10   0x013da4    program     static                          
             __tmplbl_100   0x00e054    program     static                          
             __tmplbl_100   0x008bbc    program     static                          
             __tmplbl_101   0x008e8a    program     static                          
             __tmplbl_101   0x00e094    program     static                          
             __tmplbl_102   0x008f68    program     static                          
             __tmplbl_102   0x00e08e    program     static                          
             __tmplbl_103   0x008f5c    program     static                          
             __tmplbl_103   0x00e1e8    program     static                          
             __tmplbl_104   0x0091e8    program     static                          
             __tmplbl_104   0x00e1e2    program     static                          
             __tmplbl_105   0x00e372    program     static                          
             __tmplbl_105   0x0091c0    program     static                          
             __tmplbl_106   0x0094fe    program     static                          
             __tmplbl_106   0x00e364    program     static                          
             __tmplbl_107   0x00e3b2    program     static                          
             __tmplbl_107   0x00964a    program     static                          
             __tmplbl_108   0x00e3fc    program     static                          
             __tmplbl_108   0x009622    program     static                          
             __tmplbl_109   0x009a7c    program     static                          
             __tmplbl_109   0x00e3f6    program     static                          
             __tmplbl_109   0x00711c    program     static                          
              __tmplbl_11   0x016366    program     static                          
              __tmplbl_11   0x001b58    program     static                          
              __tmplbl_11   0x00cd0e    program     static                          
              __tmplbl_11   0x013f04    program     static                          
             __tmplbl_110   0x00e53a    program     static                          
             __tmplbl_110   0x00711c    program     static                          
             __tmplbl_110   0x009a76    program     static                          
             __tmplbl_111   0x006a2c    program     static                          
             __tmplbl_111   0x009b02    program     static                          
             __tmplbl_111   0x00e51e    program     static                          
             __tmplbl_112   0x00e502    program     static                          
             __tmplbl_112   0x009b50    program     static                          
             __tmplbl_112   0x006a2c    program     static                          
             __tmplbl_113   0x009b9e    program     static                          
             __tmplbl_113   0x0071f4    program     static                          
             __tmplbl_113   0x00e500    program     static                          
             __tmplbl_114   0x009cb2    program     static                          
             __tmplbl_114   0x00e51c    program     static                          
             __tmplbl_114   0x0071f4    program     static                          
             __tmplbl_115   0x006a2c    program     static                          
             __tmplbl_115   0x00e538    program     static                          
             __tmplbl_115   0x009c2c    program     static                          
             __tmplbl_116   0x006a2c    program     static                          
             __tmplbl_116   0x009c2a    program     static                          
             __tmplbl_116   0x00e57a    program     static                          
             __tmplbl_117   0x009cb0    program     static                          
             __tmplbl_117   0x006a2c    program     static                          
             __tmplbl_117   0x00e55e    program     static                          
             __tmplbl_118   0x006a2c    program     static                          
             __tmplbl_118   0x00e55c    program     static                          
             __tmplbl_118   0x009d46    program     static                          
             __tmplbl_119   0x006a2c    program     static                          
             __tmplbl_119   0x00e578    program     static                          
             __tmplbl_119   0x009d76    program     static                          
              __tmplbl_12   0x016526    program     static                          
              __tmplbl_12   0x00cd02    program     static                          
              __tmplbl_12   0x013efe    program     static                          
             __tmplbl_120   0x009e40    program     static                          
             __tmplbl_120   0x00e58a    program     static                          
             __tmplbl_121   0x009e6e    program     static                          
             __tmplbl_121   0x00e584    program     static                          
             __tmplbl_122   0x00e860    program     static                          
             __tmplbl_122   0x009fa0    program     static                          
             __tmplbl_123   0x00e9fc    program     static                          
             __tmplbl_123   0x009f98    program     static                          
             __tmplbl_124   0x00a496    program     static                          
             __tmplbl_124   0x00ebe4    program     static                          
             __tmplbl_124   0x006a2c    program     static                          
             __tmplbl_125   0x00ebd0    program     static                          
             __tmplbl_125   0x00a490    program     static                          
             __tmplbl_126   0x006a2c    program     static                          
             __tmplbl_126   0x00ebe2    program     static                          
             __tmplbl_126   0x00a46e    program     static                          
             __tmplbl_127   0x00ed50    program     static                          
             __tmplbl_127   0x006a2c    program     static                          
             __tmplbl_127   0x00a46a    program     static                          
             __tmplbl_128   0x006a2c    program     static                          
             __tmplbl_128   0x00a506    program     static                          
             __tmplbl_128   0x00f158    program     static                          
             __tmplbl_129   0x00a622    program     static                          
             __tmplbl_129   0x00f272    program     static                          
              __tmplbl_13   0x00ccea    program     static                          
              __tmplbl_13   0x01660c    program     static                          
             __tmplbl_130   0x00f71e    program     static                          
             __tmplbl_130   0x00a788    program     static                          
             __tmplbl_130   0x003ec0    program     static                          
             __tmplbl_131   0x00a8f0    program     static                          
             __tmplbl_131   0x003f06    program     static                          
             __tmplbl_131   0x00fdaa    program     static                          
             __tmplbl_132   0x01000a    program     static                          
             __tmplbl_132   0x00a8ea    program     static                          
             __tmplbl_132   0x006a2c    program     static                          
             __tmplbl_133   0x00a998    program     static                          
             __tmplbl_133   0x0100a2    program     static                          
             __tmplbl_134   0x00aa74    program     static                          
             __tmplbl_134   0x01013a    program     static                          
             __tmplbl_135   0x00aa60    program     static                          
             __tmplbl_135   0x0101d2    program     static                          
             __tmplbl_136   0x010920    program     static                          
             __tmplbl_136   0x00aa72    program     static                          
             __tmplbl_137   0x010a72    program     static                          
             __tmplbl_137   0x00aa80    program     static                          
             __tmplbl_138   0x010b20    program     static                          
             __tmplbl_138   0x00aa7a    program     static                          
             __tmplbl_139   0x010b62    program     static                          
             __tmplbl_139   0x00aafa    program     static                          
             __tmplbl_139   0x006a2c    program     static                          
              __tmplbl_14   0x00ccfe    program     static                          
             __tmplbl_140   0x010b5c    program     static                          
             __tmplbl_140   0x00aad8    program     static                          
             __tmplbl_140   0x0072f6    program     static                          
             __tmplbl_141   0x00aab6    program     static                          
             __tmplbl_141   0x010b2e    program     static                          
             __tmplbl_142   0x010b4c    program     static                          
             __tmplbl_142   0x00aaa0    program     static                          
             __tmplbl_143   0x010b44    program     static                          
             __tmplbl_143   0x00aab4    program     static                          
             __tmplbl_144   0x010b42    program     static                          
             __tmplbl_144   0x00ab06    program     static                          
             __tmplbl_145   0x010b54    program     static                          
             __tmplbl_145   0x00ab00    program     static                          
             __tmplbl_146   0x00ab38    program     static                          
             __tmplbl_146   0x010bca    program     static                          
             __tmplbl_147   0x00ab24    program     static                          
             __tmplbl_147   0x010bc4    program     static                          
             __tmplbl_148   0x010bda    program     static                          
             __tmplbl_148   0x00ab36    program     static                          
             __tmplbl_149   0x00ab88    program     static                          
             __tmplbl_149   0x010bd4    program     static                          
              __tmplbl_15   0x00cec4    program     static                          
             __tmplbl_150   0x010c00    program     static                          
             __tmplbl_150   0x00ab82    program     static                          
             __tmplbl_151   0x00abc4    program     static                          
             __tmplbl_151   0x010bfa    program     static                          
             __tmplbl_152   0x00abba    program     static                          
             __tmplbl_152   0x010bf4    program     static                          
             __tmplbl_153   0x010c1a    program     static                          
             __tmplbl_153   0x00adb8    program     static                          
             __tmplbl_154   0x010d0e    program     static                          
             __tmplbl_154   0x00adb0    program     static                          
             __tmplbl_155   0x00adac    program     static                          
             __tmplbl_155   0x010d1c    program     static                          
             __tmplbl_156   0x00b166    program     static                          
             __tmplbl_156   0x010d2a    program     static                          
             __tmplbl_157   0x00b15a    program     static                          
             __tmplbl_157   0x010d38    program     static                          
             __tmplbl_158   0x00b1ba    program     static                          
             __tmplbl_158   0x010d46    program     static                          
             __tmplbl_159   0x010d54    program     static                          
             __tmplbl_159   0x00b1e2    program     static                          
              __tmplbl_16   0x00cebe    program     static                          
             __tmplbl_160   0x010d62    program     static                          
             __tmplbl_160   0x00b1dc    program     static                          
             __tmplbl_161   0x00b1c6    program     static                          
             __tmplbl_161   0x010d6e    program     static                          
             __tmplbl_162   0x00b1d8    program     static                          
             __tmplbl_162   0x010d7a    program     static                          
             __tmplbl_163   0x010d86    program     static                          
             __tmplbl_163   0x00b324    program     static                          
             __tmplbl_164   0x010d92    program     static                          
             __tmplbl_164   0x00b31a    program     static                          
             __tmplbl_165   0x00b45c    program     static                          
             __tmplbl_165   0x010d9e    program     static                          
             __tmplbl_166   0x00ba64    program     static                          
             __tmplbl_166   0x010f68    program     static                          
             __tmplbl_167   0x010faa    program     static                          
             __tmplbl_167   0x00ba5e    program     static                          
             __tmplbl_168   0x010fa4    program     static                          
             __tmplbl_168   0x00bb44    program     static                          
             __tmplbl_169   0x00cc28    program     static                          
             __tmplbl_169   0x00bb3a    program     static                          
              __tmplbl_17   0x00cee0    program     static                          
              __tmplbl_17   0x012cb8    program     static                          
             __tmplbl_170   0x00bb18    program     static                          
             __tmplbl_170   0x00cc3e    program     static                          
             __tmplbl_171   0x00d6a6    program     static                          
             __tmplbl_171   0x00bbfc    program     static                          
             __tmplbl_172   0x00d6ca    program     static                          
             __tmplbl_172   0x00bbf6    program     static                          
             __tmplbl_173   0x00f132    program     static                          
             __tmplbl_173   0x00bbf4    program     static                          
             __tmplbl_174   0x00bc72    program     static                          
             __tmplbl_174   0x00f24c    program     static                          
             __tmplbl_175   0x0108fa    program     static                          
             __tmplbl_175   0x00bc6a    program     static                          
             __tmplbl_176   0x00c1c4    program     static                          
             __tmplbl_176   0x010a4c    program     static                          
              __tmplbl_18   0x012df6    program     static                          
              __tmplbl_18   0x00cfb8    program     static                          
             __tmplbl_183   0x00c5d2    program     static                          
              __tmplbl_19   0x012fec    program     static                          
              __tmplbl_19   0x00cfe0    program     static                          
             __tmplbl_191   0x00c5d2    program     static                          
             __tmplbl_192   0x00c5d2    program     static                          
             __tmplbl_194   0x00c5d2    program     static                          
             __tmplbl_196   0x0082c2    program     static                          
               __tmplbl_2   0x00cc9e    program     static                          
               __tmplbl_2   0x013948    program     static                          
               __tmplbl_2   0x0006a4    program     static                          
              __tmplbl_20   0x013208    program     static                          
              __tmplbl_20   0x00cfd4    program     static                          
             __tmplbl_202   0x00c5d2    program     static                          
             __tmplbl_207   0x009d0c    program     static                          
             __tmplbl_208   0x009e02    program     static                          
              __tmplbl_21   0x013328    program     static                          
              __tmplbl_21   0x00cfc8    program     static                          
              __tmplbl_22   0x013448    program     static                          
              __tmplbl_22   0x00d058    program     static                          
              __tmplbl_23   0x013684    program     static                          
              __tmplbl_23   0x00d026    program     static                          
              __tmplbl_24   0x013a72    program     static                          
              __tmplbl_24   0x00d024    program     static                          
              __tmplbl_25   0x00d102    program     static                          
              __tmplbl_26   0x00d0fa    program     static                          
              __tmplbl_27   0x00d0f0    program     static                          
              __tmplbl_28   0x00d0dc    program     static                          
              __tmplbl_29   0x00d0ee    program     static                          
               __tmplbl_3   0x0007bc    program     static                          
               __tmplbl_3   0x01392c    program     static                          
               __tmplbl_3   0x00ccda    program     static                          
              __tmplbl_30   0x00d14e    program     static                          
              __tmplbl_31   0x00d1ae    program     static                          
              __tmplbl_32   0x00d354    program     static                          
              __tmplbl_33   0x00d302    program     static                          
              __tmplbl_34   0x00d300    program     static                          
              __tmplbl_35   0x00d34a    program     static                          
              __tmplbl_36   0x00d328    program     static                          
              __tmplbl_37   0x00d312    program     static                          
              __tmplbl_37   0x003d80    program     static                          
              __tmplbl_38   0x003df0    program     static                          
              __tmplbl_38   0x00d30c    program     static                          
              __tmplbl_39   0x00d326    program     static                          
              __tmplbl_39   0x003edc    program     static                          
               __tmplbl_4   0x00ccb0    program     static                          
               __tmplbl_4   0x01627a    program     static                          
               __tmplbl_4   0x01392a    program     static                          
              __tmplbl_40   0x00d47e    program     static                          
              __tmplbl_41   0x00d50e    program     static                          
              __tmplbl_42   0x004b62    program     static                          
              __tmplbl_42   0x00d4ee    program     static                          
              __tmplbl_43   0x00d4e8    program     static                          
              __tmplbl_43   0x004b5c    program     static                          
              __tmplbl_44   0x00d4e2    program     static                          
              __tmplbl_44   0x004b56    program     static                          
              __tmplbl_45   0x00d504    program     static                          
              __tmplbl_45   0x004b50    program     static                          
              __tmplbl_46   0x004be0    program     static                          
              __tmplbl_46   0x00d502    program     static                          
              __tmplbl_47   0x004bda    program     static                          
              __tmplbl_47   0x00d52c    program     static                          
              __tmplbl_48   0x005290    program     static                          
              __tmplbl_48   0x00d522    program     static                          
              __tmplbl_49   0x00d520    program     static                          
              __tmplbl_49   0x005288    program     static                          
               __tmplbl_5   0x016380    program     static                          
               __tmplbl_5   0x00ccaa    program     static                          
               __tmplbl_5   0x013946    program     static                          
              __tmplbl_50   0x005280    program     static                          
              __tmplbl_50   0x00d56e    program     static                          
              __tmplbl_51   0x00d5b2    program     static                          
              __tmplbl_51   0x005632    program     static                          
              __tmplbl_52   0x005606    program     static                          
              __tmplbl_52   0x00d626    program     static                          
              __tmplbl_53   0x00d678    program     static                          
              __tmplbl_53   0x0055da    program     static                          
              __tmplbl_54   0x00d65a    program     static                          
              __tmplbl_54   0x0058b8    program     static                          
              __tmplbl_55   0x00590a    program     static                          
              __tmplbl_55   0x00d658    program     static                          
              __tmplbl_56   0x00d676    program     static                          
              __tmplbl_56   0x005af0    program     static                          
              __tmplbl_57   0x00d822    program     static                          
              __tmplbl_57   0x005b8a    program     static                          
              __tmplbl_58   0x00d6ec    program     static                          
              __tmplbl_58   0x005b7c    program     static                          
              __tmplbl_59   0x00d786    program     static                          
              __tmplbl_59   0x005b7a    program     static                          
               __tmplbl_6   0x0010fc    program     static                          
               __tmplbl_6   0x00ccc4    program     static                          
               __tmplbl_6   0x013ae8    program     static                          
               __tmplbl_6   0x016540    program     static                          
              __tmplbl_60   0x005dc8    program     static                          
              __tmplbl_60   0x00d73e    program     static                          
              __tmplbl_61   0x005df4    program     static                          
              __tmplbl_61   0x00d716    program     static                          
              __tmplbl_62   0x005dee    program     static                          
              __tmplbl_62   0x00d714    program     static                          
              __tmplbl_63   0x005eb0    program     static                          
              __tmplbl_63   0x00d73c    program     static                          
              __tmplbl_64   0x005e98    program     static                          
              __tmplbl_64   0x00d7da    program     static                          
              __tmplbl_65   0x005eac    program     static                          
              __tmplbl_65   0x00d7b2    program     static                          
              __tmplbl_66   0x00d7ae    program     static                          
              __tmplbl_66   0x005fe8    program     static                          
              __tmplbl_67   0x005fe0    program     static                          
              __tmplbl_67   0x00d7d8    program     static                          
              __tmplbl_68   0x00d846    program     static                          
              __tmplbl_68   0x006084    program     static                          
              __tmplbl_69   0x00d90e    program     static                          
              __tmplbl_69   0x00609a    program     static                          
               __tmplbl_7   0x00ccc2    program     static                          
               __tmplbl_7   0x016626    program     static                          
               __tmplbl_7   0x013c3c    program     static                          
               __tmplbl_7   0x0010f6    program     static                          
              __tmplbl_70   0x00d8c6    program     static                          
              __tmplbl_70   0x006092    program     static                          
              __tmplbl_71   0x00d8c4    program     static                          
              __tmplbl_71   0x006260    program     static                          
              __tmplbl_72   0x00d924    program     static                          
              __tmplbl_72   0x006256    program     static                          
              __tmplbl_73   0x00d91e    program     static                          
              __tmplbl_73   0x00666e    program     static                          
              __tmplbl_74   0x006842    program     static                          
              __tmplbl_74   0x00d95e    program     static                          
              __tmplbl_75   0x00d9be    program     static                          
              __tmplbl_75   0x0067a6    program     static                          
              __tmplbl_76   0x00d9b2    program     static                          
              __tmplbl_76   0x0067fa    program     static                          
              __tmplbl_77   0x00d9d0    program     static                          
              __tmplbl_77   0x0067d0    program     static                          
              __tmplbl_78   0x00d9c6    program     static                          
              __tmplbl_78   0x0067cc    program     static                          
              __tmplbl_79   0x0067f8    program     static                          
              __tmplbl_79   0x00d9f4    program     static                          
               __tmplbl_8   0x001698    program     static                          
               __tmplbl_8   0x013c32    program     static                          
               __tmplbl_8   0x00ccd8    program     static                          
              __tmplbl_80   0x006876    program     static                          
              __tmplbl_80   0x00d9ee    program     static                          
              __tmplbl_81   0x006a2c    program     static                          
              __tmplbl_81   0x00da08    program     static                          
              __tmplbl_82   0x006a2c    program     static                          
              __tmplbl_82   0x00dad4    program     static                          
              __tmplbl_83   0x00dac8    program     static                          
              __tmplbl_84   0x00db3e    program     static                          
              __tmplbl_85   0x00db3a    program     static                          
              __tmplbl_86   0x00dca4    program     static                          
              __tmplbl_87   0x00dc9e    program     static                          
              __tmplbl_88   0x00dcbe    program     static                          
              __tmplbl_88   0x006a2c    program     static                          
              __tmplbl_89   0x00de46    program     static                          
               __tmplbl_9   0x00cd34    program     static                          
               __tmplbl_9   0x013daa    program     static                          
               __tmplbl_9   0x001692    program     static                          
              __tmplbl_90   0x006a2c    program     static                          
              __tmplbl_90   0x00de42    program     static                          
              __tmplbl_91   0x00de6a    program     static                          
              __tmplbl_92   0x0088ba    program     static                          
              __tmplbl_92   0x00de66    program     static                          
              __tmplbl_93   0x0088b4    program     static                          
              __tmplbl_93   0x00df5c    program     static                          
              __tmplbl_94   0x0089f2    program     static                          
              __tmplbl_94   0x00dfa8    program     static                          
              __tmplbl_95   0x008a86    program     static                          
              __tmplbl_95   0x00dfa0    program     static                          
              __tmplbl_96   0x008a7e    program     static                          
              __tmplbl_96   0x00dfd6    program     static                          
              __tmplbl_97   0x00dfce    program     static                          
              __tmplbl_97   0x008bfa    program     static                          
              __tmplbl_98   0x00dfc6    program     static                          
              __tmplbl_98   0x008b64    program     static                          
              __tmplbl_99   0x008bbe    program     static                          
              __tmplbl_99   0x00e05a    program     static                          
            __zero_memory   0x01b2f8    program     extern E:\c18v3.46\pic18-lt\cxx-framework\src\extended\proc\p18f8722.asm
                _do_cinit   0x01a82e    program     extern E:\c18v3.46\pic18-lt\cxx-framework\src\extended\startup\c018iz_e.c
            _early16uexit   0x016d52    program     extern E:\c18v3.46\pic18-lt\cxx-framework\src\extended\math\div16u.asm
            _early32uexit   0x016e86    program     extern E:\c18v3.46\pic18-lt\cxx-framework\src\extended\math\div32u.asm
                   _entry   0x000000    program     extern E:\c18v3.46\pic18-lt\cxx-framework\src\extended\startup\c018iz_e.c
                   _false   0x016eca    program     static E:\c18v3.46\pic18-lt\cxx-framework\src\extended\math\div32u.asm
                   _fchop   0x019fc2    program     extern E:\c18v3.46\pic18-lt\cxx-framework\src\extended\stdclib\fchop.c
                 _startup   0x01b318    program     extern E:\c18v3.46\pic18-lt\cxx-framework\src\extended\startup\c018iz_e.c
              _usart_putc   0x01b336    program     extern E:\c18v3.46\pic18-lt\cxx-framework\src\pmc_common\USART\_usartpc.asm
               _user_putc   0x000006    program     extern E:\c18v3.46\pic18-lt\cxx-framework\src\extended\stdclib\_user_putc.c
                    adcg0   0x014641    program     extern L:\solarpic_rewrite\swm8722\solar18f8722\mbmc_msg.h
                    adcg1   0x014681    program     extern L:\solarpic_rewrite\swm8722\solar18f8722\mbmc_msg.h
                    adcg2   0x0146ac    program     extern L:\solarpic_rewrite\swm8722\solar18f8722\mbmc_msg.h
                    adcg3   0x0146df    program     extern L:\solarpic_rewrite\swm8722\solar18f8722\mbmc_msg.h
                    adcg4   0x01474b    program     extern L:\solarpic_rewrite\swm8722\solar18f8722\mbmc_msg.h
                     ahfp   0x003070    program     extern L:\solarpic_rewrite\swm8722\solar18f8722\swm8722.c
                 almcode0   0x014ef8    program     extern L:\solarpic_rewrite\swm8722\solar18f8722\mbmc_msg.h
                 almcode1   0x014f18    program     extern L:\solarpic_rewrite\swm8722\solar18f8722\mbmc_msg.h
                almcode10   0x0150ce    program     extern L:\solarpic_rewrite\swm8722\solar18f8722\mbmc_msg.h
                almcode11   0x01510f    program     extern L:\solarpic_rewrite\swm8722\solar18f8722\mbmc_msg.h
                almcode12   0x015135    program     extern L:\solarpic_rewrite\swm8722\solar18f8722\mbmc_msg.h
                almcode13   0x01515b    program     extern L:\solarpic_rewrite\swm8722\solar18f8722\mbmc_msg.h
                almcode14   0x015187    program     extern L:\solarpic_rewrite\swm8722\solar18f8722\mbmc_msg.h
                almcode15   0x01519f    program     extern L:\solarpic_rewrite\swm8722\solar18f8722\mbmc_msg.h
                almcode16   0x0151b6    program     extern L:\solarpic_rewrite\swm8722\solar18f8722\mbmc_msg.h
                almcode17   0x0151e3    program     extern L:\solarpic_rewrite\swm8722\solar18f8722\mbmc_msg.h
                almcode18   0x015202    program     extern L:\solarpic_rewrite\swm8722\solar18f8722\mbmc_msg.h
                almcode19   0x01523c    program     extern L:\solarpic_rewrite\swm8722\solar18f8722\mbmc_msg.h
                 almcode2   0x014f48    program     extern L:\solarpic_rewrite\swm8722\solar18f8722\mbmc_msg.h
                 almcode3   0x014f6b    program     extern L:\solarpic_rewrite\swm8722\solar18f8722\mbmc_msg.h
                 almcode4   0x014f8e    program     extern L:\solarpic_rewrite\swm8722\solar18f8722\mbmc_msg.h
                 almcode5   0x014fbf    program     extern L:\solarpic_rewrite\swm8722\solar18f8722\mbmc_msg.h
                 almcode6   0x014ff3    program     extern L:\solarpic_rewrite\swm8722\solar18f8722\mbmc_msg.h
                 almcode7   0x015028    program     extern L:\solarpic_rewrite\swm8722\solar18f8722\mbmc_msg.h
                 almcode8   0x015070    program     extern L:\solarpic_rewrite\swm8722\solar18f8722\mbmc_msg.h
                 almcode9   0x01509e    program     extern L:\solarpic_rewrite\swm8722\solar18f8722\mbmc_msg.h
                almcode99   0x015250    program     extern L:\solarpic_rewrite\swm8722\solar18f8722\mbmc_msg.h
                 ansidraw   0x00436a    program     extern L:\solarpic_rewrite\swm8722\solar18f8722\swm8722.c
                  asctime   0x0177c0    program     extern L:\solarpic_rewrite\swm8722\solar18f8722\timelib.c
                battalarm   0x003358    program     extern L:\solarpic_rewrite\swm8722\solar18f8722\swm8722.c
              battbuffer0   0x014dca    program     extern L:\solarpic_rewrite\swm8722\solar18f8722\mbmc_msg.h
              battheader0   0x014c80    program     extern L:\solarpic_rewrite\swm8722\solar18f8722\mbmc_msg.h
              battheader1   0x014cfa    program     extern L:\solarpic_rewrite\swm8722\solar18f8722\mbmc_msg.h
                 charger0   0x015537    program     extern L:\solarpic_rewrite\swm8722\solar18f8722\mbmc_msg.h
                 charger1   0x01556e    program     extern L:\solarpic_rewrite\swm8722\solar18f8722\mbmc_msg.h
                 charger2   0x0155d0    program     extern L:\solarpic_rewrite\swm8722\solar18f8722\mbmc_msg.h
                 charger3   0x01560e    program     extern L:\solarpic_rewrite\swm8722\solar18f8722\mbmc_msg.h
                 charger4   0x01562d    program     extern L:\solarpic_rewrite\swm8722\solar18f8722\mbmc_msg.h
                 charger5   0x01564d    program     extern L:\solarpic_rewrite\swm8722\solar18f8722\mbmc_msg.h
                charger99   0x015687    program     extern L:\solarpic_rewrite\swm8722\solar18f8722\mbmc_msg.h
            charger_power   0x0073d4    program     extern L:\solarpic_rewrite\swm8722\solar18f8722\power.c
              check_alarm   0x003364    program     extern L:\solarpic_rewrite\swm8722\solar18f8722\swm8722.c
                chrgcode0   0x015251    program     extern L:\solarpic_rewrite\swm8722\solar18f8722\mbmc_msg.h
                chrgcode1   0x015282    program     extern L:\solarpic_rewrite\swm8722\solar18f8722\mbmc_msg.h
               chrgcode10   0x0153fc    program     extern L:\solarpic_rewrite\swm8722\solar18f8722\mbmc_msg.h
               chrgcode11   0x015429    program     extern L:\solarpic_rewrite\swm8722\solar18f8722\mbmc_msg.h
               chrgcode12   0x015454    program     extern L:\solarpic_rewrite\swm8722\solar18f8722\mbmc_msg.h
               chrgcode13   0x015482    program     extern L:\solarpic_rewrite\swm8722\solar18f8722\mbmc_msg.h
               chrgcode14   0x0154af    program     extern L:\solarpic_rewrite\swm8722\solar18f8722\mbmc_msg.h
               chrgcode15   0x0154e3    program     extern L:\solarpic_rewrite\swm8722\solar18f8722\mbmc_msg.h
               chrgcode16   0x01550d    program     extern L:\solarpic_rewrite\swm8722\solar18f8722\mbmc_msg.h
                chrgcode2   0x0152b8    program     extern L:\solarpic_rewrite\swm8722\solar18f8722\mbmc_msg.h
                chrgcode3   0x0152e4    program     extern L:\solarpic_rewrite\swm8722\solar18f8722\mbmc_msg.h
                chrgcode4   0x015315    program     extern L:\solarpic_rewrite\swm8722\solar18f8722\mbmc_msg.h
                chrgcode5   0x01534d    program     extern L:\solarpic_rewrite\swm8722\solar18f8722\mbmc_msg.h
                chrgcode6   0x015360    program     extern L:\solarpic_rewrite\swm8722\solar18f8722\mbmc_msg.h
                chrgcode7   0x015380    program     extern L:\solarpic_rewrite\swm8722\solar18f8722\mbmc_msg.h
                chrgcode8   0x0153ad    program     extern L:\solarpic_rewrite\swm8722\solar18f8722\mbmc_msg.h
                chrgcode9   0x0153d7    program     extern L:\solarpic_rewrite\swm8722\solar18f8722\mbmc_msg.h
               clear_crit   0x019d2c    program     extern L:\solarpic_rewrite\swm8722\solar18f8722\crit.c
                  clr_lcd   0x000810    program     extern L:\solarpic_rewrite\swm8722\solar18f8722\swm8722.c
                compare_l   0x01b30e    program     static E:\c18v3.46\pic18-lt\cxx-framework\src\extended\proc\p18f8722.asm
               config_pic   0x019de8    program     extern L:\solarpic_rewrite\swm8722\solar18f8722\hwconf.c
                copy_loop   0x01a8a0    program     static                          
            copy_one_byte   0x01a8a6    program     static                          
                    crc16   0x01a208    program     extern L:\solarpic_rewrite\swm8722\solar18f8722\crc8_fast.c
              crc16_ccitt   0x01a28a    program     extern L:\solarpic_rewrite\swm8722\solar18f8722\crc8_fast.c
                 crc16tab   0x0194cc    program     extern L:\solarpic_rewrite\swm8722\solar18f8722\crc8_fast.c
           crc8_calculate   0x01a198    program     extern L:\solarpic_rewrite\swm8722\solar18f8722\crc8_fast.c
               crc8_table   0x0193cc    program     extern L:\solarpic_rewrite\swm8722\solar18f8722\crc8_fast.c
               days_month   0x01b132    program     extern L:\solarpic_rewrite\swm8722\solar18f8722\timelib.c
          disk_initialize   0x015ff0    program     extern L:\solarpic_rewrite\swm8722\solar18f8722\sdspi.c
           display_system   0x0020a6    program     extern L:\solarpic_rewrite\swm8722\solar18f8722\swm8722.c
                  divert0   0x014e9a    program     extern L:\solarpic_rewrite\swm8722\solar18f8722\mbmc_msg.h
                  divert1   0x014eba    program     extern L:\solarpic_rewrite\swm8722\solar18f8722\mbmc_msg.h
                 divert99   0x014ef7    program     extern L:\solarpic_rewrite\swm8722\solar18f8722\mbmc_msg.h
             divert_power   0x0074fe    program     extern L:\solarpic_rewrite\swm8722\solar18f8722\power.c
                divmod16u   0x016d54    program     static E:\c18v3.46\pic18-lt\cxx-framework\src\extended\math\div16u.asm
                divmod32u   0x016e88    program     static E:\c18v3.46\pic18-lt\cxx-framework\src\extended\math\div32u.asm
                   do_sim   0x013f64    program     extern L:\solarpic_rewrite\swm8722\solar18f8722\daq.c
                     done   0x01a8ca    program     static                          
             done_copying   0x01a8b4    program     static                          
                   e_crit   0x019c74    program     extern L:\solarpic_rewrite\swm8722\solar18f8722\crit.c
                  endloop   0x016d7a    program     static E:\c18v3.46\pic18-lt\cxx-framework\src\extended\math\div16u.asm
                      exp   0x01908e    program     extern E:\c18v3.46\pic18-lt\cxx-framework\src\extended\stdclib\exp.c
                     fabs   0x01acbe    program     extern E:\c18v3.46\pic18-lt\cxx-framework\src\extended\stdclib\fabs.c
                fail_safe   0x003b54    program     extern L:\solarpic_rewrite\swm8722\solar18f8722\swm8722.c
                    frexp   0x01a77a    program     extern E:\c18v3.46\pic18-lt\cxx-framework\src\extended\stdclib\frexp.c
                   hello0   0x0149c3    program     extern L:\solarpic_rewrite\swm8722\solar18f8722\mbmc_msg.h
                   hello1   0x014a28    program     extern L:\solarpic_rewrite\swm8722\solar18f8722\mbmc_msg.h
                       hm   0x002e7e    program     extern L:\solarpic_rewrite\swm8722\solar18f8722\swm8722.c
                      hms   0x002dee    program     extern L:\solarpic_rewrite\swm8722\solar18f8722\swm8722.c
                    hold0   0x014a3a    program     extern L:\solarpic_rewrite\swm8722\solar18f8722\mbmc_msg.h
                    hold1   0x014a93    program     extern L:\solarpic_rewrite\swm8722\solar18f8722\mbmc_msg.h
             hold_process   0x0009f6    program     extern L:\solarpic_rewrite\swm8722\solar18f8722\swm8722.c
                idle_loop   0x010cba    program     extern L:\solarpic_rewrite\swm8722\solar18f8722\mbmc_vector.c
           init_hist_data   0x0043ba    program     extern L:\solarpic_rewrite\swm8722\solar18f8722\swm8722.c
               init_sdspi   0x0166a4    program     extern L:\solarpic_rewrite\swm8722\solar18f8722\sdspi.c
                   initsd   0x004004    program     extern L:\solarpic_rewrite\swm8722\solar18f8722\swm8722.c
                  isdigit   0x01b2d4    program     extern E:\c18v3.46\pic18-lt\cxx-framework\src\extended\stdclib\isdigit.asm
                   isleap   0x01737a    program     extern L:\solarpic_rewrite\swm8722\solar18f8722\timelib.c
                   itoBCD   0x01a42e    program     extern E:\c18v3.46\pic18-lt\cxx-framework\src\extended\stdclib\itobcd.asm
                     itoa   0x01a34e    program     extern E:\c18v3.46\pic18-lt\cxx-framework\src\extended\stdclib\itoa.asm
                 jANotInf   0x0172b0    program     static E:\c18v3.46\pic18-lt\cxx-framework\src\extended\math\mulFP.asm
                 jANotInf   0x016826    program     static E:\c18v3.46\pic18-lt\cxx-framework\src\extended\math\addFP.asm
                 jANotNeg   0x0168ba    program     static E:\c18v3.46\pic18-lt\cxx-framework\src\extended\math\addFP.asm
              jAandWsetup   0x01688a    program     static E:\c18v3.46\pic18-lt\cxx-framework\src\extended\math\addFP.asm
                  jAisNeg   0x017064    program     static E:\c18v3.46\pic18-lt\cxx-framework\src\extended\math\compFP.asm
                 jAltBexp   0x016878    program     static E:\c18v3.46\pic18-lt\cxx-framework\src\extended\math\addFP.asm
                jBANotInf   0x01681c    program     static E:\c18v3.46\pic18-lt\cxx-framework\src\extended\math\addFP.asm
                 jBNotInf   0x016834    program     static E:\c18v3.46\pic18-lt\cxx-framework\src\extended\math\addFP.asm
                     jBeg   0x016ac2    program     static E:\c18v3.46\pic18-lt\cxx-framework\src\extended\math\cast32FP.asm
                     jBeg   0x0167e6    program     static E:\c18v3.46\pic18-lt\cxx-framework\src\extended\math\addFP.asm
                     jBeg   0x016a80    program     static E:\c18v3.46\pic18-lt\cxx-framework\src\extended\math\cast16FP.asm
                     jBeg   0x016a46    program     static E:\c18v3.46\pic18-lt\cxx-framework\src\extended\math\cast08FP.asm
              jBothFinite   0x0172be    program     static E:\c18v3.46\pic18-lt\cxx-framework\src\extended\math\mulFP.asm
             jBothNotZero   0x017006    program     static E:\c18v3.46\pic18-lt\cxx-framework\src\extended\math\compFP.asm
             jBothNotZero   0x0172ca    program     static E:\c18v3.46\pic18-lt\cxx-framework\src\extended\math\mulFP.asm
            jDifOrPosSign   0x016848    program     static E:\c18v3.46\pic18-lt\cxx-framework\src\extended\math\addFP.asm
              jDivANotInf   0x016f3a    program     static E:\c18v3.46\pic18-lt\cxx-framework\src\extended\math\divFP.asm
             jDivANotZero   0x016f4e    program     static E:\c18v3.46\pic18-lt\cxx-framework\src\extended\math\divFP.asm
                 jDivLoop   0x016f76    program     static E:\c18v3.46\pic18-lt\cxx-framework\src\extended\math\divFP.asm
                 jDivNext   0x016f9c    program     static E:\c18v3.46\pic18-lt\cxx-framework\src\extended\math\divFP.asm
                     jDo1   0x01a3d4    program     static E:\c18v3.46\pic18-lt\cxx-framework\src\extended\stdclib\itoa.asm
                     jDo2   0x01a3d0    program     static E:\c18v3.46\pic18-lt\cxx-framework\src\extended\stdclib\itoa.asm
                     jDo3   0x01a3cc    program     static E:\c18v3.46\pic18-lt\cxx-framework\src\extended\stdclib\itoa.asm
                     jDo4   0x01a3c8    program     static E:\c18v3.46\pic18-lt\cxx-framework\src\extended\stdclib\itoa.asm
                     jDo5   0x01a3c4    program     static E:\c18v3.46\pic18-lt\cxx-framework\src\extended\stdclib\itoa.asm
                    jDone   0x016bec    program     static E:\c18v3.46\pic18-lt\cxx-framework\src\extended\math\castFP16.asm
                    jDone   0x016c82    program     static E:\c18v3.46\pic18-lt\cxx-framework\src\extended\math\castFP32.asm
                    jDone   0x016b6a    program     static E:\c18v3.46\pic18-lt\cxx-framework\src\extended\math\castFP08.asm
                      jEQ   0x017022    program     static E:\c18v3.46\pic18-lt\cxx-framework\src\extended\math\compFP.asm
                     jEnd   0x019bb4    program     static E:\c18v3.46\pic18-lt\cxx-framework\src\extended\stdclib\slenpgm.asm
                     jEnd   0x019b7c    program     static E:\c18v3.46\pic18-lt\cxx-framework\src\extended\stdclib\sncpyp2r.asm
                     jEnd   0x019b20    program     static E:\c18v3.46\pic18-lt\cxx-framework\src\extended\stdclib\strncpy.asm
                     jEnd   0x019ad4    program     static E:\c18v3.46\pic18-lt\cxx-framework\src\extended\stdclib\strlen.asm
                     jEnd   0x019ab8    program     static E:\c18v3.46\pic18-lt\cxx-framework\src\extended\stdclib\scpyp2r.asm
                     jEnd   0x019a86    program     static E:\c18v3.46\pic18-lt\cxx-framework\src\extended\stdclib\scatp2r.asm
                     jEnd   0x01a46c    program     static E:\c18v3.46\pic18-lt\cxx-framework\src\extended\stdclib\itobcd.asm
                     jEnd   0x0199c4    program     static E:\c18v3.46\pic18-lt\cxx-framework\src\extended\stdclib\memcpy.asm
                     jEnd   0x019a1a    program     static E:\c18v3.46\pic18-lt\cxx-framework\src\extended\stdclib\mcpyp2r.asm
                     jEnd   0x019a4e    program     static E:\c18v3.46\pic18-lt\cxx-framework\src\extended\stdclib\memset.asm
                    jExch   0x01702e    program     static E:\c18v3.46\pic18-lt\cxx-framework\src\extended\math\compFP.asm
                    jExit   0x017092    program     static E:\c18v3.46\pic18-lt\cxx-framework\src\extended\math\compFP.asm
                    jExit   0x016c92    program     static E:\c18v3.46\pic18-lt\cxx-framework\src\extended\math\castFP32.asm
                    jExit   0x016b6e    program     static E:\c18v3.46\pic18-lt\cxx-framework\src\extended\math\castFP08.asm
                    jExit   0x016bf4    program     static E:\c18v3.46\pic18-lt\cxx-framework\src\extended\math\castFP16.asm
                    jExit   0x01699e    program     static E:\c18v3.46\pic18-lt\cxx-framework\src\extended\math\packFP.asm
                   jExpEQ   0x017074    program     static E:\c18v3.46\pic18-lt\cxx-framework\src\extended\math\compFP.asm
                   jFinal   0x017058    program     static E:\c18v3.46\pic18-lt\cxx-framework\src\extended\math\compFP.asm
               jFinalSign   0x016922    program     static E:\c18v3.46\pic18-lt\cxx-framework\src\extended\math\addFP.asm
                jHaveZero   0x0172c6    program     static E:\c18v3.46\pic18-lt\cxx-framework\src\extended\math\mulFP.asm
                    jLoop   0x019a30    program     static E:\c18v3.46\pic18-lt\cxx-framework\src\extended\stdclib\memset.asm
                    jLoop   0x0199fc    program     static E:\c18v3.46\pic18-lt\cxx-framework\src\extended\stdclib\mcpyp2r.asm
                    jLoop   0x019a7c    program     static E:\c18v3.46\pic18-lt\cxx-framework\src\extended\stdclib\scatp2r.asm
                    jLoop   0x019aae    program     static E:\c18v3.46\pic18-lt\cxx-framework\src\extended\stdclib\scpyp2r.asm
                    jLoop   0x019aca    program     static E:\c18v3.46\pic18-lt\cxx-framework\src\extended\stdclib\strlen.asm
                    jLoop   0x016bcc    program     static E:\c18v3.46\pic18-lt\cxx-framework\src\extended\math\castFP16.asm
                    jLoop   0x019afe    program     static E:\c18v3.46\pic18-lt\cxx-framework\src\extended\stdclib\strncpy.asm
                    jLoop   0x019b58    program     static E:\c18v3.46\pic18-lt\cxx-framework\src\extended\stdclib\sncpyp2r.asm
                    jLoop   0x0199a8    program     static E:\c18v3.46\pic18-lt\cxx-framework\src\extended\stdclib\memcpy.asm
                    jLoop   0x016c56    program     static E:\c18v3.46\pic18-lt\cxx-framework\src\extended\math\castFP32.asm
                    jLoop   0x019b9c    program     static E:\c18v3.46\pic18-lt\cxx-framework\src\extended\stdclib\slenpgm.asm
                    jLoop   0x016b52    program     static E:\c18v3.46\pic18-lt\cxx-framework\src\extended\math\castFP08.asm
                    jLoop   0x01a446    program     static E:\c18v3.46\pic18-lt\cxx-framework\src\extended\stdclib\itobcd.asm
                jLoopExit   0x016c6a    program     static E:\c18v3.46\pic18-lt\cxx-framework\src\extended\math\castFP32.asm
                jLoopExit   0x016bdc    program     static E:\c18v3.46\pic18-lt\cxx-framework\src\extended\math\castFP16.asm
                jLoopExit   0x016b60    program     static E:\c18v3.46\pic18-lt\cxx-framework\src\extended\math\castFP08.asm
                   jMatch   0x01b2f4    program     static E:\c18v3.46\pic18-lt\cxx-framework\src\extended\stdclib\isdigit.asm
                     jMax   0x016ba0    program     static E:\c18v3.46\pic18-lt\cxx-framework\src\extended\math\castFP16.asm
                     jMax   0x016c26    program     static E:\c18v3.46\pic18-lt\cxx-framework\src\extended\math\castFP32.asm
                     jMax   0x016b2e    program     static E:\c18v3.46\pic18-lt\cxx-framework\src\extended\math\castFP08.asm
                  jMaxNeg   0x016bae    program     static E:\c18v3.46\pic18-lt\cxx-framework\src\extended\math\castFP16.asm
                  jMaxNeg   0x016b38    program     static E:\c18v3.46\pic18-lt\cxx-framework\src\extended\math\castFP08.asm
                  jMaxNeg   0x016c38    program     static E:\c18v3.46\pic18-lt\cxx-framework\src\extended\math\castFP32.asm
                  jMaxPos   0x016c2a    program     static E:\c18v3.46\pic18-lt\cxx-framework\src\extended\math\castFP32.asm
                  jMaxPos   0x016ba4    program     static E:\c18v3.46\pic18-lt\cxx-framework\src\extended\math\castFP16.asm
                  jMaxPos   0x016b32    program     static E:\c18v3.46\pic18-lt\cxx-framework\src\extended\math\castFP08.asm
                      jNE   0x017026    program     static E:\c18v3.46\pic18-lt\cxx-framework\src\extended\math\compFP.asm
                jNoAdjust   0x016f9a    program     static E:\c18v3.46\pic18-lt\cxx-framework\src\extended\math\divFP.asm
                  jNoExch   0x01704e    program     static E:\c18v3.46\pic18-lt\cxx-framework\src\extended\math\compFP.asm
                 jNoMatch   0x01b2f6    program     static E:\c18v3.46\pic18-lt\cxx-framework\src\extended\stdclib\isdigit.asm
             jNotBothZero   0x01684c    program     static E:\c18v3.46\pic18-lt\cxx-framework\src\extended\math\addFP.asm
                  jNotInf   0x016bbc    program     static E:\c18v3.46\pic18-lt\cxx-framework\src\extended\math\castFP16.asm
                  jNotInf   0x016c44    program     static E:\c18v3.46\pic18-lt\cxx-framework\src\extended\math\castFP32.asm
                  jNotInf   0x016b42    program     static E:\c18v3.46\pic18-lt\cxx-framework\src\extended\math\castFP08.asm
                  jNotNeg   0x016af0    program     static E:\c18v3.46\pic18-lt\cxx-framework\src\extended\math\cast32FP.asm
                  jNotNeg   0x016aa6    program     static E:\c18v3.46\pic18-lt\cxx-framework\src\extended\math\cast16FP.asm
                  jNotNeg   0x016a66    program     static E:\c18v3.46\pic18-lt\cxx-framework\src\extended\math\cast08FP.asm
                jNullLoop   0x019a76    program     static E:\c18v3.46\pic18-lt\cxx-framework\src\extended\stdclib\scatp2r.asm
                  jPkLoop   0x016938    program     static E:\c18v3.46\pic18-lt\cxx-framework\src\extended\math\packFP.asm
             jPkRoundDone   0x016982    program     static E:\c18v3.46\pic18-lt\cxx-framework\src\extended\math\packFP.asm
               jPkRoundIt   0x01696a    program     static E:\c18v3.46\pic18-lt\cxx-framework\src\extended\math\packFP.asm
             jPkShiftDone   0x016954    program     static E:\c18v3.46\pic18-lt\cxx-framework\src\extended\math\packFP.asm
           jReturnPosInf0   0x0169c8    program     static E:\c18v3.46\pic18-lt\cxx-framework\src\extended\math\packFP.asm
                  jRotate   0x017080    program     static E:\c18v3.46\pic18-lt\cxx-framework\src\extended\math\compFP.asm
                   jShift   0x01706a    program     static E:\c18v3.46\pic18-lt\cxx-framework\src\extended\math\compFP.asm
               jShiftDone   0x0168e2    program     static E:\c18v3.46\pic18-lt\cxx-framework\src\extended\math\addFP.asm
               jShiftLoop   0x0168d4    program     static E:\c18v3.46\pic18-lt\cxx-framework\src\extended\math\addFP.asm
                jSignDone   0x016912    program     static E:\c18v3.46\pic18-lt\cxx-framework\src\extended\math\addFP.asm
                 jSignsEQ   0x01700a    program     static E:\c18v3.46\pic18-lt\cxx-framework\src\extended\math\compFP.asm
                jTstLowZ1   0x01a418    program     static E:\c18v3.46\pic18-lt\cxx-framework\src\extended\stdclib\itoa.asm
                jTstSign1   0x01a37a    program     static E:\c18v3.46\pic18-lt\cxx-framework\src\extended\stdclib\itoa.asm
                  jUnpkA1   0x0169ee    program     static E:\c18v3.46\pic18-lt\cxx-framework\src\extended\math\unpackFP.asm
                  jUnpkA2   0x016a06    program     static E:\c18v3.46\pic18-lt\cxx-framework\src\extended\math\unpackFP.asm
                 jUnpkANZ   0x0169fc    program     static E:\c18v3.46\pic18-lt\cxx-framework\src\extended\math\unpackFP.asm
                  jUnpkB1   0x016a1e    program     static E:\c18v3.46\pic18-lt\cxx-framework\src\extended\math\unpackFP.asm
                  jUnpkB2   0x016a36    program     static E:\c18v3.46\pic18-lt\cxx-framework\src\extended\math\unpackFP.asm
                 jUnpkBNZ   0x016a2c    program     static E:\c18v3.46\pic18-lt\cxx-framework\src\extended\math\unpackFP.asm
                 jUnpkNaN   0x016a10    program     static E:\c18v3.46\pic18-lt\cxx-framework\src\extended\math\unpackFP.asm
                 jWNotNeg   0x0168ce    program     static E:\c18v3.46\pic18-lt\cxx-framework\src\extended\math\addFP.asm
                   jWr123   0x016c30    program     static E:\c18v3.46\pic18-lt\cxx-framework\src\extended\math\castFP32.asm
                  jWrZ123   0x016c40    program     static E:\c18v3.46\pic18-lt\cxx-framework\src\extended\math\castFP32.asm
                    jZero   0x016b3e    program     static E:\c18v3.46\pic18-lt\cxx-framework\src\extended\math\castFP08.asm
                    jZero   0x016c3e    program     static E:\c18v3.46\pic18-lt\cxx-framework\src\extended\math\castFP32.asm
                    jZero   0x016bb6    program     static E:\c18v3.46\pic18-lt\cxx-framework\src\extended\math\castFP16.asm
               jZero1and2   0x0169cc    program     static E:\c18v3.46\pic18-lt\cxx-framework\src\extended\math\packFP.asm
                 keycmds0   0x014b37    program     extern L:\solarpic_rewrite\swm8722\solar18f8722\mbmc_msg.h
                 keycmds1   0x014bd8    program     extern L:\solarpic_rewrite\swm8722\solar18f8722\mbmc_msg.h
                    ldexp   0x01a6be    program     extern E:\c18v3.46\pic18-lt\cxx-framework\src\extended\stdclib\ldexp.c
                      log   0x0196cc    program     extern E:\c18v3.46\pic18-lt\cxx-framework\src\extended\stdclib\log.c
                     loop   0x016d5e    program     static E:\c18v3.46\pic18-lt\cxx-framework\src\extended\math\div16u.asm
                     loop   0x01b32a    program     static                          
                     loop   0x01b346    program     static E:\c18v3.46\pic18-lt\cxx-framework\src\pmc_common\USART\_usartpc.asm
                     loop   0x016e96    program     static E:\c18v3.46\pic18-lt\cxx-framework\src\extended\math\div32u.asm
                   loop_h   0x01b306    program     static E:\c18v3.46\pic18-lt\cxx-framework\src\extended\proc\p18f8722.asm
                   loop_l   0x01b310    program     static E:\c18v3.46\pic18-lt\cxx-framework\src\extended\proc\p18f8722.asm
                 lowbatt0   0x014524    program     extern L:\solarpic_rewrite\swm8722\solar18f8722\mbmc_msg.h
                lp_filter   0x000822    program     extern L:\solarpic_rewrite\swm8722\solar18f8722\swm8722.c
                     main   0x0044d6    program     extern L:\solarpic_rewrite\swm8722\solar18f8722\swm8722.c
                   memcpy   0x019980    program     extern E:\c18v3.46\pic18-lt\cxx-framework\src\extended\stdclib\memcpy.asm
            memcpypgm2ram   0x0199d6    program     extern E:\c18v3.46\pic18-lt\cxx-framework\src\extended\stdclib\mcpyp2r.asm
                   memset   0x019a1c    program     extern E:\c18v3.46\pic18-lt\cxx-framework\src\extended\stdclib\memset.asm
               mkbsstring   0x00267a    program     extern L:\solarpic_rewrite\swm8722\solar18f8722\swm8722.c
                   mktime   0x0173e2    program     extern L:\solarpic_rewrite\swm8722\solar18f8722\timelib.c
           mmc_read_block   0x016406    program     extern L:\solarpic_rewrite\swm8722\solar18f8722\sdspi.c
          mmc_write_block   0x016172    program     extern L:\solarpic_rewrite\swm8722\solar18f8722\sdspi.c
               model_data   0x018d14    program     extern L:\solarpic_rewrite\swm8722\solar18f8722\model.c
              model_learn   0x018b9e    program     extern L:\solarpic_rewrite\swm8722\solar18f8722\model.c
             modelheader0   0x014d93    program     extern L:\solarpic_rewrite\swm8722\solar18f8722\mbmc_msg.h
             modelheader1   0x014db2    program     extern L:\solarpic_rewrite\swm8722\solar18f8722\mbmc_msg.h
               noload_soc   0x0082c6    program     extern L:\solarpic_rewrite\swm8722\solar18f8722\power.c
                  offtime   0x017566    program     extern L:\solarpic_rewrite\swm8722\solar18f8722\timelib.c
                  peukert   0x0000c8    program     extern L:\solarpic_rewrite\swm8722\solar18f8722\swm8722.c
                pick_batt   0x00780a    program     extern L:\solarpic_rewrite\swm8722\solar18f8722\power.c
                      pow   0x01850e    program     extern E:\c18v3.46\pic18-lt\cxx-framework\src\extended\stdclib\pow.c
           predict_energy   0x0077ee    program     extern L:\solarpic_rewrite\swm8722\solar18f8722\power.c
                     putc   0x01aad6    program     extern E:\c18v3.46\pic18-lt\cxx-framework\src\extended\stdclib\putc.c
                    putc2   0x0007f4    program     extern L:\solarpic_rewrite\swm8722\solar18f8722\swm8722.c
              putrs2USART   0x01ac62    program     extern E:\c18v3.46\pic18-lt\cxx-framework\src\pmc_common\USART\u2putrs.c
                putrsXLCD   0x01ad0e    program     extern L:\solarpic_rewrite\swm8722\solar18f8722\xlcd\putrxlcd.c
               puts2USART   0x01ae38    program     extern E:\c18v3.46\pic18-lt\cxx-framework\src\pmc_common\USART\u2puts.c
                 putsXLCD   0x01b052    program     extern L:\solarpic_rewrite\swm8722\solar18f8722\xlcd\putsxlcd.c
              pv_pwm_calc   0x0076ce    program     extern L:\solarpic_rewrite\swm8722\solar18f8722\power.c
               pv_pwm_set   0x00766a    program     extern L:\solarpic_rewrite\swm8722\solar18f8722\power.c
          pv_pwm_shutdown   0x0077ca    program     extern L:\solarpic_rewrite\swm8722\solar18f8722\power.c
                     rand   0x01a490    program     extern E:\c18v3.46\pic18-lt\cxx-framework\src\extended\stdclib\rand.asm
                 rcvr_spi   0x015b7e    program     extern L:\solarpic_rewrite\swm8722\solar18f8722\sdspi.c
         read_data_eeprom   0x019d9a    program     extern L:\solarpic_rewrite\swm8722\solar18f8722\crit.c
                 runcode0   0x015688    program     extern L:\solarpic_rewrite\swm8722\solar18f8722\mbmc_msg.h
                 runcode1   0x0156b6    program     extern L:\solarpic_rewrite\swm8722\solar18f8722\mbmc_msg.h
                runcode10   0x01587f    program     extern L:\solarpic_rewrite\swm8722\solar18f8722\mbmc_msg.h
                 runcode2   0x0156e6    program     extern L:\solarpic_rewrite\swm8722\solar18f8722\mbmc_msg.h
                 runcode3   0x01570f    program     extern L:\solarpic_rewrite\swm8722\solar18f8722\mbmc_msg.h
                 runcode4   0x01574d    program     extern L:\solarpic_rewrite\swm8722\solar18f8722\mbmc_msg.h
                 runcode5   0x01577c    program     extern L:\solarpic_rewrite\swm8722\solar18f8722\mbmc_msg.h
                 runcode6   0x0157aa    program     extern L:\solarpic_rewrite\swm8722\solar18f8722\mbmc_msg.h
                 runcode7   0x0157e5    program     extern L:\solarpic_rewrite\swm8722\solar18f8722\mbmc_msg.h
                 runcode8   0x01580f    program     extern L:\solarpic_rewrite\swm8722\solar18f8722\mbmc_msg.h
                 runcode9   0x01584a    program     extern L:\solarpic_rewrite\swm8722\solar18f8722\mbmc_msg.h
                   s_crit   0x019bc8    program     extern L:\solarpic_rewrite\swm8722\solar18f8722\crit.c
                 s_digits   0x01b380    program     static E:\c18v3.46\pic18-lt\cxx-framework\src\extended\stdclib\vfprintf.c
            s_put_n_chars   0x017cf8    program     static E:\c18v3.46\pic18-lt\cxx-framework\src\extended\stdclib\vfprintf.c
          sd_data_layout1   0x0158b0    program     extern L:\solarpic_rewrite\swm8722\solar18f8722\mbmc_msg.h
          sd_data_layout2   0x0158f9    program     extern L:\solarpic_rewrite\swm8722\solar18f8722\mbmc_msg.h
          sd_data_layout3   0x015950    program     extern L:\solarpic_rewrite\swm8722\solar18f8722\mbmc_msg.h
          sd_data_layout4   0x015976    program     extern L:\solarpic_rewrite\swm8722\solar18f8722\mbmc_msg.h
          sd_data_layout5   0x0159ae    program     extern L:\solarpic_rewrite\swm8722\solar18f8722\mbmc_msg.h
              sd_deselect   0x015a86    program     extern L:\solarpic_rewrite\swm8722\solar18f8722\sdspi.c
                  sd_dump   0x003c8e    program     extern L:\solarpic_rewrite\swm8722\solar18f8722\swm8722.c
                sd_select   0x015a82    program     extern L:\solarpic_rewrite\swm8722\solar18f8722\sdspi.c
                  sddump0   0x014df2    program     extern L:\solarpic_rewrite\swm8722\solar18f8722\mbmc_msg.h
                  sddump1   0x014e20    program     extern L:\solarpic_rewrite\swm8722\solar18f8722\mbmc_msg.h
                  sddump2   0x014e56    program     extern L:\solarpic_rewrite\swm8722\solar18f8722\mbmc_msg.h
                  sddump3   0x014e6d    program     extern L:\solarpic_rewrite\swm8722\solar18f8722\mbmc_msg.h
                 send_cmd   0x015bb6    program     extern L:\solarpic_rewrite\swm8722\solar18f8722\sdspi.c
              send_dummys   0x015cd8    program     extern L:\solarpic_rewrite\swm8722\solar18f8722\sdspi.c
             set_adc_gain   0x0141e2    program     extern L:\solarpic_rewrite\swm8722\solar18f8722\daq.c
            set_batt_type   0x0021c0    program     extern L:\solarpic_rewrite\swm8722\solar18f8722\swm8722.c
               set_ganged   0x00223e    program     extern L:\solarpic_rewrite\swm8722\solar18f8722\swm8722.c
                set_tweak   0x00226c    program     extern L:\solarpic_rewrite\swm8722\solar18f8722\swm8722.c
                  sprintf   0x01aa64    program     extern E:\c18v3.46\pic18-lt\cxx-framework\src\extended\stdclib\sprintf.c
                    srand   0x01a482    program     extern E:\c18v3.46\pic18-lt\cxx-framework\src\extended\stdclib\rand.asm
              start_delay   0x00080c    program     extern L:\solarpic_rewrite\swm8722\solar18f8722\swm8722.c
                start_pic   0x019f94    program     extern L:\solarpic_rewrite\swm8722\solar18f8722\hwconf.c
       start_workerthread   0x019fbe    program     extern L:\solarpic_rewrite\swm8722\solar18f8722\hwconf.c
            strcatpgm2ram   0x019a50    program     extern E:\c18v3.46\pic18-lt\cxx-framework\src\extended\stdclib\scatp2r.asm
            strcpypgm2ram   0x019a88    program     extern E:\c18v3.46\pic18-lt\cxx-framework\src\extended\stdclib\scpyp2r.asm
                   strlen   0x019aba    program     extern E:\c18v3.46\pic18-lt\cxx-framework\src\extended\stdclib\strlen.asm
                strlenpgm   0x019b7e    program     extern E:\c18v3.46\pic18-lt\cxx-framework\src\extended\stdclib\slenpgm.asm
                  strncpy   0x019ad6    program     extern E:\c18v3.46\pic18-lt\cxx-framework\src\extended\stdclib\strncpy.asm
           strncpypgm2ram   0x019b32    program     extern E:\c18v3.46\pic18-lt\cxx-framework\src\extended\stdclib\sncpyp2r.asm
                    sync0   0x014ac7    program     extern L:\solarpic_rewrite\swm8722\solar18f8722\mbmc_msg.h
                    sync1   0x014afb    program     extern L:\solarpic_rewrite\swm8722\solar18f8722\mbmc_msg.h
                    sync2   0x014b19    program     extern L:\solarpic_rewrite\swm8722\solar18f8722\mbmc_msg.h
             sync_battsoc   0x002056    program     extern L:\solarpic_rewrite\swm8722\solar18f8722\swm8722.c
              system_data   0x000a36    program     extern L:\solarpic_rewrite\swm8722\solar18f8722\swm8722.c
              system_help   0x00203a    program     extern L:\solarpic_rewrite\swm8722\solar18f8722\swm8722.c
                term_time   0x000920    program     extern L:\solarpic_rewrite\swm8722\solar18f8722\swm8722.c
                     test   0x01a848    program     static                          
                  tformat   0x01b10e    program     extern L:\solarpic_rewrite\swm8722\solar18f8722\timelib.c
             tick_handler   0x00cb08    program     extern L:\solarpic_rewrite\swm8722\solar18f8722\mbmc_vector.c
                 tick_int   0x000008    program     extern L:\solarpic_rewrite\swm8722\solar18f8722\swm8722.c
                   tweak0   0x014782    program     extern L:\solarpic_rewrite\swm8722\solar18f8722\mbmc_msg.h
                   tweak1   0x01481f    program     extern L:\solarpic_rewrite\swm8722\solar18f8722\mbmc_msg.h
                   tweak2   0x014848    program     extern L:\solarpic_rewrite\swm8722\solar18f8722\mbmc_msg.h
                   tweak3   0x01486c    program     extern L:\solarpic_rewrite\swm8722\solar18f8722\mbmc_msg.h
                   tweak4   0x0148eb    program     extern L:\solarpic_rewrite\swm8722\solar18f8722\mbmc_msg.h
                   tweak5   0x01491b    program     extern L:\solarpic_rewrite\swm8722\solar18f8722\mbmc_msg.h
                 tweak_t1   0x0149a1    program     extern L:\solarpic_rewrite\swm8722\solar18f8722\mbmc_msg.h
                 tweak_t2   0x0149a6    program     extern L:\solarpic_rewrite\swm8722\solar18f8722\mbmc_msg.h
                 tweak_t3   0x0149aa    program     extern L:\solarpic_rewrite\swm8722\solar18f8722\mbmc_msg.h
                 tweak_t4   0x0149ae    program     extern L:\solarpic_rewrite\swm8722\solar18f8722\mbmc_msg.h
                 tweak_tw   0x0149b3    program     extern L:\solarpic_rewrite\swm8722\solar18f8722\mbmc_msg.h
               update_cef   0x0036c6    program     extern L:\solarpic_rewrite\swm8722\solar18f8722\swm8722.c
              update_hist   0x0003ec    program     extern L:\solarpic_rewrite\swm8722\solar18f8722\swm8722.c
                 vfprintf   0x017d2a    program     extern E:\c18v3.46\pic18-lt\cxx-framework\src\extended\stdclib\vfprintf.c
                   voltfp   0x002f70    program     extern L:\solarpic_rewrite\swm8722\solar18f8722\swm8722.c
                  voltfpi   0x002fa4    program     extern L:\solarpic_rewrite\swm8722\solar18f8722\swm8722.c
                  voltfps   0x002f8a    program     extern L:\solarpic_rewrite\swm8722\solar18f8722\swm8722.c
               wait_ready   0x015b84    program     extern L:\solarpic_rewrite\swm8722\solar18f8722\sdspi.c
                 wdtdelay   0x00067e    program     extern L:\solarpic_rewrite\swm8722\solar18f8722\swm8722.c
                  wdttime   0x0006c0    program     extern L:\solarpic_rewrite\swm8722\solar18f8722\swm8722.c
            wipe_sdbuffer   0x01615a    program     extern L:\solarpic_rewrite\swm8722\solar18f8722\sdspi.c
             work_handler   0x00e108    program     extern L:\solarpic_rewrite\swm8722\solar18f8722\mbmc_vector.c
                 work_int   0x000018    program     extern L:\solarpic_rewrite\swm8722\solar18f8722\swm8722.c
        write_data_eeprom   0x019d3c    program     extern L:\solarpic_rewrite\swm8722\solar18f8722\crit.c
                 xmit_spi   0x015b4a    program     extern L:\solarpic_rewrite\swm8722\solar18f8722\sdspi.c
                    zero0   0x014567    program     extern L:\solarpic_rewrite\swm8722\solar18f8722\mbmc_msg.h
                    zero1   0x014597    program     extern L:\solarpic_rewrite\swm8722\solar18f8722\mbmc_msg.h
                    zero2   0x0145d3    program     extern L:\solarpic_rewrite\swm8722\solar18f8722\mbmc_msg.h
                    zero3   0x014607    program     extern L:\solarpic_rewrite\swm8722\solar18f8722\mbmc_msg.h
              zero_amploc   0x014316    program     extern L:\solarpic_rewrite\swm8722\solar18f8722\daq.c
           zero_amploc_PV   0x014456    program     extern L:\solarpic_rewrite\swm8722\solar18f8722\daq.c
               zero_block   0x01b306    program     static E:\c18v3.46\pic18-lt\cxx-framework\src\extended\proc\p18f8722.asm
                   ADCON0   0x000fc2       data     extern E:\c18v3.46\pic18-lt\cxx-framework\src\extended\proc\p18f8722.asm
               ADCON0bits   0x000fc2       data     extern E:\c18v3.46\pic18-lt\cxx-framework\src\extended\proc\p18f8722.asm
                   ADCON1   0x000fc1       data     extern E:\c18v3.46\pic18-lt\cxx-framework\src\extended\proc\p18f8722.asm
               ADCON1bits   0x000fc1       data     extern E:\c18v3.46\pic18-lt\cxx-framework\src\extended\proc\p18f8722.asm
                   ADCON2   0x000fc0       data     extern E:\c18v3.46\pic18-lt\cxx-framework\src\extended\proc\p18f8722.asm
               ADCON2bits   0x000fc0       data     extern E:\c18v3.46\pic18-lt\cxx-framework\src\extended\proc\p18f8722.asm
                    ADRES   0x000fc3       data     extern E:\c18v3.46\pic18-lt\cxx-framework\src\extended\proc\p18f8722.asm
                   ADRESH   0x000fc4       data     extern E:\c18v3.46\pic18-lt\cxx-framework\src\extended\proc\p18f8722.asm
                   ADRESL   0x000fc3       data     extern E:\c18v3.46\pic18-lt\cxx-framework\src\extended\proc\p18f8722.asm
                        B   0x000332       data     extern L:\solarpic_rewrite\swm8722\solar18f8722\swm8722.c
                       B0   0x0002e8       data     extern L:\solarpic_rewrite\swm8722\solar18f8722\swm8722.c
                       B1   0x0002e9       data     extern L:\solarpic_rewrite\swm8722\solar18f8722\swm8722.c
                       B2   0x0002ea       data     extern L:\solarpic_rewrite\swm8722\solar18f8722\swm8722.c
                       B3   0x0002eb       data     extern L:\solarpic_rewrite\swm8722\solar18f8722\swm8722.c
                       B4   0x0002ec       data     extern L:\solarpic_rewrite\swm8722\solar18f8722\swm8722.c
                BATCHARGE   0x00002c       data     static L:\solarpic_rewrite\swm8722\solar18f8722\power.c
                  BAUDCON   0x000f7e       data     extern E:\c18v3.46\pic18-lt\cxx-framework\src\extended\proc\p18f8722.asm
                 BAUDCON1   0x000f7e       data     extern E:\c18v3.46\pic18-lt\cxx-framework\src\extended\proc\p18f8722.asm
             BAUDCON1bits   0x000f7e       data     extern E:\c18v3.46\pic18-lt\cxx-framework\src\extended\proc\p18f8722.asm
                 BAUDCON2   0x000f7c       data     extern E:\c18v3.46\pic18-lt\cxx-framework\src\extended\proc\p18f8722.asm
             BAUDCON2bits   0x000f7c       data     extern E:\c18v3.46\pic18-lt\cxx-framework\src\extended\proc\p18f8722.asm
              BAUDCONbits   0x000f7e       data     extern E:\c18v3.46\pic18-lt\cxx-framework\src\extended\proc\p18f8722.asm
                BLANK_LCD   0x00042f       data     extern L:\solarpic_rewrite\swm8722\solar18f8722\swm8722.c
                BLENDMODE   0x000d93       data     extern L:\solarpic_rewrite\swm8722\solar18f8722\swm8722.c
                   BMMODE   0x0003d9       data     extern L:\solarpic_rewrite\swm8722\solar18f8722\swm8722.c
              BOOT_STATUS   0x000d79       data     extern L:\solarpic_rewrite\swm8722\solar18f8722\swm8722.c
                      BSR   0x000fe0       data     extern E:\c18v3.46\pic18-lt\cxx-framework\src\extended\proc\p18f8722.asm
                 B_GANGED   0x0002ed       data     extern L:\solarpic_rewrite\swm8722\solar18f8722\swm8722.c
                        C   0x000328       data     extern L:\solarpic_rewrite\swm8722\solar18f8722\swm8722.c
                    CCEFF   0x000266       data     extern L:\solarpic_rewrite\swm8722\solar18f8722\swm8722.c
               CCEFF_DIFF   0x000268       data     extern L:\solarpic_rewrite\swm8722\solar18f8722\swm8722.c
           CCEFF_DIFF_tmp   0x000f3b       data     static L:\solarpic_rewrite\swm8722\solar18f8722\power.c
                CCEFF_tmp   0x00003c       data     static L:\solarpic_rewrite\swm8722\solar18f8722\power.c
                      CCM   0x000851       data     extern L:\solarpic_rewrite\swm8722\solar18f8722\swm8722.c
                   CCMODE   0x0003d8       data     extern L:\solarpic_rewrite\swm8722\solar18f8722\swm8722.c
                  CCP1CON   0x000fbd       data     extern E:\c18v3.46\pic18-lt\cxx-framework\src\extended\proc\p18f8722.asm
              CCP1CONbits   0x000fbd       data     extern E:\c18v3.46\pic18-lt\cxx-framework\src\extended\proc\p18f8722.asm
                  CCP2CON   0x000fba       data     extern E:\c18v3.46\pic18-lt\cxx-framework\src\extended\proc\p18f8722.asm
              CCP2CONbits   0x000fba       data     extern E:\c18v3.46\pic18-lt\cxx-framework\src\extended\proc\p18f8722.asm
                  CCP3CON   0x000fb7       data     extern E:\c18v3.46\pic18-lt\cxx-framework\src\extended\proc\p18f8722.asm
              CCP3CONbits   0x000fb7       data     extern E:\c18v3.46\pic18-lt\cxx-framework\src\extended\proc\p18f8722.asm
                  CCP4CON   0x000f73       data     extern E:\c18v3.46\pic18-lt\cxx-framework\src\extended\proc\p18f8722.asm
              CCP4CONbits   0x000f73       data     extern E:\c18v3.46\pic18-lt\cxx-framework\src\extended\proc\p18f8722.asm
                  CCP5CON   0x000f70       data     extern E:\c18v3.46\pic18-lt\cxx-framework\src\extended\proc\p18f8722.asm
              CCP5CONbits   0x000f70       data     extern E:\c18v3.46\pic18-lt\cxx-framework\src\extended\proc\p18f8722.asm
                    CCPR1   0x000fbe       data     extern E:\c18v3.46\pic18-lt\cxx-framework\src\extended\proc\p18f8722.asm
                   CCPR1H   0x000fbf       data     extern E:\c18v3.46\pic18-lt\cxx-framework\src\extended\proc\p18f8722.asm
                   CCPR1L   0x000fbe       data     extern E:\c18v3.46\pic18-lt\cxx-framework\src\extended\proc\p18f8722.asm
                    CCPR2   0x000fbb       data     extern E:\c18v3.46\pic18-lt\cxx-framework\src\extended\proc\p18f8722.asm
                   CCPR2H   0x000fbc       data     extern E:\c18v3.46\pic18-lt\cxx-framework\src\extended\proc\p18f8722.asm
                   CCPR2L   0x000fbb       data     extern E:\c18v3.46\pic18-lt\cxx-framework\src\extended\proc\p18f8722.asm
                    CCPR3   0x000fb8       data     extern E:\c18v3.46\pic18-lt\cxx-framework\src\extended\proc\p18f8722.asm
                   CCPR3H   0x000fb9       data     extern E:\c18v3.46\pic18-lt\cxx-framework\src\extended\proc\p18f8722.asm
                   CCPR3L   0x000fb8       data     extern E:\c18v3.46\pic18-lt\cxx-framework\src\extended\proc\p18f8722.asm
                    CCPR4   0x000f74       data     extern E:\c18v3.46\pic18-lt\cxx-framework\src\extended\proc\p18f8722.asm
                   CCPR4H   0x000f75       data     extern E:\c18v3.46\pic18-lt\cxx-framework\src\extended\proc\p18f8722.asm
                   CCPR4L   0x000f74       data     extern E:\c18v3.46\pic18-lt\cxx-framework\src\extended\proc\p18f8722.asm
                    CCPR5   0x000f71       data     extern E:\c18v3.46\pic18-lt\cxx-framework\src\extended\proc\p18f8722.asm
                   CCPR5H   0x000f72       data     extern E:\c18v3.46\pic18-lt\cxx-framework\src\extended\proc\p18f8722.asm
                   CCPR5L   0x000f71       data     extern E:\c18v3.46\pic18-lt\cxx-framework\src\extended\proc\p18f8722.asm
                      CCS   0x000d56       data     extern L:\solarpic_rewrite\swm8722\solar18f8722\swm8722.c
                  CC_DONE   0x000041       data     static L:\solarpic_rewrite\swm8722\solar18f8722\power.c
                    CMCON   0x000fb4       data     extern E:\c18v3.46\pic18-lt\cxx-framework\src\extended\proc\p18f8722.asm
                CMCONbits   0x000fb4       data     extern E:\c18v3.46\pic18-lt\cxx-framework\src\extended\proc\p18f8722.asm
                  COOLING   0x000436       data     extern L:\solarpic_rewrite\swm8722\solar18f8722\swm8722.c
                    CRITC   0x000d78       data     extern L:\solarpic_rewrite\swm8722\solar18f8722\swm8722.c
                   CVRCON   0x000fb5       data     extern E:\c18v3.46\pic18-lt\cxx-framework\src\extended\proc\p18f8722.asm
               CVRCONbits   0x000fb5       data     extern E:\c18v3.46\pic18-lt\cxx-framework\src\extended\proc\p18f8722.asm
               C_MSG_STOP   0x000003       data     static L:\solarpic_rewrite\swm8722\solar18f8722\power.c
                     DDRA   0x000f92       data     extern E:\c18v3.46\pic18-lt\cxx-framework\src\extended\proc\p18f8722.asm
                 DDRAbits   0x000f92       data     extern E:\c18v3.46\pic18-lt\cxx-framework\src\extended\proc\p18f8722.asm
                     DDRB   0x000f93       data     extern E:\c18v3.46\pic18-lt\cxx-framework\src\extended\proc\p18f8722.asm
                 DDRBbits   0x000f93       data     extern E:\c18v3.46\pic18-lt\cxx-framework\src\extended\proc\p18f8722.asm
                     DDRC   0x000f94       data     extern E:\c18v3.46\pic18-lt\cxx-framework\src\extended\proc\p18f8722.asm
                 DDRCbits   0x000f94       data     extern E:\c18v3.46\pic18-lt\cxx-framework\src\extended\proc\p18f8722.asm
                     DDRD   0x000f95       data     extern E:\c18v3.46\pic18-lt\cxx-framework\src\extended\proc\p18f8722.asm
                 DDRDbits   0x000f95       data     extern E:\c18v3.46\pic18-lt\cxx-framework\src\extended\proc\p18f8722.asm
                     DDRE   0x000f96       data     extern E:\c18v3.46\pic18-lt\cxx-framework\src\extended\proc\p18f8722.asm
                 DDREbits   0x000f96       data     extern E:\c18v3.46\pic18-lt\cxx-framework\src\extended\proc\p18f8722.asm
                     DDRF   0x000f97       data     extern E:\c18v3.46\pic18-lt\cxx-framework\src\extended\proc\p18f8722.asm
                 DDRFbits   0x000f97       data     extern E:\c18v3.46\pic18-lt\cxx-framework\src\extended\proc\p18f8722.asm
                     DDRG   0x000f98       data     extern E:\c18v3.46\pic18-lt\cxx-framework\src\extended\proc\p18f8722.asm
                 DDRGbits   0x000f98       data     extern E:\c18v3.46\pic18-lt\cxx-framework\src\extended\proc\p18f8722.asm
                     DDRH   0x000f99       data     extern E:\c18v3.46\pic18-lt\cxx-framework\src\extended\proc\p18f8722.asm
                 DDRHbits   0x000f99       data     extern E:\c18v3.46\pic18-lt\cxx-framework\src\extended\proc\p18f8722.asm
                     DDRJ   0x000f9a       data     extern E:\c18v3.46\pic18-lt\cxx-framework\src\extended\proc\p18f8722.asm
                 DDRJbits   0x000f9a       data     extern E:\c18v3.46\pic18-lt\cxx-framework\src\extended\proc\p18f8722.asm
             DISPLAY_MODE   0x000432       data     extern L:\solarpic_rewrite\swm8722\solar18f8722\swm8722.c
            DIVERSION_set   0x000d52       data     extern L:\solarpic_rewrite\swm8722\solar18f8722\swm8722.c
                    D_OFF   0x000002       data     static L:\solarpic_rewrite\swm8722\solar18f8722\power.c
                     D_ON   0x000001       data     static L:\solarpic_rewrite\swm8722\solar18f8722\power.c
                 D_UPDATE   0x000433       data     extern L:\solarpic_rewrite\swm8722\solar18f8722\swm8722.c
                    D_tmp   0x000dfa       data     static L:\solarpic_rewrite\swm8722\solar18f8722\mbmc_vector.c
            DelayCounter1   0x000f57       data     extern E:\c18v3.46\pic18-lt\cxx-framework\src\extended\delays\delayd1.asm
            DelayCounter2   0x000f56       data     extern E:\c18v3.46\pic18-lt\cxx-framework\src\extended\delays\delayd2.asm
                  ECCP1AS   0x000fb6       data     extern E:\c18v3.46\pic18-lt\cxx-framework\src\extended\proc\p18f8722.asm
              ECCP1ASbits   0x000fb6       data     extern E:\c18v3.46\pic18-lt\cxx-framework\src\extended\proc\p18f8722.asm
                 ECCP1CON   0x000fbd       data     extern E:\c18v3.46\pic18-lt\cxx-framework\src\extended\proc\p18f8722.asm
             ECCP1CONbits   0x000fbd       data     extern E:\c18v3.46\pic18-lt\cxx-framework\src\extended\proc\p18f8722.asm
                 ECCP1DEL   0x000f79       data     extern E:\c18v3.46\pic18-lt\cxx-framework\src\extended\proc\p18f8722.asm
             ECCP1DELbits   0x000f79       data     extern E:\c18v3.46\pic18-lt\cxx-framework\src\extended\proc\p18f8722.asm
                  ECCP2AS   0x000f68       data     extern E:\c18v3.46\pic18-lt\cxx-framework\src\extended\proc\p18f8722.asm
              ECCP2ASbits   0x000f68       data     extern E:\c18v3.46\pic18-lt\cxx-framework\src\extended\proc\p18f8722.asm
                 ECCP2CON   0x000fba       data     extern E:\c18v3.46\pic18-lt\cxx-framework\src\extended\proc\p18f8722.asm
             ECCP2CONbits   0x000fba       data     extern E:\c18v3.46\pic18-lt\cxx-framework\src\extended\proc\p18f8722.asm
                 ECCP2DEL   0x000f67       data     extern E:\c18v3.46\pic18-lt\cxx-framework\src\extended\proc\p18f8722.asm
             ECCP2DELbits   0x000f67       data     extern E:\c18v3.46\pic18-lt\cxx-framework\src\extended\proc\p18f8722.asm
                  ECCP3AS   0x000f6a       data     extern E:\c18v3.46\pic18-lt\cxx-framework\src\extended\proc\p18f8722.asm
              ECCP3ASbits   0x000f6a       data     extern E:\c18v3.46\pic18-lt\cxx-framework\src\extended\proc\p18f8722.asm
                 ECCP3CON   0x000fb7       data     extern E:\c18v3.46\pic18-lt\cxx-framework\src\extended\proc\p18f8722.asm
             ECCP3CONbits   0x000fb7       data     extern E:\c18v3.46\pic18-lt\cxx-framework\src\extended\proc\p18f8722.asm
                 ECCP3DEL   0x000f69       data     extern E:\c18v3.46\pic18-lt\cxx-framework\src\extended\proc\p18f8722.asm
             ECCP3DELbits   0x000f69       data     extern E:\c18v3.46\pic18-lt\cxx-framework\src\extended\proc\p18f8722.asm
                    EEADR   0x000fa9       data     extern E:\c18v3.46\pic18-lt\cxx-framework\src\extended\proc\p18f8722.asm
                   EEADRH   0x000faa       data     extern E:\c18v3.46\pic18-lt\cxx-framework\src\extended\proc\p18f8722.asm
                   EECON1   0x000fa6       data     extern E:\c18v3.46\pic18-lt\cxx-framework\src\extended\proc\p18f8722.asm
               EECON1bits   0x000fa6       data     extern E:\c18v3.46\pic18-lt\cxx-framework\src\extended\proc\p18f8722.asm
                   EECON2   0x000fa7       data     extern E:\c18v3.46\pic18-lt\cxx-framework\src\extended\proc\p18f8722.asm
                   EEDATA   0x000fa8       data     extern E:\c18v3.46\pic18-lt\cxx-framework\src\extended\proc\p18f8722.asm
                   EEP_ER   0x000441       data     extern L:\solarpic_rewrite\swm8722\solar18f8722\swm8722.c
                 FORCEDAY   0x000435       data     extern L:\solarpic_rewrite\swm8722\solar18f8722\swm8722.c
                     FSR0   0x000fe9       data     extern E:\c18v3.46\pic18-lt\cxx-framework\src\extended\proc\p18f8722.asm
                    FSR0H   0x000fea       data     extern E:\c18v3.46\pic18-lt\cxx-framework\src\extended\proc\p18f8722.asm
                    FSR0L   0x000fe9       data     extern E:\c18v3.46\pic18-lt\cxx-framework\src\extended\proc\p18f8722.asm
                     FSR1   0x000fe1       data     extern E:\c18v3.46\pic18-lt\cxx-framework\src\extended\proc\p18f8722.asm
                    FSR1H   0x000fe2       data     extern E:\c18v3.46\pic18-lt\cxx-framework\src\extended\proc\p18f8722.asm
                    FSR1L   0x000fe1       data     extern E:\c18v3.46\pic18-lt\cxx-framework\src\extended\proc\p18f8722.asm
                     FSR2   0x000fd9       data     extern E:\c18v3.46\pic18-lt\cxx-framework\src\extended\proc\p18f8722.asm
                    FSR2H   0x000fda       data     extern E:\c18v3.46\pic18-lt\cxx-framework\src\extended\proc\p18f8722.asm
                    FSR2L   0x000fd9       data     extern E:\c18v3.46\pic18-lt\cxx-framework\src\extended\proc\p18f8722.asm
              GANGED_MODE   0x000447       data     extern L:\solarpic_rewrite\swm8722\solar18f8722\swm8722.c
            GANG_OVERRIDE   0x000448       data     extern L:\solarpic_rewrite\swm8722\solar18f8722\swm8722.c
             GLITCH_CHECK   0x000434       data     extern L:\solarpic_rewrite\swm8722\solar18f8722\swm8722.c
                    HCRIT   0x000801       data     extern L:\solarpic_rewrite\swm8722\solar18f8722\swm8722.c
                  HLVDCON   0x000fd2       data     extern E:\c18v3.46\pic18-lt\cxx-framework\src\extended\proc\p18f8722.asm
              HLVDCONbits   0x000fd2       data     extern E:\c18v3.46\pic18-lt\cxx-framework\src\extended\proc\p18f8722.asm
                HOST_BUSY   0x000060       data     extern L:\solarpic_rewrite\swm8722\solar18f8722\swm8722.c
                HOST_COMM   0x000061       data     extern L:\solarpic_rewrite\swm8722\solar18f8722\swm8722.c
                    H_tmp   0x0002f6       data     static L:\solarpic_rewrite\swm8722\solar18f8722\mbmc_vector.c
                    H_tmp   0x000f55       data     static L:\solarpic_rewrite\swm8722\solar18f8722\crit.c
                    H_tmp   0x000f54       data     static L:\solarpic_rewrite\swm8722\solar18f8722\crit.c
                    INDF0   0x000fef       data     extern E:\c18v3.46\pic18-lt\cxx-framework\src\extended\proc\p18f8722.asm
                    INDF1   0x000fe7       data     extern E:\c18v3.46\pic18-lt\cxx-framework\src\extended\proc\p18f8722.asm
                    INDF2   0x000fdf       data     extern E:\c18v3.46\pic18-lt\cxx-framework\src\extended\proc\p18f8722.asm
                   INTCON   0x000ff2       data     extern E:\c18v3.46\pic18-lt\cxx-framework\src\extended\proc\p18f8722.asm
                  INTCON2   0x000ff1       data     extern E:\c18v3.46\pic18-lt\cxx-framework\src\extended\proc\p18f8722.asm
              INTCON2bits   0x000ff1       data     extern E:\c18v3.46\pic18-lt\cxx-framework\src\extended\proc\p18f8722.asm
                  INTCON3   0x000ff0       data     extern E:\c18v3.46\pic18-lt\cxx-framework\src\extended\proc\p18f8722.asm
              INTCON3bits   0x000ff0       data     extern E:\c18v3.46\pic18-lt\cxx-framework\src\extended\proc\p18f8722.asm
               INTCONbits   0x000ff2       data     extern E:\c18v3.46\pic18-lt\cxx-framework\src\extended\proc\p18f8722.asm
                     IPR1   0x000f9f       data     extern E:\c18v3.46\pic18-lt\cxx-framework\src\extended\proc\p18f8722.asm
                 IPR1bits   0x000f9f       data     extern E:\c18v3.46\pic18-lt\cxx-framework\src\extended\proc\p18f8722.asm
                     IPR2   0x000fa2       data     extern E:\c18v3.46\pic18-lt\cxx-framework\src\extended\proc\p18f8722.asm
                 IPR2bits   0x000fa2       data     extern E:\c18v3.46\pic18-lt\cxx-framework\src\extended\proc\p18f8722.asm
                     IPR3   0x000fa5       data     extern E:\c18v3.46\pic18-lt\cxx-framework\src\extended\proc\p18f8722.asm
                 IPR3bits   0x000fa5       data     extern E:\c18v3.46\pic18-lt\cxx-framework\src\extended\proc\p18f8722.asm
                     LATA   0x000f89       data     extern E:\c18v3.46\pic18-lt\cxx-framework\src\extended\proc\p18f8722.asm
                 LATAbits   0x000f89       data     extern E:\c18v3.46\pic18-lt\cxx-framework\src\extended\proc\p18f8722.asm
                     LATB   0x000f8a       data     extern E:\c18v3.46\pic18-lt\cxx-framework\src\extended\proc\p18f8722.asm
                 LATBbits   0x000f8a       data     extern E:\c18v3.46\pic18-lt\cxx-framework\src\extended\proc\p18f8722.asm
                     LATC   0x000f8b       data     extern E:\c18v3.46\pic18-lt\cxx-framework\src\extended\proc\p18f8722.asm
                 LATCbits   0x000f8b       data     extern E:\c18v3.46\pic18-lt\cxx-framework\src\extended\proc\p18f8722.asm
                     LATD   0x000f8c       data     extern E:\c18v3.46\pic18-lt\cxx-framework\src\extended\proc\p18f8722.asm
                 LATDbits   0x000f8c       data     extern E:\c18v3.46\pic18-lt\cxx-framework\src\extended\proc\p18f8722.asm
                     LATE   0x000f8d       data     extern E:\c18v3.46\pic18-lt\cxx-framework\src\extended\proc\p18f8722.asm
                 LATEbits   0x000f8d       data     extern E:\c18v3.46\pic18-lt\cxx-framework\src\extended\proc\p18f8722.asm
                     LATF   0x000f8e       data     extern E:\c18v3.46\pic18-lt\cxx-framework\src\extended\proc\p18f8722.asm
                 LATFbits   0x000f8e       data     extern E:\c18v3.46\pic18-lt\cxx-framework\src\extended\proc\p18f8722.asm
                     LATG   0x000f8f       data     extern E:\c18v3.46\pic18-lt\cxx-framework\src\extended\proc\p18f8722.asm
                 LATGbits   0x000f8f       data     extern E:\c18v3.46\pic18-lt\cxx-framework\src\extended\proc\p18f8722.asm
                     LATH   0x000f90       data     extern E:\c18v3.46\pic18-lt\cxx-framework\src\extended\proc\p18f8722.asm
                 LATHbits   0x000f90       data     extern E:\c18v3.46\pic18-lt\cxx-framework\src\extended\proc\p18f8722.asm
                     LATJ   0x000f91       data     extern E:\c18v3.46\pic18-lt\cxx-framework\src\extended\proc\p18f8722.asm
                 LATJbits   0x000f91       data     extern E:\c18v3.46\pic18-lt\cxx-framework\src\extended\proc\p18f8722.asm
                    LCRIT   0x000809       data     extern L:\solarpic_rewrite\swm8722\solar18f8722\swm8722.c
                     LINK   0x0000ee       data     extern L:\solarpic_rewrite\swm8722\solar18f8722\swm8722.c
                   LVDCON   0x000fd2       data     extern E:\c18v3.46\pic18-lt\cxx-framework\src\extended\proc\p18f8722.asm
               LVDCONbits   0x000fd2       data     extern E:\c18v3.46\pic18-lt\cxx-framework\src\extended\proc\p18f8722.asm
                     MBMC   0x000100       data     extern L:\solarpic_rewrite\swm8722\solar18f8722\swm8722.c
                   MEMCON   0x000f9c       data     extern E:\c18v3.46\pic18-lt\cxx-framework\src\extended\proc\p18f8722.asm
               MEMCONbits   0x000f9c       data     extern E:\c18v3.46\pic18-lt\cxx-framework\src\extended\proc\p18f8722.asm
          MMC_volume_Info   0x00038b       data     extern L:\solarpic_rewrite\swm8722\solar18f8722\swm8722.c
                 MOD_DATA   0x00043c       data     extern L:\solarpic_rewrite\swm8722\solar18f8722\swm8722.c
                   OSCCON   0x000fd3       data     extern E:\c18v3.46\pic18-lt\cxx-framework\src\extended\proc\p18f8722.asm
               OSCCONbits   0x000fd3       data     extern E:\c18v3.46\pic18-lt\cxx-framework\src\extended\proc\p18f8722.asm
                  OSCTUNE   0x000f9b       data     extern E:\c18v3.46\pic18-lt\cxx-framework\src\extended\proc\p18f8722.asm
              OSCTUNEbits   0x000f9b       data     extern E:\c18v3.46\pic18-lt\cxx-framework\src\extended\proc\p18f8722.asm
                        P   0x000424       data     extern L:\solarpic_rewrite\swm8722\solar18f8722\swm8722.c
                       PC   0x000ff9       data     extern E:\c18v3.46\pic18-lt\cxx-framework\src\extended\proc\p18f8722.asm
                      PCL   0x000ff9       data     extern E:\c18v3.46\pic18-lt\cxx-framework\src\extended\proc\p18f8722.asm
                   PCLATH   0x000ffa       data     extern E:\c18v3.46\pic18-lt\cxx-framework\src\extended\proc\p18f8722.asm
                   PCLATU   0x000ffb       data     extern E:\c18v3.46\pic18-lt\cxx-framework\src\extended\proc\p18f8722.asm
                PERKOSW_R   0x000442       data     extern L:\solarpic_rewrite\swm8722\solar18f8722\swm8722.c
                     PIE1   0x000f9d       data     extern E:\c18v3.46\pic18-lt\cxx-framework\src\extended\proc\p18f8722.asm
                 PIE1bits   0x000f9d       data     extern E:\c18v3.46\pic18-lt\cxx-framework\src\extended\proc\p18f8722.asm
                     PIE2   0x000fa0       data     extern E:\c18v3.46\pic18-lt\cxx-framework\src\extended\proc\p18f8722.asm
                 PIE2bits   0x000fa0       data     extern E:\c18v3.46\pic18-lt\cxx-framework\src\extended\proc\p18f8722.asm
                     PIE3   0x000fa3       data     extern E:\c18v3.46\pic18-lt\cxx-framework\src\extended\proc\p18f8722.asm
                 PIE3bits   0x000fa3       data     extern E:\c18v3.46\pic18-lt\cxx-framework\src\extended\proc\p18f8722.asm
                     PIR1   0x000f9e       data     extern E:\c18v3.46\pic18-lt\cxx-framework\src\extended\proc\p18f8722.asm
                 PIR1bits   0x000f9e       data     extern E:\c18v3.46\pic18-lt\cxx-framework\src\extended\proc\p18f8722.asm
                     PIR2   0x000fa1       data     extern E:\c18v3.46\pic18-lt\cxx-framework\src\extended\proc\p18f8722.asm
                 PIR2bits   0x000fa1       data     extern E:\c18v3.46\pic18-lt\cxx-framework\src\extended\proc\p18f8722.asm
                     PIR3   0x000fa4       data     extern E:\c18v3.46\pic18-lt\cxx-framework\src\extended\proc\p18f8722.asm
                 PIR3bits   0x000fa4       data     extern E:\c18v3.46\pic18-lt\cxx-framework\src\extended\proc\p18f8722.asm
                   PLUSW0   0x000feb       data     extern E:\c18v3.46\pic18-lt\cxx-framework\src\extended\proc\p18f8722.asm
                   PLUSW1   0x000fe3       data     extern E:\c18v3.46\pic18-lt\cxx-framework\src\extended\proc\p18f8722.asm
                   PLUSW2   0x000fdb       data     extern E:\c18v3.46\pic18-lt\cxx-framework\src\extended\proc\p18f8722.asm
                    PORTA   0x000f80       data     extern E:\c18v3.46\pic18-lt\cxx-framework\src\extended\proc\p18f8722.asm
                PORTAbits   0x000f80       data     extern E:\c18v3.46\pic18-lt\cxx-framework\src\extended\proc\p18f8722.asm
                    PORTB   0x000f81       data     extern E:\c18v3.46\pic18-lt\cxx-framework\src\extended\proc\p18f8722.asm
                PORTBbits   0x000f81       data     extern E:\c18v3.46\pic18-lt\cxx-framework\src\extended\proc\p18f8722.asm
                    PORTC   0x000f82       data     extern E:\c18v3.46\pic18-lt\cxx-framework\src\extended\proc\p18f8722.asm
                PORTCbits   0x000f82       data     extern E:\c18v3.46\pic18-lt\cxx-framework\src\extended\proc\p18f8722.asm
                    PORTD   0x000f83       data     extern E:\c18v3.46\pic18-lt\cxx-framework\src\extended\proc\p18f8722.asm
                PORTDbits   0x000f83       data     extern E:\c18v3.46\pic18-lt\cxx-framework\src\extended\proc\p18f8722.asm
                    PORTE   0x000f84       data     extern E:\c18v3.46\pic18-lt\cxx-framework\src\extended\proc\p18f8722.asm
                PORTEbits   0x000f84       data     extern E:\c18v3.46\pic18-lt\cxx-framework\src\extended\proc\p18f8722.asm
                    PORTF   0x000f85       data     extern E:\c18v3.46\pic18-lt\cxx-framework\src\extended\proc\p18f8722.asm
                PORTFbits   0x000f85       data     extern E:\c18v3.46\pic18-lt\cxx-framework\src\extended\proc\p18f8722.asm
                    PORTG   0x000f86       data     extern E:\c18v3.46\pic18-lt\cxx-framework\src\extended\proc\p18f8722.asm
                PORTGbits   0x000f86       data     extern E:\c18v3.46\pic18-lt\cxx-framework\src\extended\proc\p18f8722.asm
                    PORTH   0x000f87       data     extern E:\c18v3.46\pic18-lt\cxx-framework\src\extended\proc\p18f8722.asm
                PORTHbits   0x000f87       data     extern E:\c18v3.46\pic18-lt\cxx-framework\src\extended\proc\p18f8722.asm
                    PORTJ   0x000f88       data     extern E:\c18v3.46\pic18-lt\cxx-framework\src\extended\proc\p18f8722.asm
                PORTJbits   0x000f88       data     extern E:\c18v3.46\pic18-lt\cxx-framework\src\extended\proc\p18f8722.asm
                 POSTDEC0   0x000fed       data     extern E:\c18v3.46\pic18-lt\cxx-framework\src\extended\proc\p18f8722.asm
                 POSTDEC1   0x000fe5       data     extern E:\c18v3.46\pic18-lt\cxx-framework\src\extended\proc\p18f8722.asm
                 POSTDEC2   0x000fdd       data     extern E:\c18v3.46\pic18-lt\cxx-framework\src\extended\proc\p18f8722.asm
                 POSTINC0   0x000fee       data     extern E:\c18v3.46\pic18-lt\cxx-framework\src\extended\proc\p18f8722.asm
                 POSTINC1   0x000fe6       data     extern E:\c18v3.46\pic18-lt\cxx-framework\src\extended\proc\p18f8722.asm
                 POSTINC2   0x000fde       data     extern E:\c18v3.46\pic18-lt\cxx-framework\src\extended\proc\p18f8722.asm
                      PR2   0x000fcb       data     extern E:\c18v3.46\pic18-lt\cxx-framework\src\extended\proc\p18f8722.asm
                      PR4   0x000f77       data     extern E:\c18v3.46\pic18-lt\cxx-framework\src\extended\proc\p18f8722.asm
                  PREINC0   0x000fec       data     extern E:\c18v3.46\pic18-lt\cxx-framework\src\extended\proc\p18f8722.asm
                  PREINC1   0x000fe4       data     extern E:\c18v3.46\pic18-lt\cxx-framework\src\extended\proc\p18f8722.asm
                  PREINC2   0x000fdc       data     extern E:\c18v3.46\pic18-lt\cxx-framework\src\extended\proc\p18f8722.asm
                     PROD   0x000ff3       data     extern E:\c18v3.46\pic18-lt\cxx-framework\src\extended\proc\p18f8722.asm
                    PRODH   0x000ff4       data     extern E:\c18v3.46\pic18-lt\cxx-framework\src\extended\proc\p18f8722.asm
                    PRODL   0x000ff3       data     extern E:\c18v3.46\pic18-lt\cxx-framework\src\extended\proc\p18f8722.asm
                   PSPCON   0x000fb0       data     extern E:\c18v3.46\pic18-lt\cxx-framework\src\extended\proc\p18f8722.asm
               PSPCONbits   0x000fb0       data     extern E:\c18v3.46\pic18-lt\cxx-framework\src\extended\proc\p18f8722.asm
                        R   0x000300       data     extern L:\solarpic_rewrite\swm8722\solar18f8722\swm8722.c
                     RCON   0x000fd0       data     extern E:\c18v3.46\pic18-lt\cxx-framework\src\extended\proc\p18f8722.asm
                 RCONbits   0x000fd0       data     extern E:\c18v3.46\pic18-lt\cxx-framework\src\extended\proc\p18f8722.asm
                    RCREG   0x000fae       data     extern E:\c18v3.46\pic18-lt\cxx-framework\src\extended\proc\p18f8722.asm
                   RCREG1   0x000fae       data     extern E:\c18v3.46\pic18-lt\cxx-framework\src\extended\proc\p18f8722.asm
                   RCREG2   0x000f6e       data     extern E:\c18v3.46\pic18-lt\cxx-framework\src\extended\proc\p18f8722.asm
                    RCSTA   0x000fab       data     extern E:\c18v3.46\pic18-lt\cxx-framework\src\extended\proc\p18f8722.asm
                   RCSTA1   0x000fab       data     extern E:\c18v3.46\pic18-lt\cxx-framework\src\extended\proc\p18f8722.asm
               RCSTA1bits   0x000fab       data     extern E:\c18v3.46\pic18-lt\cxx-framework\src\extended\proc\p18f8722.asm
                   RCSTA2   0x000f6b       data     extern E:\c18v3.46\pic18-lt\cxx-framework\src\extended\proc\p18f8722.asm
               RCSTA2bits   0x000f6b       data     extern E:\c18v3.46\pic18-lt\cxx-framework\src\extended\proc\p18f8722.asm
                RCSTAbits   0x000fab       data     extern E:\c18v3.46\pic18-lt\cxx-framework\src\extended\proc\p18f8722.asm
              RESET_ZEROS   0x000438       data     extern L:\solarpic_rewrite\swm8722\solar18f8722\swm8722.c
                     SDC0   0x000062       data     extern L:\solarpic_rewrite\swm8722\solar18f8722\swm8722.c
                     SDD0   0x0000d8       data     extern L:\solarpic_rewrite\swm8722\solar18f8722\swm8722.c
                  SET_ADC   0x00043e       data     extern L:\solarpic_rewrite\swm8722\solar18f8722\swm8722.c
                 SET_BATT   0x00042c       data     extern L:\solarpic_rewrite\swm8722\solar18f8722\swm8722.c
                  SET_CEF   0x00043f       data     extern L:\solarpic_rewrite\swm8722\solar18f8722\swm8722.c
                 SIM_FLAG   0x000446       data     extern L:\solarpic_rewrite\swm8722\solar18f8722\swm8722.c
                 SIM_MODE   0x000445       data     extern L:\solarpic_rewrite\swm8722\solar18f8722\swm8722.c
                    SPBRG   0x000faf       data     extern E:\c18v3.46\pic18-lt\cxx-framework\src\extended\proc\p18f8722.asm
                   SPBRG1   0x000faf       data     extern E:\c18v3.46\pic18-lt\cxx-framework\src\extended\proc\p18f8722.asm
                   SPBRG2   0x000f6f       data     extern E:\c18v3.46\pic18-lt\cxx-framework\src\extended\proc\p18f8722.asm
                   SPBRGH   0x000f7f       data     extern E:\c18v3.46\pic18-lt\cxx-framework\src\extended\proc\p18f8722.asm
                  SPBRGH1   0x000f7f       data     extern E:\c18v3.46\pic18-lt\cxx-framework\src\extended\proc\p18f8722.asm
                  SPBRGH2   0x000f7d       data     extern E:\c18v3.46\pic18-lt\cxx-framework\src\extended\proc\p18f8722.asm
                  SSP1ADD   0x000fc8       data     extern E:\c18v3.46\pic18-lt\cxx-framework\src\extended\proc\p18f8722.asm
                  SSP1BUF   0x000fc9       data     extern E:\c18v3.46\pic18-lt\cxx-framework\src\extended\proc\p18f8722.asm
                 SSP1CON1   0x000fc6       data     extern E:\c18v3.46\pic18-lt\cxx-framework\src\extended\proc\p18f8722.asm
             SSP1CON1bits   0x000fc6       data     extern E:\c18v3.46\pic18-lt\cxx-framework\src\extended\proc\p18f8722.asm
                 SSP1CON2   0x000fc5       data     extern E:\c18v3.46\pic18-lt\cxx-framework\src\extended\proc\p18f8722.asm
             SSP1CON2bits   0x000fc5       data     extern E:\c18v3.46\pic18-lt\cxx-framework\src\extended\proc\p18f8722.asm
                 SSP1STAT   0x000fc7       data     extern E:\c18v3.46\pic18-lt\cxx-framework\src\extended\proc\p18f8722.asm
             SSP1STATbits   0x000fc7       data     extern E:\c18v3.46\pic18-lt\cxx-framework\src\extended\proc\p18f8722.asm
                  SSP2ADD   0x000f65       data     extern E:\c18v3.46\pic18-lt\cxx-framework\src\extended\proc\p18f8722.asm
                  SSP2BUF   0x000f66       data     extern E:\c18v3.46\pic18-lt\cxx-framework\src\extended\proc\p18f8722.asm
                 SSP2CON1   0x000f63       data     extern E:\c18v3.46\pic18-lt\cxx-framework\src\extended\proc\p18f8722.asm
             SSP2CON1bits   0x000f63       data     extern E:\c18v3.46\pic18-lt\cxx-framework\src\extended\proc\p18f8722.asm
                 SSP2CON2   0x000f62       data     extern E:\c18v3.46\pic18-lt\cxx-framework\src\extended\proc\p18f8722.asm
             SSP2CON2bits   0x000f62       data     extern E:\c18v3.46\pic18-lt\cxx-framework\src\extended\proc\p18f8722.asm
                 SSP2STAT   0x000f64       data     extern E:\c18v3.46\pic18-lt\cxx-framework\src\extended\proc\p18f8722.asm
             SSP2STATbits   0x000f64       data     extern E:\c18v3.46\pic18-lt\cxx-framework\src\extended\proc\p18f8722.asm
                   SSPADD   0x000fc8       data     extern E:\c18v3.46\pic18-lt\cxx-framework\src\extended\proc\p18f8722.asm
                   SSPBUF   0x000fc9       data     extern E:\c18v3.46\pic18-lt\cxx-framework\src\extended\proc\p18f8722.asm
                  SSPCON1   0x000fc6       data     extern E:\c18v3.46\pic18-lt\cxx-framework\src\extended\proc\p18f8722.asm
              SSPCON1bits   0x000fc6       data     extern E:\c18v3.46\pic18-lt\cxx-framework\src\extended\proc\p18f8722.asm
                  SSPCON2   0x000fc5       data     extern E:\c18v3.46\pic18-lt\cxx-framework\src\extended\proc\p18f8722.asm
              SSPCON2bits   0x000fc5       data     extern E:\c18v3.46\pic18-lt\cxx-framework\src\extended\proc\p18f8722.asm
                  SSPSTAT   0x000fc7       data     extern E:\c18v3.46\pic18-lt\cxx-framework\src\extended\proc\p18f8722.asm
              SSPSTATbits   0x000fc7       data     extern E:\c18v3.46\pic18-lt\cxx-framework\src\extended\proc\p18f8722.asm
               STATIC_SOC   0x000431       data     extern L:\solarpic_rewrite\swm8722\solar18f8722\swm8722.c
                   STATUS   0x000fd8       data     extern E:\c18v3.46\pic18-lt\cxx-framework\src\extended\proc\p18f8722.asm
               STATUSbits   0x000fd8       data     extern E:\c18v3.46\pic18-lt\cxx-framework\src\extended\proc\p18f8722.asm
                   STKPTR   0x000ffc       data     extern E:\c18v3.46\pic18-lt\cxx-framework\src\extended\proc\p18f8722.asm
               STKPTRbits   0x000ffc       data     extern E:\c18v3.46\pic18-lt\cxx-framework\src\extended\proc\p18f8722.asm
                  SYNCSOC   0x00043a       data     extern L:\solarpic_rewrite\swm8722\solar18f8722\swm8722.c
                 SYNC_SOC   0x000439       data     extern L:\solarpic_rewrite\swm8722\solar18f8722\swm8722.c
                 SYS_DATA   0x00043b       data     extern L:\solarpic_rewrite\swm8722\solar18f8722\swm8722.c
                 SYS_HELP   0x00043d       data     extern L:\solarpic_rewrite\swm8722\solar18f8722\swm8722.c
                     Seed   0x0002fe       data     static E:\c18v3.46\pic18-lt\cxx-framework\src\extended\stdclib\rand.asm
                    T0CON   0x000fd5       data     extern E:\c18v3.46\pic18-lt\cxx-framework\src\extended\proc\p18f8722.asm
                T0CONbits   0x000fd5       data     extern E:\c18v3.46\pic18-lt\cxx-framework\src\extended\proc\p18f8722.asm
                    T1CON   0x000fcd       data     extern E:\c18v3.46\pic18-lt\cxx-framework\src\extended\proc\p18f8722.asm
                T1CONbits   0x000fcd       data     extern E:\c18v3.46\pic18-lt\cxx-framework\src\extended\proc\p18f8722.asm
                    T2CON   0x000fca       data     extern E:\c18v3.46\pic18-lt\cxx-framework\src\extended\proc\p18f8722.asm
                T2CONbits   0x000fca       data     extern E:\c18v3.46\pic18-lt\cxx-framework\src\extended\proc\p18f8722.asm
                    T3CON   0x000fb1       data     extern E:\c18v3.46\pic18-lt\cxx-framework\src\extended\proc\p18f8722.asm
                T3CONbits   0x000fb1       data     extern E:\c18v3.46\pic18-lt\cxx-framework\src\extended\proc\p18f8722.asm
                    T4CON   0x000f76       data     extern E:\c18v3.46\pic18-lt\cxx-framework\src\extended\proc\p18f8722.asm
                T4CONbits   0x000f76       data     extern E:\c18v3.46\pic18-lt\cxx-framework\src\extended\proc\p18f8722.asm
                   TABLAT   0x000ff5       data     extern E:\c18v3.46\pic18-lt\cxx-framework\src\extended\proc\p18f8722.asm
                   TBLPTR   0x000ff6       data     extern E:\c18v3.46\pic18-lt\cxx-framework\src\extended\proc\p18f8722.asm
                  TBLPTRH   0x000ff7       data     extern E:\c18v3.46\pic18-lt\cxx-framework\src\extended\proc\p18f8722.asm
                  TBLPTRL   0x000ff6       data     extern E:\c18v3.46\pic18-lt\cxx-framework\src\extended\proc\p18f8722.asm
                  TBLPTRU   0x000ff8       data     extern E:\c18v3.46\pic18-lt\cxx-framework\src\extended\proc\p18f8722.asm
                    TMR0H   0x000fd7       data     extern E:\c18v3.46\pic18-lt\cxx-framework\src\extended\proc\p18f8722.asm
                    TMR0L   0x000fd6       data     extern E:\c18v3.46\pic18-lt\cxx-framework\src\extended\proc\p18f8722.asm
                    TMR1H   0x000fcf       data     extern E:\c18v3.46\pic18-lt\cxx-framework\src\extended\proc\p18f8722.asm
                    TMR1L   0x000fce       data     extern E:\c18v3.46\pic18-lt\cxx-framework\src\extended\proc\p18f8722.asm
                     TMR2   0x000fcc       data     extern E:\c18v3.46\pic18-lt\cxx-framework\src\extended\proc\p18f8722.asm
                    TMR3H   0x000fb3       data     extern E:\c18v3.46\pic18-lt\cxx-framework\src\extended\proc\p18f8722.asm
                    TMR3L   0x000fb2       data     extern E:\c18v3.46\pic18-lt\cxx-framework\src\extended\proc\p18f8722.asm
                     TMR4   0x000f78       data     extern E:\c18v3.46\pic18-lt\cxx-framework\src\extended\proc\p18f8722.asm
                      TOS   0x000ffd       data     extern E:\c18v3.46\pic18-lt\cxx-framework\src\extended\proc\p18f8722.asm
                     TOSH   0x000ffe       data     extern E:\c18v3.46\pic18-lt\cxx-framework\src\extended\proc\p18f8722.asm
                     TOSL   0x000ffd       data     extern E:\c18v3.46\pic18-lt\cxx-framework\src\extended\proc\p18f8722.asm
                     TOSU   0x000fff       data     extern E:\c18v3.46\pic18-lt\cxx-framework\src\extended\proc\p18f8722.asm
                    TRISA   0x000f92       data     extern E:\c18v3.46\pic18-lt\cxx-framework\src\extended\proc\p18f8722.asm
                TRISAbits   0x000f92       data     extern E:\c18v3.46\pic18-lt\cxx-framework\src\extended\proc\p18f8722.asm
                    TRISB   0x000f93       data     extern E:\c18v3.46\pic18-lt\cxx-framework\src\extended\proc\p18f8722.asm
                TRISBbits   0x000f93       data     extern E:\c18v3.46\pic18-lt\cxx-framework\src\extended\proc\p18f8722.asm
                    TRISC   0x000f94       data     extern E:\c18v3.46\pic18-lt\cxx-framework\src\extended\proc\p18f8722.asm
                TRISCbits   0x000f94       data     extern E:\c18v3.46\pic18-lt\cxx-framework\src\extended\proc\p18f8722.asm
                    TRISD   0x000f95       data     extern E:\c18v3.46\pic18-lt\cxx-framework\src\extended\proc\p18f8722.asm
                TRISDbits   0x000f95       data     extern E:\c18v3.46\pic18-lt\cxx-framework\src\extended\proc\p18f8722.asm
                    TRISE   0x000f96       data     extern E:\c18v3.46\pic18-lt\cxx-framework\src\extended\proc\p18f8722.asm
                TRISEbits   0x000f96       data     extern E:\c18v3.46\pic18-lt\cxx-framework\src\extended\proc\p18f8722.asm
                    TRISF   0x000f97       data     extern E:\c18v3.46\pic18-lt\cxx-framework\src\extended\proc\p18f8722.asm
                TRISFbits   0x000f97       data     extern E:\c18v3.46\pic18-lt\cxx-framework\src\extended\proc\p18f8722.asm
                    TRISG   0x000f98       data     extern E:\c18v3.46\pic18-lt\cxx-framework\src\extended\proc\p18f8722.asm
                TRISGbits   0x000f98       data     extern E:\c18v3.46\pic18-lt\cxx-framework\src\extended\proc\p18f8722.asm
                    TRISH   0x000f99       data     extern E:\c18v3.46\pic18-lt\cxx-framework\src\extended\proc\p18f8722.asm
                TRISHbits   0x000f99       data     extern E:\c18v3.46\pic18-lt\cxx-framework\src\extended\proc\p18f8722.asm
                    TRISJ   0x000f9a       data     extern E:\c18v3.46\pic18-lt\cxx-framework\src\extended\proc\p18f8722.asm
                TRISJbits   0x000f9a       data     extern E:\c18v3.46\pic18-lt\cxx-framework\src\extended\proc\p18f8722.asm
                    TWEAK   0x000443       data     extern L:\solarpic_rewrite\swm8722\solar18f8722\swm8722.c
                    TXREG   0x000fad       data     extern E:\c18v3.46\pic18-lt\cxx-framework\src\extended\proc\p18f8722.asm
                   TXREG1   0x000fad       data     extern E:\c18v3.46\pic18-lt\cxx-framework\src\extended\proc\p18f8722.asm
                   TXREG2   0x000f6d       data     extern E:\c18v3.46\pic18-lt\cxx-framework\src\extended\proc\p18f8722.asm
                    TXSTA   0x000fac       data     extern E:\c18v3.46\pic18-lt\cxx-framework\src\extended\proc\p18f8722.asm
                   TXSTA1   0x000fac       data     extern E:\c18v3.46\pic18-lt\cxx-framework\src\extended\proc\p18f8722.asm
               TXSTA1bits   0x000fac       data     extern E:\c18v3.46\pic18-lt\cxx-framework\src\extended\proc\p18f8722.asm
                   TXSTA2   0x000f6c       data     extern E:\c18v3.46\pic18-lt\cxx-framework\src\extended\proc\p18f8722.asm
               TXSTA2bits   0x000f6c       data     extern E:\c18v3.46\pic18-lt\cxx-framework\src\extended\proc\p18f8722.asm
                TXSTAbits   0x000fac       data     extern E:\c18v3.46\pic18-lt\cxx-framework\src\extended\proc\p18f8722.asm
               UPDATE_EEP   0x000437       data     extern L:\solarpic_rewrite\swm8722\solar18f8722\swm8722.c
            USART1_Status   0x000f59       data     extern E:\c18v3.46\pic18-lt\cxx-framework\src\pmc_common\USART\u1defs.c
            USART2_Status   0x000f58       data     extern E:\c18v3.46\pic18-lt\cxx-framework\src\pmc_common\USART\u2defs.c
                 UTC_flag   0x000d50       data     extern L:\solarpic_rewrite\swm8722\solar18f8722\swm8722.c
                   UTC_ok   0x000d51       data     extern L:\solarpic_rewrite\swm8722\solar18f8722\swm8722.c
                        V   0x000355       data     extern L:\solarpic_rewrite\swm8722\solar18f8722\swm8722.c
                      Vin   0x000231       data     extern L:\solarpic_rewrite\swm8722\solar18f8722\swm8722.c
                   WDTCON   0x000fd1       data     extern E:\c18v3.46\pic18-lt\cxx-framework\src\extended\proc\p18f8722.asm
               WDTCONbits   0x000fd1       data     extern E:\c18v3.46\pic18-lt\cxx-framework\src\extended\proc\p18f8722.asm
                   WDT_TO   0x000440       data     extern L:\solarpic_rewrite\swm8722\solar18f8722\swm8722.c
                     WREG   0x000fe8       data     extern E:\c18v3.46\pic18-lt\cxx-framework\src\extended\proc\p18f8722.asm
                 XON_XOFF   0x000430       data     extern L:\solarpic_rewrite\swm8722\solar18f8722\swm8722.c
                    YNKEY   0x0003da       data     extern L:\solarpic_rewrite\swm8722\solar18f8722\swm8722.c
                      ZAP   0x0002ee       data     static L:\solarpic_rewrite\swm8722\solar18f8722\mbmc_vector.c
                __RETVAL0   0x000f46       data     extern E:\c18v3.46\pic18-lt\cxx-framework\src\extended\math\cmath18.asm
                __RETVAL1   0x000f47       data     extern E:\c18v3.46\pic18-lt\cxx-framework\src\extended\math\cmath18.asm
                __RETVAL2   0x000f48       data     extern E:\c18v3.46\pic18-lt\cxx-framework\src\extended\math\cmath18.asm
                __RETVAL3   0x000f49       data     extern E:\c18v3.46\pic18-lt\cxx-framework\src\extended\math\cmath18.asm
                  __tmp_0   0x00004a       data     static L:\solarpic_rewrite\swm8722\solar18f8722\model.c
                  __tmp_0   0x00004a       data     static L:\solarpic_rewrite\swm8722\solar18f8722\sdspi.c
                  __tmp_0   0x00004a       data     static L:\solarpic_rewrite\swm8722\solar18f8722\crit.c
                  __tmp_0   0x00004a       data     static L:\solarpic_rewrite\swm8722\solar18f8722\crc8_fast.c
                  __tmp_0   0x00004a       data     static L:\solarpic_rewrite\swm8722\solar18f8722\swm8722.c
                  __tmp_0   0x00004a       data     static E:\c18v3.46\pic18-lt\cxx-framework\src\pmc_common\USART\u1open.c
                  __tmp_0   0x00004a       data     static E:\c18v3.46\pic18-lt\cxx-framework\src\pmc_common\USART\u2open.c
                  __tmp_0   0x00004a       data     static E:\c18v3.46\pic18-lt\cxx-framework\src\pmc_common\ADC\adcopen.c
                  __tmp_0   0x00004a       data     static E:\c18v3.46\pic18-lt\cxx-framework\src\pmc_common\ADC\adcread.c
                  __tmp_0   0x00004a       data     static E:\c18v3.46\pic18-lt\cxx-framework\src\pmc_common\EEP\read_B.c
                  __tmp_0   0x00004a       data     static E:\c18v3.46\pic18-lt\cxx-framework\src\pmc_common\ADC\adcsetch.c
                  __tmp_0   0x00004a       data     static E:\c18v3.46\pic18-lt\cxx-framework\src\pmc_common\PWM\pw4setdc.c
                  __tmp_0   0x00004a       data     static E:\c18v3.46\pic18-lt\cxx-framework\src\pmc_common\EEP\write_B.c
                  __tmp_0   0x00004a       data     static E:\c18v3.46\pic18-lt\cxx-framework\src\extended\stdclib\pow.c
                  __tmp_0   0x00004a       data     static E:\c18v3.46\pic18-lt\cxx-framework\src\extended\stdclib\UnpkMath.c
                  __tmp_0   0x00004a       data     static E:\c18v3.46\pic18-lt\cxx-framework\src\extended\stdclib\fchop.c
                  __tmp_0   0x00004a       data     static E:\c18v3.46\pic18-lt\cxx-framework\src\extended\stdclib\PackMath.c
                  __tmp_0   0x00004a       data     static E:\c18v3.46\pic18-lt\cxx-framework\src\extended\stdclib\exp.c
                  __tmp_0   0x00004a       data     static E:\c18v3.46\pic18-lt\cxx-framework\src\extended\stdclib\frexp.c
                  __tmp_0   0x00004a       data     static E:\c18v3.46\pic18-lt\cxx-framework\src\extended\stdclib\ldexp.c
                  __tmp_0   0x00004a       data     static E:\c18v3.46\pic18-lt\cxx-framework\src\extended\stdclib\log.c
                  __tmp_0   0x00004a       data     static E:\c18v3.46\pic18-lt\cxx-framework\src\extended\stdclib\vfprintf.c
                  __tmp_0   0x00004a       data     static L:\solarpic_rewrite\swm8722\solar18f8722\timelib.c
                  __tmp_0   0x00004a       data     static L:\solarpic_rewrite\swm8722\solar18f8722\power.c
                  __tmp_0   0x00004a       data     static L:\solarpic_rewrite\swm8722\solar18f8722\daq.c
                  __tmp_1   0x0003f9       data     static L:\solarpic_rewrite\swm8722\solar18f8722\mbmc_vector.c
                  __tmp_2   0x000f42       data     static L:\solarpic_rewrite\swm8722\solar18f8722\mbmc_vector.c
                     a300   0x000416       data     extern L:\solarpic_rewrite\swm8722\solar18f8722\swm8722.c
                      a50   0x000414       data     extern L:\solarpic_rewrite\swm8722\solar18f8722\swm8722.c
                     a50c   0x000418       data     extern L:\solarpic_rewrite\swm8722\solar18f8722\swm8722.c
                      abl   0x000df2       data     static L:\solarpic_rewrite\swm8722\solar18f8722\mbmc_vector.c
           absorp_current   0x00021c       data     extern L:\solarpic_rewrite\swm8722\solar18f8722\swm8722.c
                  adc_cal   0x000d69       data     extern L:\solarpic_rewrite\swm8722\solar18f8722\swm8722.c
                   ahfrak   0x00020c       data     extern L:\solarpic_rewrite\swm8722\solar18f8722\swm8722.c
                  ahi_tmp   0x000210       data     extern L:\solarpic_rewrite\swm8722\solar18f8722\swm8722.c
                  aho_tmp   0x000214       data     extern L:\solarpic_rewrite\swm8722\solar18f8722\swm8722.c
                 ahop_tmp   0x000218       data     extern L:\solarpic_rewrite\swm8722\solar18f8722\swm8722.c
                       ai   0x000de6       data     static L:\solarpic_rewrite\swm8722\solar18f8722\mbmc_vector.c
             alarm_buffer   0x00095c       data     extern L:\solarpic_rewrite\swm8722\solar18f8722\swm8722.c
              alarm_codes   0x000449       data     extern L:\solarpic_rewrite\swm8722\solar18f8722\swm8722.c
              alert_clock   0x000008       data     static L:\solarpic_rewrite\swm8722\solar18f8722\power.c
               alert_pick   0x000006       data     static L:\solarpic_rewrite\swm8722\solar18f8722\power.c
                  alm_num   0x000db7       data     static L:\solarpic_rewrite\swm8722\solar18f8722\swm8722.c
                   almctr   0x00044b       data     extern L:\solarpic_rewrite\swm8722\solar18f8722\swm8722.c
                       an   0x000dee       data     static L:\solarpic_rewrite\swm8722\solar18f8722\mbmc_vector.c
                       ao   0x000dea       data     static L:\solarpic_rewrite\swm8722\solar18f8722\mbmc_vector.c
                      aop   0x000df6       data     static L:\solarpic_rewrite\swm8722\solar18f8722\mbmc_vector.c
                     argc   0x000484       data     static L:\solarpic_rewrite\swm8722\solar18f8722\sdspi.c
                   b_read   0x000429       data     extern L:\solarpic_rewrite\swm8722\solar18f8722\swm8722.c
               battbuffer   0x00024d       data     extern L:\solarpic_rewrite\swm8722\solar18f8722\swm8722.c
                  battnum   0x000426       data     extern L:\solarpic_rewrite\swm8722\solar18f8722\swm8722.c
                 batttype   0x000259       data     extern L:\solarpic_rewrite\swm8722\solar18f8722\swm8722.c
             block_buffer   0x000500       data     extern L:\solarpic_rewrite\swm8722\solar18f8722\swm8722.c
                block_tmp   0x0004a3       data     static L:\solarpic_rewrite\swm8722\solar18f8722\sdspi.c
                block_tmp   0x000496       data     static L:\solarpic_rewrite\swm8722\solar18f8722\sdspi.c
                      bmt   0x000cda       data     extern L:\solarpic_rewrite\swm8722\solar18f8722\swm8722.c
                       bn   0x000ddb       data     static L:\solarpic_rewrite\swm8722\solar18f8722\swm8722.c
                      boc   0x0002f7       data     static L:\solarpic_rewrite\swm8722\solar18f8722\mbmc_vector.c
                      boi   0x000000       data     static L:\solarpic_rewrite\swm8722\solar18f8722\power.c
                      boi   0x0002f8       data     static L:\solarpic_rewrite\swm8722\solar18f8722\mbmc_vector.c
                      boi   0x000dda       data     static L:\solarpic_rewrite\swm8722\solar18f8722\swm8722.c
                 bootstr2   0x000708       data     extern L:\solarpic_rewrite\swm8722\solar18f8722\swm8722.c
               build_date   0x000385       data     extern L:\solarpic_rewrite\swm8722\solar18f8722\swm8722.c
               build_time   0x000388       data     extern L:\solarpic_rewrite\swm8722\solar18f8722\swm8722.c
                     buth   0x000946       data     extern L:\solarpic_rewrite\swm8722\solar18f8722\swm8722.c
                       c1   0x000de1       data     static L:\solarpic_rewrite\swm8722\solar18f8722\mbmc_vector.c
                       c2   0x000de2       data     static L:\solarpic_rewrite\swm8722\solar18f8722\mbmc_vector.c
                    c2raw   0x00042a       data     extern L:\solarpic_rewrite\swm8722\solar18f8722\swm8722.c
                    c_off   0x000478       data     extern L:\solarpic_rewrite\swm8722\solar18f8722\swm8722.c
                     c_on   0x000474       data     extern L:\solarpic_rewrite\swm8722\solar18f8722\swm8722.c
               ccled_flag   0x0000de       data     extern L:\solarpic_rewrite\swm8722\solar18f8722\swm8722.c
                     ccrc   0x00047f       data     static L:\solarpic_rewrite\swm8722\solar18f8722\sdspi.c
                    ccs_t   0x00003e       data     static L:\solarpic_rewrite\swm8722\solar18f8722\power.c
                  cctimer   0x000458       data     extern L:\solarpic_rewrite\swm8722\solar18f8722\swm8722.c
                   cdelay   0x000444       data     extern L:\solarpic_rewrite\swm8722\solar18f8722\swm8722.c
                      cef   0x00041e       data     extern L:\solarpic_rewrite\swm8722\solar18f8722\swm8722.c
                 cef_calc   0x000420       data     extern L:\solarpic_rewrite\swm8722\solar18f8722\swm8722.c
                 cef_save   0x000422       data     extern L:\solarpic_rewrite\swm8722\solar18f8722\swm8722.c
                     cell   0x000852       data     extern L:\solarpic_rewrite\swm8722\solar18f8722\swm8722.c
                   chrg_v   0x000241       data     extern L:\solarpic_rewrite\swm8722\solar18f8722\swm8722.c
                      cid   0x0007ef       data     extern L:\solarpic_rewrite\swm8722\solar18f8722\swm8722.c
                clocks_hz   0x0003e7       data     static L:\solarpic_rewrite\swm8722\solar18f8722\swm8722.c
                      cmd   0x000487       data     static L:\solarpic_rewrite\swm8722\solar18f8722\sdspi.c
                      crc   0x000f4a       data     static L:\solarpic_rewrite\swm8722\solar18f8722\sdspi.c
              critc_count   0x000468       data     extern L:\solarpic_rewrite\swm8722\solar18f8722\swm8722.c
              critc_level   0x000427       data     extern L:\solarpic_rewrite\swm8722\solar18f8722\swm8722.c
                      csd   0x0007dd       data     extern L:\solarpic_rewrite\swm8722\solar18f8722\swm8722.c
                curr_byte   0x0000f9       data     static E:\c18v3.46\pic18-lt\cxx-framework\src\extended\startup\c018iz_e.c
               curr_entry   0x0000fb       data     static E:\c18v3.46\pic18-lt\cxx-framework\src\extended\startup\c018iz_e.c
                current_t   0x000225       data     extern L:\solarpic_rewrite\swm8722\solar18f8722\swm8722.c
         currentcharger_t   0x00022d       data     extern L:\solarpic_rewrite\swm8722\solar18f8722\swm8722.c
              currentin_t   0x000229       data     extern L:\solarpic_rewrite\swm8722\solar18f8722\swm8722.c
               cycles_tmp   0x000038       data     static L:\solarpic_rewrite\swm8722\solar18f8722\power.c
                   d_code   0x000007       data     static L:\solarpic_rewrite\swm8722\solar18f8722\power.c
                    d_off   0x000470       data     extern L:\solarpic_rewrite\swm8722\solar18f8722\swm8722.c
                     d_on   0x00046c       data     extern L:\solarpic_rewrite\swm8722\solar18f8722\swm8722.c
                 data_ptr   0x0000fd       data     static E:\c18v3.46\pic18-lt\cxx-framework\src\extended\startup\c018iz_e.c
             dayclockdown   0x000460       data     extern L:\solarpic_rewrite\swm8722\solar18f8722\swm8722.c
               dayclockup   0x00045c       data     extern L:\solarpic_rewrite\swm8722\solar18f8722\swm8722.c
                   dcount   0x0003db       data     static L:\solarpic_rewrite\swm8722\solar18f8722\swm8722.c
                   dcount   0x0003df       data     static L:\solarpic_rewrite\swm8722\solar18f8722\swm8722.c
            display_count   0x000450       data     extern L:\solarpic_rewrite\swm8722\solar18f8722\swm8722.c
                       ds   0x000bde       data     extern L:\solarpic_rewrite\swm8722\solar18f8722\swm8722.c
                      dsi   0x0003b7       data     extern L:\solarpic_rewrite\swm8722\solar18f8722\swm8722.c
                    dsize   0x000dc8       data     static L:\solarpic_rewrite\swm8722\solar18f8722\swm8722.c
               duty_cycle   0x000f39       data     static L:\solarpic_rewrite\swm8722\solar18f8722\power.c
                 eep_char   0x000dd9       data     static L:\solarpic_rewrite\swm8722\solar18f8722\swm8722.c
                 end_amps   0x000220       data     extern L:\solarpic_rewrite\swm8722\solar18f8722\swm8722.c
                    errno   0x000f50       data     extern E:\c18v3.46\pic18-lt\cxx-framework\src\extended\stdclib\errno.c
                esr_delta   0x0003ba       data     extern L:\solarpic_rewrite\swm8722\solar18f8722\swm8722.c
                       f1   0x00091a       data     extern L:\solarpic_rewrite\swm8722\solar18f8722\swm8722.c
                       f2   0x000921       data     extern L:\solarpic_rewrite\swm8722\solar18f8722\swm8722.c
                       f3   0x000928       data     extern L:\solarpic_rewrite\swm8722\solar18f8722\swm8722.c
                       f4   0x00092f       data     extern L:\solarpic_rewrite\swm8722\solar18f8722\swm8722.c
               fast_ticks   0x00042d       data     extern L:\solarpic_rewrite\swm8722\solar18f8722\swm8722.c
                 fcurrent   0x000d96       data     static L:\solarpic_rewrite\swm8722\solar18f8722\swm8722.c
                    ftest   0x000dde       data     static L:\solarpic_rewrite\swm8722\solar18f8722\swm8722.c
             glitch_count   0x00042b       data     extern L:\solarpic_rewrite\swm8722\solar18f8722\swm8722.c
                        h   0x000d9e       data     static L:\solarpic_rewrite\swm8722\solar18f8722\swm8722.c
                        h   0x000daa       data     static L:\solarpic_rewrite\swm8722\solar18f8722\swm8722.c
                  hirez_0   0x00044c       data     extern L:\solarpic_rewrite\swm8722\solar18f8722\swm8722.c
                  hirez_1   0x00044e       data     extern L:\solarpic_rewrite\swm8722\solar18f8722\swm8722.c
              hirez_count   0x000d5b       data     extern L:\solarpic_rewrite\swm8722\solar18f8722\swm8722.c
               hirez_tmp0   0x0002fa       data     static L:\solarpic_rewrite\swm8722\solar18f8722\mbmc_vector.c
               hirez_tmp0   0x0002f1       data     static L:\solarpic_rewrite\swm8722\solar18f8722\mbmc_vector.c
               hirez_tmp1   0x0002f3       data     static L:\solarpic_rewrite\swm8722\solar18f8722\mbmc_vector.c
               hirez_tmp1   0x0002fc       data     static L:\solarpic_rewrite\swm8722\solar18f8722\mbmc_vector.c
                     hist   0x00099a       data     extern L:\solarpic_rewrite\swm8722\solar18f8722\swm8722.c
                     hmin   0x0002f5       data     static L:\solarpic_rewrite\swm8722\solar18f8722\mbmc_vector.c
               hms_string   0x000400       data     extern L:\solarpic_rewrite\swm8722\solar18f8722\swm8722.c
                        i   0x00048f       data     static L:\solarpic_rewrite\swm8722\solar18f8722\sdspi.c
                        i   0x00049c       data     static L:\solarpic_rewrite\swm8722\solar18f8722\sdspi.c
                        i   0x00048c       data     static L:\solarpic_rewrite\swm8722\solar18f8722\sdspi.c
                        i   0x000db6       data     static L:\solarpic_rewrite\swm8722\solar18f8722\swm8722.c
                        i   0x000f52       data     static L:\solarpic_rewrite\swm8722\solar18f8722\daq.c
                        i   0x000dd1       data     static L:\solarpic_rewrite\swm8722\solar18f8722\swm8722.c
                        i   0x000dcc       data     static L:\solarpic_rewrite\swm8722\solar18f8722\swm8722.c
                        i   0x000dc4       data     static L:\solarpic_rewrite\swm8722\solar18f8722\swm8722.c
                       ib   0x000d94       data     static L:\solarpic_rewrite\swm8722\solar18f8722\swm8722.c
                 idleflag   0x000265       data     extern L:\solarpic_rewrite\swm8722\solar18f8722\swm8722.c
                       ip   0x00026e       data     extern L:\solarpic_rewrite\swm8722\solar18f8722\swm8722.c
                       iw   0x00026a       data     extern L:\solarpic_rewrite\swm8722\solar18f8722\swm8722.c
                        j   0x000dd3       data     static L:\solarpic_rewrite\swm8722\solar18f8722\swm8722.c
                        j   0x000dcf       data     static L:\solarpic_rewrite\swm8722\solar18f8722\swm8722.c
                        j   0x0003f5       data     static L:\solarpic_rewrite\swm8722\solar18f8722\swm8722.c
                        j   0x000ddc       data     static L:\solarpic_rewrite\swm8722\solar18f8722\swm8722.c
                        j   0x000dc0       data     static L:\solarpic_rewrite\swm8722\solar18f8722\swm8722.c
                        k   0x000ddd       data     static L:\solarpic_rewrite\swm8722\solar18f8722\swm8722.c
                        k   0x000dd4       data     static L:\solarpic_rewrite\swm8722\solar18f8722\swm8722.c
                        k   0x000dc2       data     static L:\solarpic_rewrite\swm8722\solar18f8722\swm8722.c
                        k   0x000dd0       data     static L:\solarpic_rewrite\swm8722\solar18f8722\swm8722.c
                        k   0x0003f6       data     static L:\solarpic_rewrite\swm8722\solar18f8722\swm8722.c
                   keynum   0x000428       data     extern L:\solarpic_rewrite\swm8722\solar18f8722\swm8722.c
                    lmode   0x00005d       data     static L:\solarpic_rewrite\swm8722\solar18f8722\model.c
                    lmode   0x000ddf       data     static L:\solarpic_rewrite\swm8722\solar18f8722\swm8722.c
                  load_i1   0x000044       data     static L:\solarpic_rewrite\swm8722\solar18f8722\power.c
                  load_i2   0x000046       data     static L:\solarpic_rewrite\swm8722\solar18f8722\power.c
                 local_tm   0x0003c2       data     extern L:\solarpic_rewrite\swm8722\solar18f8722\swm8722.c
               loggertime   0x000412       data     extern L:\solarpic_rewrite\swm8722\solar18f8722\swm8722.c
                 lp_speed   0x0000e6       data     extern L:\solarpic_rewrite\swm8722\solar18f8722\swm8722.c
                     lp_x   0x0000ea       data     extern L:\solarpic_rewrite\swm8722\solar18f8722\swm8722.c
                        m   0x000da2       data     static L:\solarpic_rewrite\swm8722\solar18f8722\swm8722.c
                        m   0x000dae       data     static L:\solarpic_rewrite\swm8722\solar18f8722\swm8722.c
           mbmc_cmd_reply   0x000204       data     extern L:\solarpic_rewrite\swm8722\solar18f8722\swm8722.c
            mbmc_dumpflag   0x0001ba       data     extern L:\solarpic_rewrite\swm8722\solar18f8722\swm8722.c
                 mbmccell   0x0003b8       data     extern L:\solarpic_rewrite\swm8722\solar18f8722\swm8722.c
                 mbmcflag   0x000194       data     extern L:\solarpic_rewrite\swm8722\solar18f8722\swm8722.c
             model_update   0x000224       data     extern L:\solarpic_rewrite\swm8722\solar18f8722\swm8722.c
                month_str   0x000f00       data     extern L:\solarpic_rewrite\swm8722\solar18f8722\timelib.c
                        n   0x000485       data     static L:\solarpic_rewrite\swm8722\solar18f8722\sdspi.c
                        n   0x0003eb       data     static L:\solarpic_rewrite\swm8722\solar18f8722\swm8722.c
                        n   0x000486       data     static L:\solarpic_rewrite\swm8722\solar18f8722\sdspi.c
                        n   0x00047d       data     static L:\solarpic_rewrite\swm8722\solar18f8722\sdspi.c
                     netd   0x0003be       data     extern L:\solarpic_rewrite\swm8722\solar18f8722\swm8722.c
             netdword_pos   0x000d55       data     extern L:\solarpic_rewrite\swm8722\solar18f8722\swm8722.c
             netdword_ptr   0x000d53       data     extern L:\solarpic_rewrite\swm8722\solar18f8722\swm8722.c
                  newdate   0x000034       data     static L:\solarpic_rewrite\swm8722\solar18f8722\power.c
                     nsec   0x000491       data     static L:\solarpic_rewrite\swm8722\solar18f8722\sdspi.c
                     nsec   0x00049e       data     static L:\solarpic_rewrite\swm8722\solar18f8722\sdspi.c
                      ocr   0x000488       data     static L:\solarpic_rewrite\swm8722\solar18f8722\sdspi.c
                       p1   0x000811       data     extern L:\solarpic_rewrite\swm8722\solar18f8722\swm8722.c
                       p2   0x000821       data     extern L:\solarpic_rewrite\swm8722\solar18f8722\swm8722.c
                       p3   0x000936       data     extern L:\solarpic_rewrite\swm8722\solar18f8722\swm8722.c
                     pick   0x000005       data     static L:\solarpic_rewrite\swm8722\solar18f8722\power.c
                power_exp   0x000f3d       data     static L:\solarpic_rewrite\swm8722\solar18f8722\power.c
                     prom   0x0000f6       data     static E:\c18v3.46\pic18-lt\cxx-framework\src\extended\startup\c018iz_e.c
                pwm_delay   0x0002f9       data     static L:\solarpic_rewrite\swm8722\solar18f8722\mbmc_vector.c
                       q1   0x0003ed       data     static L:\solarpic_rewrite\swm8722\solar18f8722\swm8722.c
                       q2   0x0003f1       data     static L:\solarpic_rewrite\swm8722\solar18f8722\swm8722.c
                    r_soc   0x000024       data     static L:\solarpic_rewrite\swm8722\solar18f8722\power.c
                     rate   0x000014       data     static L:\solarpic_rewrite\swm8722\solar18f8722\power.c
                    rawp1   0x000235       data     extern L:\solarpic_rewrite\swm8722\solar18f8722\swm8722.c
                    rawp2   0x000239       data     extern L:\solarpic_rewrite\swm8722\solar18f8722\swm8722.c
                    rawp3   0x00023d       data     extern L:\solarpic_rewrite\swm8722\solar18f8722\swm8722.c
               real_ticks   0x00042e       data     extern L:\solarpic_rewrite\swm8722\solar18f8722\swm8722.c
                      res   0x00047e       data     static L:\solarpic_rewrite\swm8722\solar18f8722\sdspi.c
                      res   0x00047c       data     static L:\solarpic_rewrite\swm8722\solar18f8722\sdspi.c
                   result   0x00001c       data     static L:\solarpic_rewrite\swm8722\solar18f8722\power.c
                      ret   0x000dbe       data     static L:\solarpic_rewrite\swm8722\solar18f8722\swm8722.c
                      ret   0x000dce       data     static L:\solarpic_rewrite\swm8722\solar18f8722\swm8722.c
                    retry   0x00048d       data     static L:\solarpic_rewrite\swm8722\solar18f8722\sdspi.c
                    retry   0x00049a       data     static L:\solarpic_rewrite\swm8722\solar18f8722\sdspi.c
                    retry   0x000f4d       data     static L:\solarpic_rewrite\swm8722\solar18f8722\sdspi.c
                    retry   0x000f4c       data     static L:\solarpic_rewrite\swm8722\solar18f8722\sdspi.c
                   rx_tmp   0x000202       data     extern L:\solarpic_rewrite\swm8722\solar18f8722\swm8722.c
                        s   0x000db2       data     static L:\solarpic_rewrite\swm8722\solar18f8722\swm8722.c
                        s   0x000da6       data     static L:\solarpic_rewrite\swm8722\solar18f8722\swm8722.c
                   sdc0b1   0x000272       data     extern L:\solarpic_rewrite\swm8722\solar18f8722\swm8722.c
                     sign   0x0000e5       data     extern L:\solarpic_rewrite\swm8722\solar18f8722\swm8722.c
                     slot   0x0003f8       data     static L:\solarpic_rewrite\swm8722\solar18f8722\swm8722.c
                   smooth   0x00096a       data     extern L:\solarpic_rewrite\swm8722\solar18f8722\swm8722.c
                      soc   0x000020       data     static L:\solarpic_rewrite\swm8722\solar18f8722\power.c
               soc_loaded   0x000db8       data     static L:\solarpic_rewrite\swm8722\solar18f8722\swm8722.c
               soc_method   0x000d7a       data     extern L:\solarpic_rewrite\swm8722\solar18f8722\swm8722.c
               soc_result   0x000dbc       data     static L:\solarpic_rewrite\swm8722\solar18f8722\swm8722.c
                  solar_t   0x000249       data     extern L:\solarpic_rewrite\swm8722\solar18f8722\swm8722.c
            solarup_delay   0x0003a7       data     extern L:\solarpic_rewrite\swm8722\solar18f8722\swm8722.c
                      ssm   0x000493       data     static L:\solarpic_rewrite\swm8722\solar18f8722\sdspi.c
                      ssm   0x0004a0       data     static L:\solarpic_rewrite\swm8722\solar18f8722\sdspi.c
             status_count   0x000454       data     extern L:\solarpic_rewrite\swm8722\solar18f8722\swm8722.c
                       t1   0x0001e0       data     extern L:\solarpic_rewrite\swm8722\solar18f8722\swm8722.c
                       t2   0x0001e4       data     extern L:\solarpic_rewrite\swm8722\solar18f8722\swm8722.c
                       t3   0x0001e8       data     extern L:\solarpic_rewrite\swm8722\solar18f8722\swm8722.c
                       t4   0x0001ec       data     extern L:\solarpic_rewrite\swm8722\solar18f8722\swm8722.c
                       t5   0x0001f0       data     extern L:\solarpic_rewrite\swm8722\solar18f8722\swm8722.c
                       t6   0x0001f4       data     extern L:\solarpic_rewrite\swm8722\solar18f8722\swm8722.c
                       t7   0x0001f8       data     extern L:\solarpic_rewrite\swm8722\solar18f8722\swm8722.c
                    t_esr   0x000042       data     static L:\solarpic_rewrite\swm8722\solar18f8722\power.c
                    t_soc   0x000048       data     static L:\solarpic_rewrite\swm8722\solar18f8722\power.c
                   t_time   0x0001fc       data     extern L:\solarpic_rewrite\swm8722\solar18f8722\swm8722.c
              tblptru_sav   0x0003ff       data     static E:\c18v3.46\pic18-lt\cxx-framework\src\extended\stdclib\mcpyp2r.asm
                  termstr   0x000831       data     extern L:\solarpic_rewrite\swm8722\solar18f8722\swm8722.c
                    therm   0x00041a       data     extern L:\solarpic_rewrite\swm8722\solar18f8722\swm8722.c
                time_skew   0x0003b3       data     extern L:\solarpic_rewrite\swm8722\solar18f8722\swm8722.c
           time_skew_base   0x0003af       data     extern L:\solarpic_rewrite\swm8722\solar18f8722\swm8722.c
                    timer   0x000dfe       data     static L:\solarpic_rewrite\swm8722\solar18f8722\mbmc_vector.c
                    timer   0x000de3       data     static L:\solarpic_rewrite\swm8722\solar18f8722\mbmc_vector.c
                 timetemp   0x000030       data     static L:\solarpic_rewrite\swm8722\solar18f8722\power.c
                 timetemp   0x0003e3       data     static L:\solarpic_rewrite\swm8722\solar18f8722\swm8722.c
                      tmp   0x0004a2       data     static L:\solarpic_rewrite\swm8722\solar18f8722\sdspi.c
                      tmp   0x000495       data     static L:\solarpic_rewrite\swm8722\solar18f8722\sdspi.c
                    ttg_t   0x000d9a       data     static L:\solarpic_rewrite\swm8722\solar18f8722\swm8722.c
                   tx_tmp   0x000200       data     extern L:\solarpic_rewrite\swm8722\solar18f8722\swm8722.c
                    usage   0x000018       data     static L:\solarpic_rewrite\swm8722\solar18f8722\power.c
            use_dual_load   0x00003f       data     static L:\solarpic_rewrite\swm8722\solar18f8722\power.c
                  utctime   0x0003ab       data     extern L:\solarpic_rewrite\swm8722\solar18f8722\swm8722.c
                 vbatol_t   0x000245       data     extern L:\solarpic_rewrite\swm8722\solar18f8722\swm8722.c
                 vc_count   0x0002ef       data     static L:\solarpic_rewrite\swm8722\solar18f8722\mbmc_vector.c
                venttimer   0x000410       data     extern L:\solarpic_rewrite\swm8722\solar18f8722\swm8722.c
                     vinf   0x0003a5       data     extern L:\solarpic_rewrite\swm8722\solar18f8722\swm8722.c
                  vloaded   0x00000c       data     static L:\solarpic_rewrite\swm8722\solar18f8722\power.c
                  voltage   0x000028       data     static L:\solarpic_rewrite\swm8722\solar18f8722\power.c
                 voltfrak   0x000208       data     extern L:\solarpic_rewrite\swm8722\solar18f8722\swm8722.c
                     vsoc   0x000d7f       data     extern L:\solarpic_rewrite\swm8722\solar18f8722\swm8722.c
                 waittime   0x000dd5       data     static L:\solarpic_rewrite\swm8722\solar18f8722\swm8722.c
                 wday_str   0x000f24       data     extern L:\solarpic_rewrite\swm8722\solar18f8722\timelib.c
                   weight   0x000010       data     static L:\solarpic_rewrite\swm8722\solar18f8722\power.c
             worker_count   0x000464       data     extern L:\solarpic_rewrite\swm8722\solar18f8722\swm8722.c
             worker_timer   0x0002f0       data     static L:\solarpic_rewrite\swm8722\solar18f8722\mbmc_vector.c
                 worktick   0x00041c       data     extern L:\solarpic_rewrite\swm8722\solar18f8722\swm8722.c
                        x   0x000f4e       data     static L:\solarpic_rewrite\swm8722\solar18f8722\model.c
                        x   0x00005e       data     static L:\solarpic_rewrite\swm8722\solar18f8722\model.c
                        y   0x000f4f       data     static L:\solarpic_rewrite\swm8722\solar18f8722\model.c
                        z   0x000040       data     static L:\solarpic_rewrite\swm8722\solar18f8722\power.c
                        z   0x000f5a       data     static L:\solarpic_rewrite\swm8722\solar18f8722\hwconf.c
                        z   0x000de5       data     static L:\solarpic_rewrite\swm8722\solar18f8722\mbmc_vector.c
                        z   0x000de0       data     static L:\solarpic_rewrite\swm8722\solar18f8722\swm8722.c
                        z   0x000f41       data     static L:\solarpic_rewrite\swm8722\solar18f8722\power.c
                        z   0x00005f       data     static L:\solarpic_rewrite\swm8722\solar18f8722\model.c
                        z   0x000004       data     static L:\solarpic_rewrite\swm8722\solar18f8722\power.c
                        z   0x0003f7       data     static L:\solarpic_rewrite\swm8722\solar18f8722\swm8722.c
                        z   0x0003ec       data     static L:\solarpic_rewrite\swm8722\solar18f8722\swm8722.c
                        z   0x000d95       data     static L:\solarpic_rewrite\swm8722\solar18f8722\swm8722.c
                 zero_ref   0x0003a9       data     extern L:\solarpic_rewrite\swm8722\solar18f8722\swm8722.c



                              Symbols - Sorted by Address
                     Name    Address   Location    Storage File                     
                ---------  ---------  ---------  --------- ---------                
                   _entry   0x000000    program     extern E:\c18v3.46\pic18-lt\cxx-framework\src\extended\startup\c018iz_e.c
       ___return_lbl00000   0x000004    program     static                          
               _user_putc   0x000006    program     extern E:\c18v3.46\pic18-lt\cxx-framework\src\extended\stdclib\_user_putc.c
                 tick_int   0x000008    program     extern L:\solarpic_rewrite\swm8722\solar18f8722\swm8722.c
       ___return_lbl00000   0x00000c    program     static                          
                  BusyADC   0x00000e    program     extern E:\c18v3.46\pic18-lt\cxx-framework\src\pmc_common\ADC\adcbusy.c
                 work_int   0x000018    program     extern L:\solarpic_rewrite\swm8722\solar18f8722\swm8722.c
       ___return_lbl00001   0x00001c    program     static                          
                  peukert   0x0000c8    program     extern L:\solarpic_rewrite\swm8722\solar18f8722\swm8722.c
              LCD_VC_puts   0x00033a    program     extern L:\solarpic_rewrite\swm8722\solar18f8722\swm8722.c
              update_hist   0x0003ec    program     extern L:\solarpic_rewrite\swm8722\solar18f8722\swm8722.c
                 wdtdelay   0x00067e    program     extern L:\solarpic_rewrite\swm8722\solar18f8722\swm8722.c
          ___for_lbl00050   0x000692    program     static                          
               __tmplbl_2   0x0006a4    program     static                          
          ___for_lbl00048   0x0006aa    program     static                          
       ___return_lbl00047   0x0006b8    program     static                          
          ___for_lbl00049   0x0006b8    program     static                          
                  wdttime   0x0006c0    program     extern L:\solarpic_rewrite\swm8722\solar18f8722\swm8722.c
           ___do_lbl00054   0x000748    program     static                          
           ___do_lbl00052   0x0007a2    program     static                          
               __tmplbl_3   0x0007bc    program     static                          
       ___return_lbl00051   0x0007be    program     static                          
           ___do_lbl00053   0x0007be    program     static                          
            DelayFor18TCY   0x0007c6    program     extern L:\solarpic_rewrite\swm8722\solar18f8722\swm8722.c
          ___for_lbl00058   0x0007ca    program     static                          
          ___for_lbl00056   0x0007d4    program     static                          
       ___return_lbl00055   0x0007da    program     static                          
          ___for_lbl00057   0x0007da    program     static                          
             DelayPORXLCD   0x0007dc    program     extern L:\solarpic_rewrite\swm8722\solar18f8722\swm8722.c
                DelayXLCD   0x0007e8    program     extern L:\solarpic_rewrite\swm8722\solar18f8722\swm8722.c
                    putc2   0x0007f4    program     extern L:\solarpic_rewrite\swm8722\solar18f8722\swm8722.c
              start_delay   0x00080c    program     extern L:\solarpic_rewrite\swm8722\solar18f8722\swm8722.c
                  clr_lcd   0x000810    program     extern L:\solarpic_rewrite\swm8722\solar18f8722\swm8722.c
                lp_filter   0x000822    program     extern L:\solarpic_rewrite\swm8722\solar18f8722\swm8722.c
                term_time   0x000920    program     extern L:\solarpic_rewrite\swm8722\solar18f8722\swm8722.c
       ___return_lbl00075   0x0009f4    program     static                          
             hold_process   0x0009f6    program     extern L:\solarpic_rewrite\swm8722\solar18f8722\swm8722.c
              system_data   0x000a36    program     extern L:\solarpic_rewrite\swm8722\solar18f8722\swm8722.c
           ___if_lbl00081   0x000a84    program     static                          
           ___?:_lbl00083   0x000ed8    program     static                          
           ___?:_lbl00082   0x000eda    program     static                          
               __tmplbl_7   0x0010f6    program     static                          
               __tmplbl_6   0x0010fc    program     static                          
           ___if_lbl00085   0x001112    program     static                          
           ___if_lbl00086   0x001128    program     static                          
           ___if_lbl00087   0x00113a    program     static                          
           ___if_lbl00088   0x001150    program     static                          
           ___if_lbl00089   0x001168    program     static                          
           ___if_lbl00090   0x00117e    program     static                          
         ___else_lbl00092   0x0011be    program     static                          
           ___if_lbl00091   0x0011f8    program     static                          
         ___else_lbl00094   0x001432    program     static                          
           ___if_lbl00093   0x0014b2    program     static                          
          ___for_lbl00100   0x00167a    program     static                          
               __tmplbl_9   0x001692    program     static                          
               __tmplbl_8   0x001698    program     static                          
         ___else_lbl00099   0x0016bc    program     static                          
           ___if_lbl00098   0x001b12    program     static                          
          ___for_lbl00095   0x001b22    program     static                          
          ___for_lbl00096   0x001b28    program     static                          
          ___for_lbl00108   0x001b40    program     static                          
              __tmplbl_11   0x001b58    program     static                          
              __tmplbl_10   0x001b5e    program     static                          
         ___else_lbl00107   0x001b82    program     static                          
         ___else_lbl00105   0x001f80    program     static                          
           ___if_lbl00106   0x002010    program     static                          
           ___if_lbl00104   0x002010    program     static                          
          ___for_lbl00101   0x002020    program     static                          
          ___for_lbl00102   0x002026    program     static                          
       ___return_lbl00080   0x002038    program     static                          
              system_help   0x00203a    program     extern L:\solarpic_rewrite\swm8722\solar18f8722\swm8722.c
             sync_battsoc   0x002056    program     extern L:\solarpic_rewrite\swm8722\solar18f8722\swm8722.c
           display_system   0x0020a6    program     extern L:\solarpic_rewrite\swm8722\solar18f8722\swm8722.c
            set_batt_type   0x0021c0    program     extern L:\solarpic_rewrite\swm8722\solar18f8722\swm8722.c
               set_ganged   0x00223e    program     extern L:\solarpic_rewrite\swm8722\solar18f8722\swm8722.c
                set_tweak   0x00226c    program     extern L:\solarpic_rewrite\swm8722\solar18f8722\swm8722.c
               mkbsstring   0x00267a    program     extern L:\solarpic_rewrite\swm8722\solar18f8722\swm8722.c
                      hms   0x002dee    program     extern L:\solarpic_rewrite\swm8722\solar18f8722\swm8722.c
                       hm   0x002e7e    program     extern L:\solarpic_rewrite\swm8722\solar18f8722\swm8722.c
                     ABSI   0x002f08    program     extern L:\solarpic_rewrite\swm8722\solar18f8722\swm8722.c
                     ABSL   0x002f34    program     extern L:\solarpic_rewrite\swm8722\solar18f8722\swm8722.c
                   voltfp   0x002f70    program     extern L:\solarpic_rewrite\swm8722\solar18f8722\swm8722.c
                  voltfps   0x002f8a    program     extern L:\solarpic_rewrite\swm8722\solar18f8722\swm8722.c
                  voltfpi   0x002fa4    program     extern L:\solarpic_rewrite\swm8722\solar18f8722\swm8722.c
                     ahfp   0x003070    program     extern L:\solarpic_rewrite\swm8722\solar18f8722\swm8722.c
            ChargeRelayOn   0x0030f6    program     extern L:\solarpic_rewrite\swm8722\solar18f8722\swm8722.c
           ChargeRelayOff   0x0031c6    program     extern L:\solarpic_rewrite\swm8722\solar18f8722\swm8722.c
                 ResetC40   0x003278    program     extern L:\solarpic_rewrite\swm8722\solar18f8722\swm8722.c
                battalarm   0x003358    program     extern L:\solarpic_rewrite\swm8722\solar18f8722\swm8722.c
              check_alarm   0x003364    program     extern L:\solarpic_rewrite\swm8722\solar18f8722\swm8722.c
               update_cef   0x0036c6    program     extern L:\solarpic_rewrite\swm8722\solar18f8722\swm8722.c
             Volts_to_SOC   0x003808    program     extern L:\solarpic_rewrite\swm8722\solar18f8722\swm8722.c
              Get_RestSOC   0x003a50    program     extern L:\solarpic_rewrite\swm8722\solar18f8722\swm8722.c
                fail_safe   0x003b54    program     extern L:\solarpic_rewrite\swm8722\solar18f8722\swm8722.c
                  sd_dump   0x003c8e    program     extern L:\solarpic_rewrite\swm8722\solar18f8722\swm8722.c
           ___if_lbl00332   0x003d38    program     static                          
              __tmplbl_37   0x003d80    program     static                          
         ___else_lbl00334   0x003dac    program     static                          
           ___if_lbl00333   0x003db8    program     static                          
         ___else_lbl00336   0x003dba    program     static                          
           ___if_lbl00335   0x003dc6    program     static                          
          ___for_lbl00346   0x003dd6    program     static                          
              __tmplbl_38   0x003df0    program     static                          
           ___if_lbl00339   0x003e46    program     static                          
           ___if_lbl00341   0x003e94    program     static                          
           ___if_lbl00340   0x003e94    program     static                          
             __tmplbl_130   0x003ec0    program     static                          
              __tmplbl_39   0x003edc    program     static                          
           ___if_lbl00342   0x003ee6    program     static                          
             __tmplbl_131   0x003f06    program     static                          
        ___while_lbl00343   0x003f12    program     static                          
        ___while_lbl00344   0x003f1a    program     static                          
           ___if_lbl00345   0x003f5a    program     static                          
          ___for_lbl00337   0x003f5e    program     static                          
           ___if_lbl00347   0x003f6c    program     static                          
          ___for_lbl00338   0x003f6c    program     static                          
       ___return_lbl00331   0x003faa    program     static                          
               W_SDC0_EEP   0x003fb2    program     extern L:\solarpic_rewrite\swm8722\solar18f8722\swm8722.c
                   initsd   0x004004    program     extern L:\solarpic_rewrite\swm8722\solar18f8722\swm8722.c
                 ansidraw   0x00436a    program     extern L:\solarpic_rewrite\swm8722\solar18f8722\swm8722.c
           init_hist_data   0x0043ba    program     extern L:\solarpic_rewrite\swm8722\solar18f8722\swm8722.c
                     main   0x0044d6    program     extern L:\solarpic_rewrite\swm8722\solar18f8722\swm8722.c
          ___for_lbl00381   0x00476e    program     static                          
          ___for_lbl00379   0x004794    program     static                          
          ___for_lbl00380   0x00479a    program     static                          
          ___for_lbl00384   0x004822    program     static                          
          ___for_lbl00382   0x00484e    program     static                          
          ___for_lbl00383   0x004854    program     static                          
        ___while_lbl00385   0x0048f8    program     static                          
        ___while_lbl00386   0x004902    program     static                          
        ___while_lbl00387   0x00491e    program     static                          
        ___while_lbl00388   0x004928    program     static                          
        ___while_lbl00389   0x004932    program     static                          
        ___while_lbl00390   0x00493c    program     static                          
        ___while_lbl00391   0x004958    program     static                          
        ___while_lbl00392   0x004962    program     static                          
           ___if_lbl00393   0x004992    program     static                          
           ___if_lbl00394   0x0049c4    program     static                          
           ___if_lbl00395   0x0049f8    program     static                          
           ___if_lbl00396   0x004a2c    program     static                          
              __tmplbl_45   0x004b50    program     static                          
              __tmplbl_44   0x004b56    program     static                          
              __tmplbl_43   0x004b5c    program     static                          
              __tmplbl_42   0x004b62    program     static                          
           ___do_lbl00402   0x004bc4    program     static                          
           ___do_lbl00400   0x004bc6    program     static                          
           ___if_lbl00403   0x004bca    program     static                          
           ___do_lbl00401   0x004bca    program     static                          
           ___if_lbl00404   0x004bd4    program     static                          
              __tmplbl_47   0x004bda    program     static                          
              __tmplbl_46   0x004be0    program     static                          
         ___else_lbl00407   0x004bfe    program     static                          
           ___if_lbl00406   0x004c02    program     static                          
         ___else_lbl00409   0x004c54    program     static                          
           ___if_lbl00408   0x004c78    program     static                          
          ___for_lbl00415   0x004cfe    program     static                          
         ___else_lbl00413   0x004d68    program     static                          
           ___if_lbl00412   0x004d84    program     static                          
           ___if_lbl00414   0x004d84    program     static                          
          ___for_lbl00410   0x00517a    program     static                          
          ___for_lbl00411   0x005180    program     static                          
          ___for_lbl00418   0x0051ea    program     static                          
          ___for_lbl00416   0x00521c    program     static                          
          ___for_lbl00417   0x005222    program     static                          
           ___if_lbl00419   0x005222    program     static                          
          ___for_lbl00428   0x005254    program     static                          
              __tmplbl_50   0x005280    program     static                          
              __tmplbl_49   0x005288    program     static                          
              __tmplbl_48   0x005290    program     static                          
         ___else_lbl00427   0x0052b6    program     static                          
         ___else_lbl00425   0x00530e    program     static                          
          ___for_lbl00420   0x005346    program     static                          
           ___if_lbl00424   0x005346    program     static                          
           ___if_lbl00426   0x005346    program     static                          
          ___for_lbl00421   0x00534c    program     static                          
         ___else_lbl00435   0x00534e    program     static                          
          ___for_lbl00433   0x005368    program     static                          
         ___else_lbl00432   0x0053b6    program     static                          
           ___if_lbl00431   0x0053ee    program     static                          
          ___for_lbl00429   0x0053ee    program     static                          
           ___if_lbl00434   0x0053f4    program     static                          
          ___for_lbl00430   0x0053f4    program     static                          
          ___for_lbl00438   0x00543a    program     static                          
          ___for_lbl00436   0x0054a8    program     static                          
          ___for_lbl00437   0x0054ae    program     static                          
         ___else_lbl00443   0x0054c2    program     static                          
          ___for_lbl00441   0x0054dc    program     static                          
          ___for_lbl00439   0x00550e    program     static                          
          ___for_lbl00440   0x005514    program     static                          
           ___if_lbl00442   0x005514    program     static                          
        ___while_lbl00444   0x00551c    program     static                          
           ___if_lbl00446   0x00551e    program     static                          
        ___while_lbl00445   0x00551e    program     static                          
           ___if_lbl00447   0x00552c    program     static                          
           ___if_lbl00448   0x0055d4    program     static                          
              __tmplbl_53   0x0055da    program     static                          
              __tmplbl_52   0x005606    program     static                          
              __tmplbl_51   0x005632    program     static                          
           ___if_lbl00451   0x005636    program     static                          
        ___while_lbl00452   0x0057b8    program     static                          
              __tmplbl_54   0x0058b8    program     static                          
           ___if_lbl00454   0x0058dc    program     static                          
              __tmplbl_55   0x00590a    program     static                          
           ___if_lbl00455   0x005910    program     static                          
          ___for_lbl00459   0x005916    program     static                          
           ___if_lbl00458   0x005aa8    program     static                          
          ___for_lbl00456   0x005aa8    program     static                          
          ___for_lbl00457   0x005aae    program     static                          
         ___else_lbl00462   0x005ab4    program     static                          
           ___if_lbl00460   0x005ad4    program     static                          
           ___if_lbl00461   0x005ad4    program     static                          
              __tmplbl_56   0x005af0    program     static                          
           ___if_lbl00463   0x005af6    program     static                          
           ___if_lbl00464   0x005afa    program     static                          
           ___if_lbl00465   0x005b28    program     static                          
        ___while_lbl00466   0x005b66    program     static                          
              __tmplbl_59   0x005b7a    program     static                          
              __tmplbl_58   0x005b7c    program     static                          
              __tmplbl_57   0x005b8a    program     static                          
          ___for_lbl00473   0x005b96    program     static                          
           ___if_lbl00471   0x005bcc    program     static                          
          ___for_lbl00469   0x005c40    program     static                          
           ___if_lbl00472   0x005c40    program     static                          
          ___for_lbl00470   0x005c46    program     static                          
           ___if_lbl00475   0x005c50    program     static                          
           ___if_lbl00474   0x005c50    program     static                          
          ___for_lbl00478   0x005c80    program     static                          
          ___for_lbl00476   0x005cb2    program     static                          
          ___for_lbl00477   0x005cb8    program     static                          
           ___if_lbl00479   0x005cb8    program     static                          
          ___for_lbl00486   0x005d30    program     static                          
              __tmplbl_60   0x005dc8    program     static                          
              __tmplbl_62   0x005dee    program     static                          
              __tmplbl_61   0x005df4    program     static                          
           ___if_lbl00483   0x005e28    program     static                          
           ___if_lbl00485   0x005e86    program     static                          
          ___for_lbl00480   0x005e86    program     static                          
           ___if_lbl00484   0x005e86    program     static                          
          ___for_lbl00481   0x005e8c    program     static                          
           ___if_lbl00487   0x005e8c    program     static                          
              __tmplbl_64   0x005e98    program     static                          
              __tmplbl_65   0x005eac    program     static                          
              __tmplbl_63   0x005eb0    program     static                          
           ___do_lbl00510   0x005f40    program     static                          
           ___if_lbl00492   0x005f92    program     static                          
           ___if_lbl00493   0x005fb8    program     static                          
           ___if_lbl00494   0x005fd6    program     static                          
              __tmplbl_67   0x005fe0    program     static                          
              __tmplbl_66   0x005fe8    program     static                          
         ___else_lbl00498   0x00601a    program     static                          
           ___if_lbl00496   0x006028    program     static                          
           ___if_lbl00497   0x006058    program     static                          
              __tmplbl_68   0x006084    program     static                          
              __tmplbl_70   0x006092    program     static                          
              __tmplbl_69   0x00609a    program     static                          
           ___if_lbl00500   0x006152    program     static                          
         ___else_lbl00502   0x006154    program     static                          
           ___if_lbl00501   0x006196    program     static                          
           ___if_lbl00503   0x006196    program     static                          
          ___for_lbl00508   0x0061d0    program     static                          
           ___if_lbl00506   0x006206    program     static                          
          ___for_lbl00504   0x006224    program     static                          
           ___if_lbl00507   0x006224    program     static                          
          ___for_lbl00505   0x00622a    program     static                          
           ___do_lbl00489   0x00624c    program     static                          
           ___if_lbl00509   0x00624c    program     static                          
              __tmplbl_72   0x006256    program     static                          
              __tmplbl_71   0x006260    program     static                          
           ___do_lbl00490   0x006260    program     static                          
           ___if_lbl00511   0x006260    program     static                          
           ___if_lbl00512   0x00627a    program     static                          
          ___for_lbl00518   0x0062a6    program     static                          
           ___if_lbl00515   0x0063f2    program     static                          
           ___if_lbl00516   0x0065ea    program     static                          
          ___for_lbl00513   0x0065fa    program     static                          
           ___if_lbl00517   0x0065fa    program     static                          
          ___for_lbl00514   0x006600    program     static                          
        ___while_lbl00467   0x006618    program     static                          
        ___while_lbl00519   0x00665c    program     static                          
              __tmplbl_73   0x00666e    program     static                          
              __tmplbl_75   0x0067a6    program     static                          
              __tmplbl_78   0x0067cc    program     static                          
              __tmplbl_77   0x0067d0    program     static                          
              __tmplbl_79   0x0067f8    program     static                          
              __tmplbl_76   0x0067fa    program     static                          
              __tmplbl_74   0x006842    program     static                          
           ___if_lbl00524   0x006848    program     static                          
              __tmplbl_80   0x006876    program     static                          
           ___if_lbl00526   0x0068c2    program     static                          
           ___if_lbl00525   0x0068c2    program     static                          
           ___if_lbl00527   0x0068d8    program     static                          
           ___if_lbl00528   0x0068fa    program     static                          
        ___while_lbl00520   0x0068fc    program     static                          
        ___while_lbl00453   0x006922    program     static                          
       ___return_lbl00378   0x006922    program     static                          
                   __pa_0   0x006924    program     static L:\solarpic_rewrite\swm8722\solar18f8722\swm8722.c
                   __pa_1   0x006934    program     static L:\solarpic_rewrite\swm8722\solar18f8722\swm8722.c
                   __pa_2   0x00693c    program     static L:\solarpic_rewrite\swm8722\solar18f8722\swm8722.c
                   __pa_3   0x006944    program     static L:\solarpic_rewrite\swm8722\solar18f8722\swm8722.c
                   __pa_4   0x006954    program     static L:\solarpic_rewrite\swm8722\solar18f8722\swm8722.c
                   __pa_5   0x00696a    program     static L:\solarpic_rewrite\swm8722\solar18f8722\swm8722.c
                   __pa_6   0x00699e    program     static L:\solarpic_rewrite\swm8722\solar18f8722\swm8722.c
                   __pa_7   0x0069b2    program     static L:\solarpic_rewrite\swm8722\solar18f8722\swm8722.c
                   __pa_8   0x0069bc    program     static L:\solarpic_rewrite\swm8722\solar18f8722\swm8722.c
                   __pa_9   0x0069c6    program     static L:\solarpic_rewrite\swm8722\solar18f8722\swm8722.c
                  __pa_10   0x0069e0    program     static L:\solarpic_rewrite\swm8722\solar18f8722\swm8722.c
                  __pa_11   0x0069ea    program     static L:\solarpic_rewrite\swm8722\solar18f8722\swm8722.c
                  __pa_12   0x0069fe    program     static L:\solarpic_rewrite\swm8722\solar18f8722\swm8722.c
                  __pa_13   0x006a12    program     static L:\solarpic_rewrite\swm8722\solar18f8722\swm8722.c
                  __pa_14   0x006a1c    program     static L:\solarpic_rewrite\swm8722\solar18f8722\swm8722.c
                  __pa_15   0x006a26    program     static L:\solarpic_rewrite\swm8722\solar18f8722\swm8722.c
             __tmplbl_116   0x006a2c    program     static                          
             __tmplbl_115   0x006a2c    program     static                          
             __tmplbl_117   0x006a2c    program     static                          
             __tmplbl_112   0x006a2c    program     static                          
             __tmplbl_111   0x006a2c    program     static                          
             __tmplbl_118   0x006a2c    program     static                          
             __tmplbl_119   0x006a2c    program     static                          
                  __pa_16   0x006a2c    program     static L:\solarpic_rewrite\swm8722\solar18f8722\swm8722.c
             __tmplbl_124   0x006a2c    program     static                          
             __tmplbl_126   0x006a2c    program     static                          
             __tmplbl_127   0x006a2c    program     static                          
             __tmplbl_128   0x006a2c    program     static                          
             __tmplbl_139   0x006a2c    program     static                          
              __tmplbl_82   0x006a2c    program     static                          
              __tmplbl_88   0x006a2c    program     static                          
             __tmplbl_132   0x006a2c    program     static                          
              __tmplbl_81   0x006a2c    program     static                          
              __tmplbl_90   0x006a2c    program     static                          
                  __pa_17   0x006a34    program     static L:\solarpic_rewrite\swm8722\solar18f8722\swm8722.c
                  __pa_18   0x006a3a    program     static L:\solarpic_rewrite\swm8722\solar18f8722\swm8722.c
                  __pa_19   0x006a4a    program     static L:\solarpic_rewrite\swm8722\solar18f8722\swm8722.c
                  __pa_20   0x006a56    program     static L:\solarpic_rewrite\swm8722\solar18f8722\swm8722.c
                  __pa_21   0x006a5c    program     static L:\solarpic_rewrite\swm8722\solar18f8722\swm8722.c
                  __pa_22   0x006a64    program     static L:\solarpic_rewrite\swm8722\solar18f8722\swm8722.c
                  __pa_23   0x006a70    program     static L:\solarpic_rewrite\swm8722\solar18f8722\swm8722.c
                  __pa_24   0x006a76    program     static L:\solarpic_rewrite\swm8722\solar18f8722\swm8722.c
                  __pa_25   0x006a7c    program     static L:\solarpic_rewrite\swm8722\solar18f8722\swm8722.c
                  __pa_26   0x006a8a    program     static L:\solarpic_rewrite\swm8722\solar18f8722\swm8722.c
                  __pa_27   0x006a9e    program     static L:\solarpic_rewrite\swm8722\solar18f8722\swm8722.c
                  __pa_28   0x006ab2    program     static L:\solarpic_rewrite\swm8722\solar18f8722\swm8722.c
                  __pa_29   0x006ac8    program     static L:\solarpic_rewrite\swm8722\solar18f8722\swm8722.c
                  __pa_30   0x006ada    program     static L:\solarpic_rewrite\swm8722\solar18f8722\swm8722.c
                  __pa_31   0x006aec    program     static L:\solarpic_rewrite\swm8722\solar18f8722\swm8722.c
                  __pa_32   0x006b1e    program     static L:\solarpic_rewrite\swm8722\solar18f8722\swm8722.c
                  __pa_33   0x006b50    program     static L:\solarpic_rewrite\swm8722\solar18f8722\swm8722.c
                  __pa_34   0x006b6a    program     static L:\solarpic_rewrite\swm8722\solar18f8722\swm8722.c
                  __pa_35   0x006b72    program     static L:\solarpic_rewrite\swm8722\solar18f8722\swm8722.c
                  __pa_36   0x006b80    program     static L:\solarpic_rewrite\swm8722\solar18f8722\swm8722.c
                  __pa_37   0x006b8c    program     static L:\solarpic_rewrite\swm8722\solar18f8722\swm8722.c
                  __pa_38   0x006b9a    program     static L:\solarpic_rewrite\swm8722\solar18f8722\swm8722.c
                  __pa_39   0x006ba4    program     static L:\solarpic_rewrite\swm8722\solar18f8722\swm8722.c
                  __pa_40   0x006bac    program     static L:\solarpic_rewrite\swm8722\solar18f8722\swm8722.c
                  __pa_41   0x006bd0    program     static L:\solarpic_rewrite\swm8722\solar18f8722\swm8722.c
                  __pa_42   0x006bda    program     static L:\solarpic_rewrite\swm8722\solar18f8722\swm8722.c
                  __pa_43   0x006be4    program     static L:\solarpic_rewrite\swm8722\solar18f8722\swm8722.c
                  __pa_44   0x006bec    program     static L:\solarpic_rewrite\swm8722\solar18f8722\swm8722.c
                  __pa_45   0x006bf4    program     static L:\solarpic_rewrite\swm8722\solar18f8722\swm8722.c
                  __pa_46   0x006c06    program     static L:\solarpic_rewrite\swm8722\solar18f8722\swm8722.c
                  __pa_47   0x006c18    program     static L:\solarpic_rewrite\swm8722\solar18f8722\swm8722.c
                  __pa_48   0x006c20    program     static L:\solarpic_rewrite\swm8722\solar18f8722\swm8722.c
                  __pa_49   0x006c2c    program     static L:\solarpic_rewrite\swm8722\solar18f8722\swm8722.c
                  __pa_50   0x006c3e    program     static L:\solarpic_rewrite\swm8722\solar18f8722\swm8722.c
                  __pa_51   0x006c50    program     static L:\solarpic_rewrite\swm8722\solar18f8722\swm8722.c
                  __pa_52   0x006c62    program     static L:\solarpic_rewrite\swm8722\solar18f8722\swm8722.c
                  __pa_53   0x006c74    program     static L:\solarpic_rewrite\swm8722\solar18f8722\swm8722.c
                  __pa_54   0x006c82    program     static L:\solarpic_rewrite\swm8722\solar18f8722\swm8722.c
                  __pa_55   0x006c94    program     static L:\solarpic_rewrite\swm8722\solar18f8722\swm8722.c
                  __pa_56   0x006c9a    program     static L:\solarpic_rewrite\swm8722\solar18f8722\swm8722.c
                  __pa_57   0x006caa    program     static L:\solarpic_rewrite\swm8722\solar18f8722\swm8722.c
                  __pa_58   0x006cb6    program     static L:\solarpic_rewrite\swm8722\solar18f8722\swm8722.c
                  __pa_59   0x006cbc    program     static L:\solarpic_rewrite\swm8722\solar18f8722\swm8722.c
                  __pa_60   0x006cd4    program     static L:\solarpic_rewrite\swm8722\solar18f8722\swm8722.c
                  __pa_61   0x006ce8    program     static L:\solarpic_rewrite\swm8722\solar18f8722\swm8722.c
                  __pa_62   0x006cf6    program     static L:\solarpic_rewrite\swm8722\solar18f8722\swm8722.c
                  __pa_63   0x006d0e    program     static L:\solarpic_rewrite\swm8722\solar18f8722\swm8722.c
                  __pa_64   0x006d22    program     static L:\solarpic_rewrite\swm8722\solar18f8722\swm8722.c
                  __pa_65   0x006d36    program     static L:\solarpic_rewrite\swm8722\solar18f8722\swm8722.c
                  __pa_66   0x006d4a    program     static L:\solarpic_rewrite\swm8722\solar18f8722\swm8722.c
                  __pa_67   0x006d62    program     static L:\solarpic_rewrite\swm8722\solar18f8722\swm8722.c
                  __pa_68   0x006d68    program     static L:\solarpic_rewrite\swm8722\solar18f8722\swm8722.c
                  __pa_69   0x006d70    program     static L:\solarpic_rewrite\swm8722\solar18f8722\swm8722.c
                  __pa_70   0x006d82    program     static L:\solarpic_rewrite\swm8722\solar18f8722\swm8722.c
                  __pa_71   0x006d8a    program     static L:\solarpic_rewrite\swm8722\solar18f8722\swm8722.c
                  __pa_72   0x006d98    program     static L:\solarpic_rewrite\swm8722\solar18f8722\swm8722.c
                  __pa_73   0x006d9e    program     static L:\solarpic_rewrite\swm8722\solar18f8722\swm8722.c
                  __pa_74   0x006da8    program     static L:\solarpic_rewrite\swm8722\solar18f8722\swm8722.c
                  __pa_75   0x006db2    program     static L:\solarpic_rewrite\swm8722\solar18f8722\swm8722.c
                  __pa_76   0x006dbc    program     static L:\solarpic_rewrite\swm8722\solar18f8722\swm8722.c
                  __pa_77   0x006dc4    program     static L:\solarpic_rewrite\swm8722\solar18f8722\swm8722.c
                  __pa_78   0x006dd8    program     static L:\solarpic_rewrite\swm8722\solar18f8722\swm8722.c
                  __pa_79   0x006dec    program     static L:\solarpic_rewrite\swm8722\solar18f8722\swm8722.c
                  __pa_80   0x006e00    program     static L:\solarpic_rewrite\swm8722\solar18f8722\swm8722.c
                  __pa_81   0x006e14    program     static L:\solarpic_rewrite\swm8722\solar18f8722\swm8722.c
                  __pa_82   0x006e26    program     static L:\solarpic_rewrite\swm8722\solar18f8722\swm8722.c
                  __pa_83   0x006e38    program     static L:\solarpic_rewrite\swm8722\solar18f8722\swm8722.c
                  __pa_84   0x006e40    program     static L:\solarpic_rewrite\swm8722\solar18f8722\swm8722.c
                  __pa_85   0x006e4c    program     static L:\solarpic_rewrite\swm8722\solar18f8722\swm8722.c
                  __pa_86   0x006e5e    program     static L:\solarpic_rewrite\swm8722\solar18f8722\swm8722.c
                  __pa_87   0x006e70    program     static L:\solarpic_rewrite\swm8722\solar18f8722\swm8722.c
                  __pa_88   0x006e82    program     static L:\solarpic_rewrite\swm8722\solar18f8722\swm8722.c
                  __pa_89   0x006e94    program     static L:\solarpic_rewrite\swm8722\solar18f8722\swm8722.c
                  __pa_90   0x006ea6    program     static L:\solarpic_rewrite\swm8722\solar18f8722\swm8722.c
                  __pa_91   0x006eb8    program     static L:\solarpic_rewrite\swm8722\solar18f8722\swm8722.c
                  __pa_92   0x006eca    program     static L:\solarpic_rewrite\swm8722\solar18f8722\swm8722.c
                  __pa_93   0x006ed0    program     static L:\solarpic_rewrite\swm8722\solar18f8722\swm8722.c
                  __pa_94   0x006ee2    program     static L:\solarpic_rewrite\swm8722\solar18f8722\swm8722.c
                  __pa_95   0x006ef4    program     static L:\solarpic_rewrite\swm8722\solar18f8722\swm8722.c
                  __pa_96   0x006f00    program     static L:\solarpic_rewrite\swm8722\solar18f8722\swm8722.c
                  __pa_97   0x006f0a    program     static L:\solarpic_rewrite\swm8722\solar18f8722\swm8722.c
                  __pa_98   0x006f14    program     static L:\solarpic_rewrite\swm8722\solar18f8722\swm8722.c
                  __pa_99   0x006f1e    program     static L:\solarpic_rewrite\swm8722\solar18f8722\swm8722.c
                 __pa_100   0x006f28    program     static L:\solarpic_rewrite\swm8722\solar18f8722\swm8722.c
                 __pa_101   0x006f30    program     static L:\solarpic_rewrite\swm8722\solar18f8722\swm8722.c
                 __pa_102   0x006f40    program     static L:\solarpic_rewrite\swm8722\solar18f8722\swm8722.c
                 __pa_103   0x006f50    program     static L:\solarpic_rewrite\swm8722\solar18f8722\swm8722.c
                 __pa_104   0x006f5e    program     static L:\solarpic_rewrite\swm8722\solar18f8722\swm8722.c
                 __pa_105   0x006f6c    program     static L:\solarpic_rewrite\swm8722\solar18f8722\swm8722.c
                 __pa_106   0x006f74    program     static L:\solarpic_rewrite\swm8722\solar18f8722\swm8722.c
                 __pa_107   0x006f7e    program     static L:\solarpic_rewrite\swm8722\solar18f8722\swm8722.c
                 __pa_108   0x006f84    program     static L:\solarpic_rewrite\swm8722\solar18f8722\swm8722.c
                 __pa_109   0x006f8e    program     static L:\solarpic_rewrite\swm8722\solar18f8722\swm8722.c
                 __pa_110   0x006f98    program     static L:\solarpic_rewrite\swm8722\solar18f8722\swm8722.c
                 __pa_111   0x006fa0    program     static L:\solarpic_rewrite\swm8722\solar18f8722\swm8722.c
                 __pa_112   0x006fac    program     static L:\solarpic_rewrite\swm8722\solar18f8722\swm8722.c
                 __pa_113   0x006fae    program     static L:\solarpic_rewrite\swm8722\solar18f8722\swm8722.c
                 __pa_114   0x006fca    program     static L:\solarpic_rewrite\swm8722\solar18f8722\swm8722.c
                 __pa_115   0x006fd2    program     static L:\solarpic_rewrite\swm8722\solar18f8722\swm8722.c
                 __pa_116   0x006fd8    program     static L:\solarpic_rewrite\swm8722\solar18f8722\swm8722.c
                 __pa_117   0x006fde    program     static L:\solarpic_rewrite\swm8722\solar18f8722\swm8722.c
                 __pa_118   0x006fe4    program     static L:\solarpic_rewrite\swm8722\solar18f8722\swm8722.c
                 __pa_119   0x006ff6    program     static L:\solarpic_rewrite\swm8722\solar18f8722\swm8722.c
                 __pa_120   0x006ffe    program     static L:\solarpic_rewrite\swm8722\solar18f8722\swm8722.c
                 __pa_121   0x007004    program     static L:\solarpic_rewrite\swm8722\solar18f8722\swm8722.c
                 __pa_122   0x00700c    program     static L:\solarpic_rewrite\swm8722\solar18f8722\swm8722.c
                 __pa_123   0x007022    program     static L:\solarpic_rewrite\swm8722\solar18f8722\swm8722.c
                 __pa_124   0x007036    program     static L:\solarpic_rewrite\swm8722\solar18f8722\swm8722.c
                 __pa_125   0x007044    program     static L:\solarpic_rewrite\swm8722\solar18f8722\swm8722.c
                 __pa_126   0x00704a    program     static L:\solarpic_rewrite\swm8722\solar18f8722\swm8722.c
                 __pa_127   0x007066    program     static L:\solarpic_rewrite\swm8722\solar18f8722\swm8722.c
                 __pa_128   0x007078    program     static L:\solarpic_rewrite\swm8722\solar18f8722\swm8722.c
                 __pa_129   0x007082    program     static L:\solarpic_rewrite\swm8722\solar18f8722\swm8722.c
                 __pa_130   0x007096    program     static L:\solarpic_rewrite\swm8722\solar18f8722\swm8722.c
                 __pa_131   0x00709e    program     static L:\solarpic_rewrite\swm8722\solar18f8722\swm8722.c
                 __pa_132   0x0070a6    program     static L:\solarpic_rewrite\swm8722\solar18f8722\swm8722.c
                 __pa_133   0x0070b0    program     static L:\solarpic_rewrite\swm8722\solar18f8722\swm8722.c
                 __pa_134   0x0070b6    program     static L:\solarpic_rewrite\swm8722\solar18f8722\swm8722.c
                 __pa_135   0x0070c6    program     static L:\solarpic_rewrite\swm8722\solar18f8722\swm8722.c
                 __pa_136   0x0070ce    program     static L:\solarpic_rewrite\swm8722\solar18f8722\swm8722.c
                 __pa_137   0x0070d6    program     static L:\solarpic_rewrite\swm8722\solar18f8722\swm8722.c
                 __pa_138   0x0070e0    program     static L:\solarpic_rewrite\swm8722\solar18f8722\swm8722.c
                 __pa_139   0x0070f4    program     static L:\solarpic_rewrite\swm8722\solar18f8722\swm8722.c
                 __pa_140   0x0070fa    program     static L:\solarpic_rewrite\swm8722\solar18f8722\swm8722.c
                 __pa_141   0x00710a    program     static L:\solarpic_rewrite\swm8722\solar18f8722\swm8722.c
                 __pa_142   0x00711c    program     static L:\solarpic_rewrite\swm8722\solar18f8722\swm8722.c
             __tmplbl_109   0x00711c    program     static                          
             __tmplbl_110   0x00711c    program     static                          
                 __pa_143   0x00712c    program     static L:\solarpic_rewrite\swm8722\solar18f8722\swm8722.c
                 __pa_144   0x00713e    program     static L:\solarpic_rewrite\swm8722\solar18f8722\swm8722.c
                 __pa_145   0x007150    program     static L:\solarpic_rewrite\swm8722\solar18f8722\swm8722.c
                 __pa_146   0x00715c    program     static L:\solarpic_rewrite\swm8722\solar18f8722\swm8722.c
                 __pa_147   0x00716e    program     static L:\solarpic_rewrite\swm8722\solar18f8722\swm8722.c
                 __pa_148   0x007178    program     static L:\solarpic_rewrite\swm8722\solar18f8722\swm8722.c
                 __pa_149   0x007184    program     static L:\solarpic_rewrite\swm8722\solar18f8722\swm8722.c
                 __pa_150   0x00718e    program     static L:\solarpic_rewrite\swm8722\solar18f8722\swm8722.c
                 __pa_151   0x007196    program     static L:\solarpic_rewrite\swm8722\solar18f8722\swm8722.c
                 __pa_152   0x0071a0    program     static L:\solarpic_rewrite\swm8722\solar18f8722\swm8722.c
                 __pa_153   0x0071ae    program     static L:\solarpic_rewrite\swm8722\solar18f8722\swm8722.c
                 __pa_154   0x0071bc    program     static L:\solarpic_rewrite\swm8722\solar18f8722\swm8722.c
                 __pa_155   0x0071c2    program     static L:\solarpic_rewrite\swm8722\solar18f8722\swm8722.c
                 __pa_156   0x0071ca    program     static L:\solarpic_rewrite\swm8722\solar18f8722\swm8722.c
                 __pa_157   0x0071d0    program     static L:\solarpic_rewrite\swm8722\solar18f8722\swm8722.c
                 __pa_158   0x0071dc    program     static L:\solarpic_rewrite\swm8722\solar18f8722\swm8722.c
                 __pa_159   0x0071e6    program     static L:\solarpic_rewrite\swm8722\solar18f8722\swm8722.c
             __tmplbl_113   0x0071f4    program     static                          
             __tmplbl_114   0x0071f4    program     static                          
                 __pa_160   0x0071f4    program     static L:\solarpic_rewrite\swm8722\solar18f8722\swm8722.c
                 __pa_161   0x0071fc    program     static L:\solarpic_rewrite\swm8722\solar18f8722\swm8722.c
                 __pa_162   0x007208    program     static L:\solarpic_rewrite\swm8722\solar18f8722\swm8722.c
                 __pa_163   0x007212    program     static L:\solarpic_rewrite\swm8722\solar18f8722\swm8722.c
                 __pa_164   0x00721c    program     static L:\solarpic_rewrite\swm8722\solar18f8722\swm8722.c
                 __pa_165   0x007226    program     static L:\solarpic_rewrite\swm8722\solar18f8722\swm8722.c
                 __pa_166   0x007230    program     static L:\solarpic_rewrite\swm8722\solar18f8722\swm8722.c
                 __pa_167   0x007234    program     static L:\solarpic_rewrite\swm8722\solar18f8722\swm8722.c
                 __pa_168   0x00723c    program     static L:\solarpic_rewrite\swm8722\solar18f8722\swm8722.c
                 __pa_169   0x007244    program     static L:\solarpic_rewrite\swm8722\solar18f8722\swm8722.c
                 __pa_170   0x00724c    program     static L:\solarpic_rewrite\swm8722\solar18f8722\swm8722.c
                 __pa_171   0x00725a    program     static L:\solarpic_rewrite\swm8722\solar18f8722\swm8722.c
                 __pa_172   0x007276    program     static L:\solarpic_rewrite\swm8722\solar18f8722\swm8722.c
                 __pa_173   0x00727c    program     static L:\solarpic_rewrite\swm8722\solar18f8722\swm8722.c
                 __pa_174   0x00728c    program     static L:\solarpic_rewrite\swm8722\solar18f8722\swm8722.c
                 __pa_175   0x0072a0    program     static L:\solarpic_rewrite\swm8722\solar18f8722\swm8722.c
                 __pa_176   0x0072b2    program     static L:\solarpic_rewrite\swm8722\solar18f8722\swm8722.c
                 __pa_177   0x0072ba    program     static L:\solarpic_rewrite\swm8722\solar18f8722\swm8722.c
                 __pa_178   0x0072c4    program     static L:\solarpic_rewrite\swm8722\solar18f8722\swm8722.c
                 __pa_179   0x0072d0    program     static L:\solarpic_rewrite\swm8722\solar18f8722\swm8722.c
                 __pa_180   0x0072da    program     static L:\solarpic_rewrite\swm8722\solar18f8722\swm8722.c
                 __pa_181   0x0072e6    program     static L:\solarpic_rewrite\swm8722\solar18f8722\swm8722.c
             __tmplbl_140   0x0072f6    program     static                          
                 __pa_182   0x0072f6    program     static L:\solarpic_rewrite\swm8722\solar18f8722\swm8722.c
                 __pa_183   0x007300    program     static L:\solarpic_rewrite\swm8722\solar18f8722\swm8722.c
                 __pa_184   0x007308    program     static L:\solarpic_rewrite\swm8722\solar18f8722\swm8722.c
                 __pa_185   0x007310    program     static L:\solarpic_rewrite\swm8722\solar18f8722\swm8722.c
                 __pa_186   0x007318    program     static L:\solarpic_rewrite\swm8722\solar18f8722\swm8722.c
                 __pa_187   0x007322    program     static L:\solarpic_rewrite\swm8722\solar18f8722\swm8722.c
                 __pa_188   0x007330    program     static L:\solarpic_rewrite\swm8722\solar18f8722\swm8722.c
                 __pa_189   0x00733c    program     static L:\solarpic_rewrite\swm8722\solar18f8722\swm8722.c
                 __pa_190   0x007342    program     static L:\solarpic_rewrite\swm8722\solar18f8722\swm8722.c
                 __pa_191   0x00734c    program     static L:\solarpic_rewrite\swm8722\solar18f8722\swm8722.c
                 __pa_192   0x007356    program     static L:\solarpic_rewrite\swm8722\solar18f8722\swm8722.c
                 __pa_193   0x007362    program     static L:\solarpic_rewrite\swm8722\solar18f8722\swm8722.c
                 __pa_194   0x00736c    program     static L:\solarpic_rewrite\swm8722\solar18f8722\swm8722.c
                 __pa_195   0x007372    program     static L:\solarpic_rewrite\swm8722\solar18f8722\swm8722.c
                 __pa_196   0x00737c    program     static L:\solarpic_rewrite\swm8722\solar18f8722\swm8722.c
                 __pa_197   0x007386    program     static L:\solarpic_rewrite\swm8722\solar18f8722\swm8722.c
                 __pa_198   0x00738c    program     static L:\solarpic_rewrite\swm8722\solar18f8722\swm8722.c
                 __pa_199   0x007392    program     static L:\solarpic_rewrite\swm8722\solar18f8722\swm8722.c
                 __pa_200   0x007398    program     static L:\solarpic_rewrite\swm8722\solar18f8722\swm8722.c
                 __pa_201   0x00739e    program     static L:\solarpic_rewrite\swm8722\solar18f8722\swm8722.c
                 __pa_202   0x0073a6    program     static L:\solarpic_rewrite\swm8722\solar18f8722\swm8722.c
                 __pa_203   0x0073ae    program     static L:\solarpic_rewrite\swm8722\solar18f8722\swm8722.c
                 __pa_204   0x0073b6    program     static L:\solarpic_rewrite\swm8722\solar18f8722\swm8722.c
                 __pa_205   0x0073be    program     static L:\solarpic_rewrite\swm8722\solar18f8722\swm8722.c
                 __pa_206   0x0073c6    program     static L:\solarpic_rewrite\swm8722\solar18f8722\swm8722.c
                 __pa_207   0x0073cc    program     static L:\solarpic_rewrite\swm8722\solar18f8722\swm8722.c
            charger_power   0x0073d4    program     extern L:\solarpic_rewrite\swm8722\solar18f8722\power.c
             divert_power   0x0074fe    program     extern L:\solarpic_rewrite\swm8722\solar18f8722\power.c
               pv_pwm_set   0x00766a    program     extern L:\solarpic_rewrite\swm8722\solar18f8722\power.c
              pv_pwm_calc   0x0076ce    program     extern L:\solarpic_rewrite\swm8722\solar18f8722\power.c
          pv_pwm_shutdown   0x0077ca    program     extern L:\solarpic_rewrite\swm8722\solar18f8722\power.c
           predict_energy   0x0077ee    program     extern L:\solarpic_rewrite\swm8722\solar18f8722\power.c
                pick_batt   0x00780a    program     extern L:\solarpic_rewrite\swm8722\solar18f8722\power.c
             __tmplbl_196   0x0082c2    program     static                          
               noload_soc   0x0082c6    program     extern L:\solarpic_rewrite\swm8722\solar18f8722\power.c
               ChargeBatt   0x0087e2    program     extern L:\solarpic_rewrite\swm8722\solar18f8722\power.c
              __tmplbl_93   0x0088b4    program     static                          
              __tmplbl_92   0x0088ba    program     static                          
          ___for_lbl00189   0x0088be    program     static                          
          ___for_lbl00187   0x008906    program     static                          
          ___for_lbl00188   0x00890c    program     static                          
           ___if_lbl00190   0x00890c    program     static                          
         ___else_lbl00194   0x00890e    program     static                          
              __tmplbl_94   0x0089f2    program     static                          
           ___if_lbl00191   0x008a3a    program     static                          
           ___if_lbl00192   0x008a3e    program     static                          
           ___if_lbl00193   0x008a78    program     static                          
              __tmplbl_96   0x008a7e    program     static                          
              __tmplbl_95   0x008a86    program     static                          
           ___if_lbl00196   0x008ad2    program     static                          
           ___if_lbl00197   0x008b1e    program     static                          
              __tmplbl_98   0x008b64    program     static                          
             __tmplbl_100   0x008bbc    program     static                          
              __tmplbl_99   0x008bbe    program     static                          
              __tmplbl_97   0x008bfa    program     static                          
           ___if_lbl00200   0x008d04    program     static                          
           ___if_lbl00201   0x008d2c    program     static                          
           ___if_lbl00202   0x008d8e    program     static                          
             __tmplbl_101   0x008e8a    program     static                          
         ___else_lbl00204   0x008f46    program     static                          
           ___if_lbl00203   0x008f50    program     static                          
             __tmplbl_103   0x008f5c    program     static                          
             __tmplbl_102   0x008f68    program     static                          
           ___if_lbl00206   0x008f72    program     static                          
           ___if_lbl00207   0x00909c    program     static                          
             __tmplbl_105   0x0091c0    program     static                          
             __tmplbl_104   0x0091e8    program     static                          
           ___if_lbl00209   0x00920c    program     static                          
           ___if_lbl00210   0x0092be    program     static                          
         ___else_lbl00217   0x009440    program     static                          
             __tmplbl_106   0x0094fe    program     static                          
         ___else_lbl00212   0x0095d6    program     static                          
           ___if_lbl00211   0x0095fa    program     static                          
             __tmplbl_108   0x009622    program     static                          
             __tmplbl_107   0x00964a    program     static                          
           ___if_lbl00214   0x00966e    program     static                          
           ___if_lbl00215   0x009720    program     static                          
           ___if_lbl00216   0x0097ce    program     static                          
         ___else_lbl00220   0x0097d0    program     static                          
           ___if_lbl00218   0x009a0a    program     static                          
           ___if_lbl00219   0x009a20    program     static                          
             __tmplbl_110   0x009a76    program     static                          
             __tmplbl_109   0x009a7c    program     static                          
           ___if_lbl00222   0x009a9a    program     static                          
             __tmplbl_111   0x009b02    program     static                          
           ___if_lbl00223   0x009b24    program     static                          
             __tmplbl_112   0x009b50    program     static                          
           ___if_lbl00224   0x009b72    program     static                          
             __tmplbl_113   0x009b9e    program     static                          
           ___if_lbl00225   0x009bc0    program     static                          
             __tmplbl_116   0x009c2a    program     static                          
             __tmplbl_115   0x009c2c    program     static                          
             __tmplbl_117   0x009cb0    program     static                          
             __tmplbl_114   0x009cb2    program     static                          
           ___if_lbl00227   0x009cd2    program     static                          
             __tmplbl_207   0x009d0c    program     static                          
             __tmplbl_118   0x009d46    program     static                          
             __tmplbl_119   0x009d76    program     static                          
           ___if_lbl00228   0x009dc8    program     static                          
           ___if_lbl00229   0x009dc8    program     static                          
             __tmplbl_208   0x009e02    program     static                          
             __tmplbl_120   0x009e40    program     static                          
             __tmplbl_121   0x009e6e    program     static                          
           ___if_lbl00231   0x009ec0    program     static                          
           ___if_lbl00230   0x009ec0    program     static                          
           ___if_lbl00232   0x009f28    program     static                          
           ___if_lbl00233   0x009f54    program     static                          
           ___if_lbl00234   0x009f80    program     static                          
             __tmplbl_123   0x009f98    program     static                          
             __tmplbl_122   0x009fa0    program     static                          
           ___if_lbl00236   0x009fe4    program     static                          
           ___if_lbl00237   0x00a16a    program     static                          
           ___do_lbl00333   0x00a190    program     static                          
           ___if_lbl00240   0x00a1d4    program     static                          
           ___if_lbl00241   0x00a1f6    program     static                          
           ___if_lbl00242   0x00a3f6    program     static                          
           ___if_lbl00243   0x00a412    program     static                          
             __tmplbl_127   0x00a46a    program     static                          
             __tmplbl_126   0x00a46e    program     static                          
             __tmplbl_125   0x00a490    program     static                          
             __tmplbl_124   0x00a496    program     static                          
             __tmplbl_128   0x00a506    program     static                          
           ___if_lbl00246   0x00a540    program     static                          
           ___if_lbl00247   0x00a59a    program     static                          
           ___if_lbl00248   0x00a5b4    program     static                          
             __tmplbl_129   0x00a622    program     static                          
           ___if_lbl00249   0x00a65a    program     static                          
           ___if_lbl00250   0x00a6b4    program     static                          
           ___if_lbl00251   0x00a6e4    program     static                          
           ___if_lbl00252   0x00a6e4    program     static                          
           ___if_lbl00253   0x00a756    program     static                          
             __tmplbl_130   0x00a788    program     static                          
           ___if_lbl00254   0x00a7c0    program     static                          
           ___if_lbl00255   0x00a81a    program     static                          
           ___if_lbl00257   0x00a834    program     static                          
           ___if_lbl00256   0x00a834    program     static                          
           ___if_lbl00258   0x00a874    program     static                          
           ___if_lbl00259   0x00a8ce    program     static                          
             __tmplbl_132   0x00a8ea    program     static                          
             __tmplbl_131   0x00a8f0    program     static                          
          ___for_lbl00263   0x00a8f4    program     static                          
          ___for_lbl00261   0x00a97c    program     static                          
           ___if_lbl00264   0x00a982    program     static                          
          ___for_lbl00262   0x00a982    program     static                          
           ___if_lbl00265   0x00a986    program     static                          
             __tmplbl_133   0x00a998    program     static                          
           ___if_lbl00266   0x00a9d0    program     static                          
           ___if_lbl00267   0x00aa2a    program     static                          
           ___if_lbl00268   0x00aa5a    program     static                          
             __tmplbl_135   0x00aa60    program     static                          
             __tmplbl_136   0x00aa72    program     static                          
             __tmplbl_134   0x00aa74    program     static                          
             __tmplbl_138   0x00aa7a    program     static                          
             __tmplbl_137   0x00aa80    program     static                          
           ___if_lbl00271   0x00aa98    program     static                          
         ___else_lbl00279   0x00aa9a    program     static                          
             __tmplbl_142   0x00aaa0    program     static                          
             __tmplbl_143   0x00aab4    program     static                          
             __tmplbl_141   0x00aab6    program     static                          
             __tmplbl_140   0x00aad8    program     static                          
             __tmplbl_139   0x00aafa    program     static                          
             __tmplbl_145   0x00ab00    program     static                          
             __tmplbl_144   0x00ab06    program     static                          
           ___if_lbl00278   0x00ab1e    program     static                          
           ___if_lbl00277   0x00ab1e    program     static                          
           ___if_lbl00276   0x00ab1e    program     static                          
             __tmplbl_147   0x00ab24    program     static                          
             __tmplbl_148   0x00ab36    program     static                          
             __tmplbl_146   0x00ab38    program     static                          
             __tmplbl_150   0x00ab82    program     static                          
             __tmplbl_149   0x00ab88    program     static                          
           ___if_lbl00283   0x00aba0    program     static                          
           ___if_lbl00282   0x00aba0    program     static                          
             __tmplbl_152   0x00abba    program     static                          
             __tmplbl_151   0x00abc4    program     static                          
           ___if_lbl00285   0x00ad0a    program     static                          
           ___if_lbl00286   0x00ad64    program     static                          
           ___if_lbl00287   0x00ad7e    program     static                          
             __tmplbl_155   0x00adac    program     static                          
             __tmplbl_154   0x00adb0    program     static                          
             __tmplbl_153   0x00adb8    program     static                          
           ___if_lbl00289   0x00afce    program     static                          
           ___if_lbl00290   0x00b03e    program     static                          
           ___if_lbl00291   0x00b0ae    program     static                          
           ___if_lbl00292   0x00b11e    program     static                          
           ___if_lbl00294   0x00b152    program     static                          
           ___if_lbl00293   0x00b152    program     static                          
             __tmplbl_157   0x00b15a    program     static                          
             __tmplbl_156   0x00b166    program     static                          
             __tmplbl_158   0x00b1ba    program     static                          
           ___if_lbl00296   0x00b1be    program     static                          
             __tmplbl_161   0x00b1c6    program     static                          
             __tmplbl_162   0x00b1d8    program     static                          
             __tmplbl_160   0x00b1dc    program     static                          
             __tmplbl_159   0x00b1e2    program     static                          
           ___if_lbl00299   0x00b310    program     static                          
           ___if_lbl00300   0x00b310    program     static                          
             __tmplbl_164   0x00b31a    program     static                          
             __tmplbl_163   0x00b324    program     static                          
           ___if_lbl00302   0x00b34c    program     static                          
           ___if_lbl00303   0x00b366    program     static                          
             __tmplbl_165   0x00b45c    program     static                          
           ___if_lbl00304   0x00b676    program     static                          
           ___if_lbl00305   0x00b6e6    program     static                          
           ___if_lbl00306   0x00b756    program     static                          
           ___if_lbl00307   0x00b7c6    program     static                          
           ___if_lbl00308   0x00b7fa    program     static                          
           ___if_lbl00309   0x00b7fa    program     static                          
           ___if_lbl00310   0x00b85a    program     static                          
             __tmplbl_167   0x00ba5e    program     static                          
             __tmplbl_166   0x00ba64    program     static                          
          ___for_lbl00314   0x00ba68    program     static                          
          ___for_lbl00312   0x00baf0    program     static                          
           ___if_lbl00315   0x00baf6    program     static                          
          ___for_lbl00313   0x00baf6    program     static                          
             __tmplbl_170   0x00bb18    program     static                          
             __tmplbl_169   0x00bb3a    program     static                          
             __tmplbl_168   0x00bb44    program     static                          
         ___else_lbl00319   0x00bba8    program     static                          
           ___if_lbl00320   0x00bbbe    program     static                          
           ___if_lbl00318   0x00bbbe    program     static                          
           ___if_lbl00321   0x00bbc2    program     static                          
           ___if_lbl00322   0x00bbe2    program     static                          
             __tmplbl_173   0x00bbf4    program     static                          
             __tmplbl_172   0x00bbf6    program     static                          
             __tmplbl_171   0x00bbfc    program     static                          
           ___if_lbl00325   0x00bc2a    program     static                          
           ___if_lbl00324   0x00bc2a    program     static                          
           ___if_lbl00326   0x00bc62    program     static                          
             __tmplbl_175   0x00bc6a    program     static                          
             __tmplbl_174   0x00bc72    program     static                          
           ___if_lbl00328   0x00bc78    program     static                          
           ___if_lbl00329   0x00bd28    program     static                          
           ___if_lbl00330   0x00bd34    program     static                          
         ___else_lbl00332   0x00bec0    program     static                          
           ___if_lbl00331   0x00c026    program     static                          
           ___do_lbl00238   0x00c166    program     static                          
             __tmplbl_176   0x00c1c4    program     static                          
           ___do_lbl00239   0x00c1ca    program     static                          
       ___return_lbl00185   0x00c2da    program     static                          
                   __pa_0   0x00c2e2    program     static L:\solarpic_rewrite\swm8722\solar18f8722\power.c
                   __pa_1   0x00c2f0    program     static L:\solarpic_rewrite\swm8722\solar18f8722\power.c
                   __pa_2   0x00c2fe    program     static L:\solarpic_rewrite\swm8722\solar18f8722\power.c
                   __pa_3   0x00c304    program     static L:\solarpic_rewrite\swm8722\solar18f8722\power.c
                   __pa_4   0x00c318    program     static L:\solarpic_rewrite\swm8722\solar18f8722\power.c
                   __pa_5   0x00c32c    program     static L:\solarpic_rewrite\swm8722\solar18f8722\power.c
                   __pa_6   0x00c340    program     static L:\solarpic_rewrite\swm8722\solar18f8722\power.c
                   __pa_7   0x00c346    program     static L:\solarpic_rewrite\swm8722\solar18f8722\power.c
                   __pa_8   0x00c384    program     static L:\solarpic_rewrite\swm8722\solar18f8722\power.c
                   __pa_9   0x00c38a    program     static L:\solarpic_rewrite\swm8722\solar18f8722\power.c
                  __pa_10   0x00c3a4    program     static L:\solarpic_rewrite\swm8722\solar18f8722\power.c
                  __pa_11   0x00c3aa    program     static L:\solarpic_rewrite\swm8722\solar18f8722\power.c
                  __pa_12   0x00c3b8    program     static L:\solarpic_rewrite\swm8722\solar18f8722\power.c
                  __pa_13   0x00c3c6    program     static L:\solarpic_rewrite\swm8722\solar18f8722\power.c
                  __pa_14   0x00c3ce    program     static L:\solarpic_rewrite\swm8722\solar18f8722\power.c
                  __pa_15   0x00c3dc    program     static L:\solarpic_rewrite\swm8722\solar18f8722\power.c
                  __pa_16   0x00c3ec    program     static L:\solarpic_rewrite\swm8722\solar18f8722\power.c
                  __pa_17   0x00c3fe    program     static L:\solarpic_rewrite\swm8722\solar18f8722\power.c
                  __pa_18   0x00c40c    program     static L:\solarpic_rewrite\swm8722\solar18f8722\power.c
                  __pa_19   0x00c418    program     static L:\solarpic_rewrite\swm8722\solar18f8722\power.c
                  __pa_20   0x00c43a    program     static L:\solarpic_rewrite\swm8722\solar18f8722\power.c
                  __pa_21   0x00c44e    program     static L:\solarpic_rewrite\swm8722\solar18f8722\power.c
                  __pa_22   0x00c458    program     static L:\solarpic_rewrite\swm8722\solar18f8722\power.c
                  __pa_23   0x00c462    program     static L:\solarpic_rewrite\swm8722\solar18f8722\power.c
                  __pa_24   0x00c472    program     static L:\solarpic_rewrite\swm8722\solar18f8722\power.c
                  __pa_25   0x00c47c    program     static L:\solarpic_rewrite\swm8722\solar18f8722\power.c
                  __pa_26   0x00c49a    program     static L:\solarpic_rewrite\swm8722\solar18f8722\power.c
                  __pa_27   0x00c4a6    program     static L:\solarpic_rewrite\swm8722\solar18f8722\power.c
                  __pa_28   0x00c4ae    program     static L:\solarpic_rewrite\swm8722\solar18f8722\power.c
                  __pa_29   0x00c4ba    program     static L:\solarpic_rewrite\swm8722\solar18f8722\power.c
                  __pa_30   0x00c4c4    program     static L:\solarpic_rewrite\swm8722\solar18f8722\power.c
                  __pa_31   0x00c4d2    program     static L:\solarpic_rewrite\swm8722\solar18f8722\power.c
                  __pa_32   0x00c4dc    program     static L:\solarpic_rewrite\swm8722\solar18f8722\power.c
                  __pa_33   0x00c4e6    program     static L:\solarpic_rewrite\swm8722\solar18f8722\power.c
                  __pa_34   0x00c4ec    program     static L:\solarpic_rewrite\swm8722\solar18f8722\power.c
                  __pa_35   0x00c4fa    program     static L:\solarpic_rewrite\swm8722\solar18f8722\power.c
                  __pa_36   0x00c50c    program     static L:\solarpic_rewrite\swm8722\solar18f8722\power.c
                  __pa_37   0x00c51a    program     static L:\solarpic_rewrite\swm8722\solar18f8722\power.c
                  __pa_38   0x00c526    program     static L:\solarpic_rewrite\swm8722\solar18f8722\power.c
                  __pa_39   0x00c52e    program     static L:\solarpic_rewrite\swm8722\solar18f8722\power.c
                  __pa_40   0x00c544    program     static L:\solarpic_rewrite\swm8722\solar18f8722\power.c
                  __pa_41   0x00c550    program     static L:\solarpic_rewrite\swm8722\solar18f8722\power.c
                  __pa_42   0x00c55a    program     static L:\solarpic_rewrite\swm8722\solar18f8722\power.c
                  __pa_43   0x00c564    program     static L:\solarpic_rewrite\swm8722\solar18f8722\power.c
                  __pa_44   0x00c57c    program     static L:\solarpic_rewrite\swm8722\solar18f8722\power.c
                  __pa_45   0x00c58e    program     static L:\solarpic_rewrite\swm8722\solar18f8722\power.c
                  __pa_46   0x00c5a0    program     static L:\solarpic_rewrite\swm8722\solar18f8722\power.c
                  __pa_47   0x00c5b6    program     static L:\solarpic_rewrite\swm8722\solar18f8722\power.c
                  __pa_48   0x00c5c4    program     static L:\solarpic_rewrite\swm8722\solar18f8722\power.c
             __tmplbl_202   0x00c5d2    program     static                          
             __tmplbl_194   0x00c5d2    program     static                          
                  __pa_49   0x00c5d2    program     static L:\solarpic_rewrite\swm8722\solar18f8722\power.c
             __tmplbl_192   0x00c5d2    program     static                          
             __tmplbl_191   0x00c5d2    program     static                          
             __tmplbl_183   0x00c5d2    program     static                          
                  __pa_50   0x00c5da    program     static L:\solarpic_rewrite\swm8722\solar18f8722\power.c
                  __pa_51   0x00c5ec    program     static L:\solarpic_rewrite\swm8722\solar18f8722\power.c
                  __pa_52   0x00c5fe    program     static L:\solarpic_rewrite\swm8722\solar18f8722\power.c
                  __pa_53   0x00c610    program     static L:\solarpic_rewrite\swm8722\solar18f8722\power.c
                  __pa_54   0x00c622    program     static L:\solarpic_rewrite\swm8722\solar18f8722\power.c
                  __pa_55   0x00c634    program     static L:\solarpic_rewrite\swm8722\solar18f8722\power.c
                  __pa_56   0x00c646    program     static L:\solarpic_rewrite\swm8722\solar18f8722\power.c
                  __pa_57   0x00c652    program     static L:\solarpic_rewrite\swm8722\solar18f8722\power.c
                  __pa_58   0x00c65e    program     static L:\solarpic_rewrite\swm8722\solar18f8722\power.c
                  __pa_59   0x00c668    program     static L:\solarpic_rewrite\swm8722\solar18f8722\power.c
                  __pa_60   0x00c672    program     static L:\solarpic_rewrite\swm8722\solar18f8722\power.c
                  __pa_61   0x00c682    program     static L:\solarpic_rewrite\swm8722\solar18f8722\power.c
                  __pa_62   0x00c68e    program     static L:\solarpic_rewrite\swm8722\solar18f8722\power.c
                  __pa_63   0x00c694    program     static L:\solarpic_rewrite\swm8722\solar18f8722\power.c
                  __pa_64   0x00c69a    program     static L:\solarpic_rewrite\swm8722\solar18f8722\power.c
                  __pa_65   0x00c6a4    program     static L:\solarpic_rewrite\swm8722\solar18f8722\power.c
                  __pa_66   0x00c6ac    program     static L:\solarpic_rewrite\swm8722\solar18f8722\power.c
                  __pa_67   0x00c6b4    program     static L:\solarpic_rewrite\swm8722\solar18f8722\power.c
                  __pa_68   0x00c6bc    program     static L:\solarpic_rewrite\swm8722\solar18f8722\power.c
                  __pa_69   0x00c6c4    program     static L:\solarpic_rewrite\swm8722\solar18f8722\power.c
                  __pa_70   0x00c6cc    program     static L:\solarpic_rewrite\swm8722\solar18f8722\power.c
                  __pa_71   0x00c6f2    program     static L:\solarpic_rewrite\swm8722\solar18f8722\power.c
                  __pa_72   0x00c6fa    program     static L:\solarpic_rewrite\swm8722\solar18f8722\power.c
                  __pa_73   0x00c704    program     static L:\solarpic_rewrite\swm8722\solar18f8722\power.c
                  __pa_74   0x00c70a    program     static L:\solarpic_rewrite\swm8722\solar18f8722\power.c
                  __pa_75   0x00c712    program     static L:\solarpic_rewrite\swm8722\solar18f8722\power.c
                  __pa_76   0x00c71a    program     static L:\solarpic_rewrite\swm8722\solar18f8722\power.c
                  __pa_77   0x00c74a    program     static L:\solarpic_rewrite\swm8722\solar18f8722\power.c
                  __pa_78   0x00c766    program     static L:\solarpic_rewrite\swm8722\solar18f8722\power.c
                  __pa_79   0x00c76e    program     static L:\solarpic_rewrite\swm8722\solar18f8722\power.c
                  __pa_80   0x00c778    program     static L:\solarpic_rewrite\swm8722\solar18f8722\power.c
                  __pa_81   0x00c78c    program     static L:\solarpic_rewrite\swm8722\solar18f8722\power.c
                  __pa_82   0x00c79e    program     static L:\solarpic_rewrite\swm8722\solar18f8722\power.c
                  __pa_83   0x00c7a8    program     static L:\solarpic_rewrite\swm8722\solar18f8722\power.c
                  __pa_84   0x00c7c2    program     static L:\solarpic_rewrite\swm8722\solar18f8722\power.c
                  __pa_85   0x00c7ca    program     static L:\solarpic_rewrite\swm8722\solar18f8722\power.c
                  __pa_86   0x00c7d8    program     static L:\solarpic_rewrite\swm8722\solar18f8722\power.c
                  __pa_87   0x00c7e4    program     static L:\solarpic_rewrite\swm8722\solar18f8722\power.c
                  __pa_88   0x00c7f6    program     static L:\solarpic_rewrite\swm8722\solar18f8722\power.c
                  __pa_89   0x00c800    program     static L:\solarpic_rewrite\swm8722\solar18f8722\power.c
                  __pa_90   0x00c80c    program     static L:\solarpic_rewrite\swm8722\solar18f8722\power.c
                  __pa_91   0x00c828    program     static L:\solarpic_rewrite\swm8722\solar18f8722\power.c
                  __pa_92   0x00c830    program     static L:\solarpic_rewrite\swm8722\solar18f8722\power.c
                  __pa_93   0x00c836    program     static L:\solarpic_rewrite\swm8722\solar18f8722\power.c
                  __pa_94   0x00c84a    program     static L:\solarpic_rewrite\swm8722\solar18f8722\power.c
                  __pa_95   0x00c85a    program     static L:\solarpic_rewrite\swm8722\solar18f8722\power.c
                  __pa_96   0x00c86a    program     static L:\solarpic_rewrite\swm8722\solar18f8722\power.c
                  __pa_97   0x00c872    program     static L:\solarpic_rewrite\swm8722\solar18f8722\power.c
                  __pa_98   0x00c886    program     static L:\solarpic_rewrite\swm8722\solar18f8722\power.c
                  __pa_99   0x00c892    program     static L:\solarpic_rewrite\swm8722\solar18f8722\power.c
                 __pa_100   0x00c89e    program     static L:\solarpic_rewrite\swm8722\solar18f8722\power.c
                 __pa_101   0x00c8aa    program     static L:\solarpic_rewrite\swm8722\solar18f8722\power.c
                 __pa_102   0x00c8b8    program     static L:\solarpic_rewrite\swm8722\solar18f8722\power.c
                 __pa_103   0x00c8c4    program     static L:\solarpic_rewrite\swm8722\solar18f8722\power.c
                 __pa_104   0x00c8d2    program     static L:\solarpic_rewrite\swm8722\solar18f8722\power.c
                 __pa_105   0x00c8e4    program     static L:\solarpic_rewrite\swm8722\solar18f8722\power.c
                 __pa_106   0x00c8ec    program     static L:\solarpic_rewrite\swm8722\solar18f8722\power.c
                 __pa_107   0x00c8f4    program     static L:\solarpic_rewrite\swm8722\solar18f8722\power.c
                 __pa_108   0x00c8fc    program     static L:\solarpic_rewrite\swm8722\solar18f8722\power.c
                 __pa_109   0x00c908    program     static L:\solarpic_rewrite\swm8722\solar18f8722\power.c
                 __pa_110   0x00c914    program     static L:\solarpic_rewrite\swm8722\solar18f8722\power.c
                 __pa_111   0x00c91e    program     static L:\solarpic_rewrite\swm8722\solar18f8722\power.c
                 __pa_112   0x00c926    program     static L:\solarpic_rewrite\swm8722\solar18f8722\power.c
                 __pa_113   0x00c932    program     static L:\solarpic_rewrite\swm8722\solar18f8722\power.c
                 __pa_114   0x00c93e    program     static L:\solarpic_rewrite\swm8722\solar18f8722\power.c
                 __pa_115   0x00c944    program     static L:\solarpic_rewrite\swm8722\solar18f8722\power.c
                 __pa_116   0x00c952    program     static L:\solarpic_rewrite\swm8722\solar18f8722\power.c
                 __pa_117   0x00c95a    program     static L:\solarpic_rewrite\swm8722\solar18f8722\power.c
                 __pa_118   0x00c960    program     static L:\solarpic_rewrite\swm8722\solar18f8722\power.c
                 __pa_119   0x00c966    program     static L:\solarpic_rewrite\swm8722\solar18f8722\power.c
                 __pa_120   0x00c96c    program     static L:\solarpic_rewrite\swm8722\solar18f8722\power.c
                 __pa_121   0x00c972    program     static L:\solarpic_rewrite\swm8722\solar18f8722\power.c
                 __pa_122   0x00c978    program     static L:\solarpic_rewrite\swm8722\solar18f8722\power.c
                 __pa_123   0x00c98a    program     static L:\solarpic_rewrite\swm8722\solar18f8722\power.c
                 __pa_124   0x00c996    program     static L:\solarpic_rewrite\swm8722\solar18f8722\power.c
                 __pa_125   0x00c9aa    program     static L:\solarpic_rewrite\swm8722\solar18f8722\power.c
                 __pa_126   0x00c9b2    program     static L:\solarpic_rewrite\swm8722\solar18f8722\power.c
                 __pa_127   0x00c9b8    program     static L:\solarpic_rewrite\swm8722\solar18f8722\power.c
                 __pa_128   0x00c9c2    program     static L:\solarpic_rewrite\swm8722\solar18f8722\power.c
                 __pa_129   0x00c9cc    program     static L:\solarpic_rewrite\swm8722\solar18f8722\power.c
                 __pa_130   0x00c9d2    program     static L:\solarpic_rewrite\swm8722\solar18f8722\power.c
                 __pa_131   0x00c9e8    program     static L:\solarpic_rewrite\swm8722\solar18f8722\power.c
                 __pa_132   0x00ca02    program     static L:\solarpic_rewrite\swm8722\solar18f8722\power.c
                 __pa_133   0x00ca08    program     static L:\solarpic_rewrite\swm8722\solar18f8722\power.c
                 __pa_134   0x00ca18    program     static L:\solarpic_rewrite\swm8722\solar18f8722\power.c
                 __pa_135   0x00ca22    program     static L:\solarpic_rewrite\swm8722\solar18f8722\power.c
                 __pa_136   0x00ca2e    program     static L:\solarpic_rewrite\swm8722\solar18f8722\power.c
                 __pa_137   0x00ca34    program     static L:\solarpic_rewrite\swm8722\solar18f8722\power.c
                 __pa_138   0x00ca42    program     static L:\solarpic_rewrite\swm8722\solar18f8722\power.c
                 __pa_139   0x00ca50    program     static L:\solarpic_rewrite\swm8722\solar18f8722\power.c
                 __pa_140   0x00ca64    program     static L:\solarpic_rewrite\swm8722\solar18f8722\power.c
                 __pa_141   0x00ca6e    program     static L:\solarpic_rewrite\swm8722\solar18f8722\power.c
                 __pa_142   0x00ca7a    program     static L:\solarpic_rewrite\swm8722\solar18f8722\power.c
                 __pa_143   0x00ca88    program     static L:\solarpic_rewrite\swm8722\solar18f8722\power.c
                 __pa_144   0x00ca90    program     static L:\solarpic_rewrite\swm8722\solar18f8722\power.c
                 __pa_145   0x00ca9a    program     static L:\solarpic_rewrite\swm8722\solar18f8722\power.c
                 __pa_146   0x00caa4    program     static L:\solarpic_rewrite\swm8722\solar18f8722\power.c
                 __pa_147   0x00caaa    program     static L:\solarpic_rewrite\swm8722\solar18f8722\power.c
                 __pa_148   0x00cab0    program     static L:\solarpic_rewrite\swm8722\solar18f8722\power.c
                 __pa_149   0x00caba    program     static L:\solarpic_rewrite\swm8722\solar18f8722\power.c
                 __pa_150   0x00cac4    program     static L:\solarpic_rewrite\swm8722\solar18f8722\power.c
                 __pa_151   0x00caca    program     static L:\solarpic_rewrite\swm8722\solar18f8722\power.c
                 __pa_152   0x00cad0    program     static L:\solarpic_rewrite\swm8722\solar18f8722\power.c
                 __pa_153   0x00cade    program     static L:\solarpic_rewrite\swm8722\solar18f8722\power.c
                 __pa_154   0x00caec    program     static L:\solarpic_rewrite\swm8722\solar18f8722\power.c
                 __pa_155   0x00caf8    program     static L:\solarpic_rewrite\swm8722\solar18f8722\power.c
                 __pa_156   0x00cb02    program     static L:\solarpic_rewrite\swm8722\solar18f8722\power.c
             tick_handler   0x00cb08    program     extern L:\solarpic_rewrite\swm8722\solar18f8722\mbmc_vector.c
           ___if_lbl00001   0x00cb6a    program     static                          
               __tmplbl_1   0x00cb70    program     static                          
               __tmplbl_0   0x00cb76    program     static                          
           ___if_lbl00003   0x00cb84    program     static                          
           ___if_lbl00004   0x00cbf6    program     static                          
             __tmplbl_169   0x00cc28    program     static                          
             __tmplbl_170   0x00cc3e    program     static                          
         ___else_lbl00006   0x00cc56    program     static                          
           ___if_lbl00005   0x00cc5c    program     static                          
           ___if_lbl00007   0x00cc7e    program     static                          
               __tmplbl_2   0x00cc9e    program     static                          
           ___if_lbl00008   0x00cca0    program     static                          
               __tmplbl_5   0x00ccaa    program     static                          
               __tmplbl_4   0x00ccb0    program     static                          
               __tmplbl_7   0x00ccc2    program     static                          
               __tmplbl_6   0x00ccc4    program     static                          
               __tmplbl_8   0x00ccd8    program     static                          
               __tmplbl_3   0x00ccda    program     static                          
           ___if_lbl00012   0x00cce2    program     static                          
           ___if_lbl00013   0x00cce2    program     static                          
              __tmplbl_13   0x00ccea    program     static                          
              __tmplbl_14   0x00ccfe    program     static                          
              __tmplbl_12   0x00cd02    program     static                          
              __tmplbl_11   0x00cd0e    program     static                          
              __tmplbl_10   0x00cd2c    program     static                          
               __tmplbl_9   0x00cd34    program     static                          
              __tmplbl_16   0x00cebe    program     static                          
              __tmplbl_15   0x00cec4    program     static                          
           ___if_lbl00019   0x00cec6    program     static                          
              __tmplbl_17   0x00cee0    program     static                          
           ___if_lbl00020   0x00cf5c    program     static                          
           ___if_lbl00022   0x00cf5c    program     static                          
           ___if_lbl00021   0x00cf5c    program     static                          
           ___if_lbl00023   0x00cf62    program     static                          
           ___if_lbl00024   0x00cf74    program     static                          
              __tmplbl_18   0x00cfb8    program     static                          
           ___if_lbl00025   0x00cfc0    program     static                          
              __tmplbl_21   0x00cfc8    program     static                          
              __tmplbl_20   0x00cfd4    program     static                          
              __tmplbl_19   0x00cfe0    program     static                          
              __tmplbl_24   0x00d024    program     static                          
              __tmplbl_23   0x00d026    program     static                          
              __tmplbl_22   0x00d058    program     static                          
           ___if_lbl00030   0x00d0d6    program     static                          
           ___if_lbl00029   0x00d0d6    program     static                          
              __tmplbl_28   0x00d0dc    program     static                          
              __tmplbl_29   0x00d0ee    program     static                          
              __tmplbl_27   0x00d0f0    program     static                          
              __tmplbl_26   0x00d0fa    program     static                          
              __tmplbl_25   0x00d102    program     static                          
           ___if_lbl00034   0x00d10a    program     static                          
              __tmplbl_30   0x00d14e    program     static                          
              __tmplbl_31   0x00d1ae    program     static                          
           ___if_lbl00035   0x00d1e0    program     static                          
           ___if_lbl00036   0x00d1ee    program     static                          
           ___if_lbl00037   0x00d2e4    program     static                          
           ___if_lbl00038   0x00d2e4    program     static                          
           ___if_lbl00039   0x00d2e4    program     static                          
              __tmplbl_34   0x00d300    program     static                          
              __tmplbl_33   0x00d302    program     static                          
              __tmplbl_38   0x00d30c    program     static                          
              __tmplbl_37   0x00d312    program     static                          
              __tmplbl_39   0x00d326    program     static                          
              __tmplbl_36   0x00d328    program     static                          
              __tmplbl_35   0x00d34a    program     static                          
              __tmplbl_32   0x00d354    program     static                          
           ___if_lbl00045   0x00d3aa    program     static                          
           ___if_lbl00046   0x00d3d6    program     static                          
       ___case_0_lbl00048   0x00d3e8    program     static                          
       ___case_1_lbl00049   0x00d3ee    program     static                          
       ___case_2_lbl00050   0x00d3f6    program     static                          
      ___default_lbl00051   0x00d3fe    program     static                          
           ___if_lbl00052   0x00d404    program     static                          
           ___if_lbl00053   0x00d404    program     static                          
   ___switchexit_lbl00047   0x00d404    program     static                          
           ___if_lbl00054   0x00d432    program     static                          
           ___if_lbl00055   0x00d458    program     static                          
              __tmplbl_40   0x00d47e    program     static                          
         ___else_lbl00057   0x00d49c    program     static                          
           ___if_lbl00056   0x00d4ca    program     static                          
         ___else_lbl00059   0x00d4cc    program     static                          
           ___if_lbl00060   0x00d4d6    program     static                          
           ___if_lbl00061   0x00d4d6    program     static                          
           ___if_lbl00058   0x00d4d6    program     static                          
              __tmplbl_44   0x00d4e2    program     static                          
              __tmplbl_43   0x00d4e8    program     static                          
              __tmplbl_42   0x00d4ee    program     static                          
              __tmplbl_46   0x00d502    program     static                          
              __tmplbl_45   0x00d504    program     static                          
              __tmplbl_41   0x00d50e    program     static                          
              __tmplbl_49   0x00d520    program     static                          
              __tmplbl_48   0x00d522    program     static                          
              __tmplbl_47   0x00d52c    program     static                          
           ___if_lbl00067   0x00d53a    program     static                          
              __tmplbl_50   0x00d56e    program     static                          
           ___if_lbl00068   0x00d582    program     static                          
         ___else_lbl00075   0x00d584    program     static                          
              __tmplbl_51   0x00d5b2    program     static                          
         ___else_lbl00070   0x00d5d0    program     static                          
           ___if_lbl00069   0x00d5fe    program     static                          
         ___else_lbl00072   0x00d600    program     static                          
           ___if_lbl00071   0x00d60a    program     static                          
           ___if_lbl00073   0x00d60a    program     static                          
           ___if_lbl00074   0x00d60a    program     static                          
              __tmplbl_52   0x00d626    program     static                          
           ___if_lbl00076   0x00d632    program     static                          
           ___if_lbl00077   0x00d63c    program     static                          
              __tmplbl_55   0x00d658    program     static                          
              __tmplbl_54   0x00d65a    program     static                          
              __tmplbl_56   0x00d676    program     static                          
              __tmplbl_53   0x00d678    program     static                          
         ___else_lbl00081   0x00d686    program     static                          
             __tmplbl_171   0x00d6a6    program     static                          
           ___if_lbl00080   0x00d6aa    program     static                          
           ___if_lbl00079   0x00d6aa    program     static                          
             __tmplbl_172   0x00d6ca    program     static                          
           ___if_lbl00082   0x00d6e0    program     static                          
              __tmplbl_58   0x00d6ec    program     static                          
              __tmplbl_62   0x00d714    program     static                          
              __tmplbl_61   0x00d716    program     static                          
              __tmplbl_63   0x00d73c    program     static                          
              __tmplbl_60   0x00d73e    program     static                          
              __tmplbl_59   0x00d786    program     static                          
              __tmplbl_66   0x00d7ae    program     static                          
              __tmplbl_65   0x00d7b2    program     static                          
              __tmplbl_67   0x00d7d8    program     static                          
              __tmplbl_64   0x00d7da    program     static                          
              __tmplbl_57   0x00d822    program     static                          
           ___if_lbl00089   0x00d828    program     static                          
              __tmplbl_68   0x00d846    program     static                          
           ___if_lbl00090   0x00d89a    program     static                          
           ___if_lbl00091   0x00d89a    program     static                          
         ___else_lbl00096   0x00d89c    program     static                          
              __tmplbl_71   0x00d8c4    program     static                          
              __tmplbl_70   0x00d8c6    program     static                          
              __tmplbl_69   0x00d90e    program     static                          
           ___if_lbl00093   0x00d914    program     static                          
           ___if_lbl00097   0x00d918    program     static                          
           ___if_lbl00095   0x00d918    program     static                          
           ___if_lbl00094   0x00d918    program     static                          
              __tmplbl_73   0x00d91e    program     static                          
              __tmplbl_72   0x00d924    program     static                          
              __tmplbl_74   0x00d95e    program     static                          
           ___if_lbl00099   0x00d964    program     static                          
         ___else_lbl00101   0x00d966    program     static                          
           ___if_lbl00100   0x00d986    program     static                          
           ___if_lbl00102   0x00d986    program     static                          
           ___if_lbl00103   0x00d9a6    program     static                          
              __tmplbl_76   0x00d9b2    program     static                          
              __tmplbl_75   0x00d9be    program     static                          
              __tmplbl_78   0x00d9c6    program     static                          
              __tmplbl_77   0x00d9d0    program     static                          
              __tmplbl_80   0x00d9ee    program     static                          
              __tmplbl_79   0x00d9f4    program     static                          
              __tmplbl_81   0x00da08    program     static                          
         ___else_lbl00108   0x00da82    program     static                          
           ___if_lbl00107   0x00dab2    program     static                          
           ___if_lbl00109   0x00dab8    program     static                          
           ___if_lbl00112   0x00dac0    program     static                          
           ___if_lbl00110   0x00dac0    program     static                          
           ___if_lbl00111   0x00dac0    program     static                          
              __tmplbl_83   0x00dac8    program     static                          
              __tmplbl_82   0x00dad4    program     static                          
      ___case_48_lbl00115   0x00db26    program     static                          
              __tmplbl_85   0x00db3a    program     static                          
              __tmplbl_84   0x00db3e    program     static                          
      ___case_54_lbl00116   0x00db42    program     static                          
      ___case_50_lbl00117   0x00db56    program     static                          
      ___case_51_lbl00118   0x00db60    program     static                          
      ___case_52_lbl00119   0x00db6a    program     static                          
      ___case_53_lbl00120   0x00db74    program     static                          
      ___case_70_lbl00121   0x00db7e    program     static                          
      ___case_86_lbl00122   0x00db8c    program     static                          
         ___else_lbl00124   0x00dbe2    program     static                          
           ___if_lbl00123   0x00dbe6    program     static                          
     ___case_118_lbl00125   0x00dbf4    program     static                          
      ___case_68_lbl00126   0x00dc56    program     static                          
     ___case_100_lbl00127   0x00dc66    program     static                          
      ___case_42_lbl00128   0x00dc74    program     static                          
      ___case_49_lbl00129   0x00dc84    program     static                          
      ___default_lbl00130   0x00dc8e    program     static                          
   ___switchexit_lbl00114   0x00dc98    program     static                          
           ___if_lbl00131   0x00dc98    program     static                          
           ___if_lbl00132   0x00dc98    program     static                          
           ___if_lbl00133   0x00dc98    program     static                          
              __tmplbl_87   0x00dc9e    program     static                          
              __tmplbl_86   0x00dca4    program     static                          
              __tmplbl_88   0x00dcbe    program     static                          
           ___if_lbl00135   0x00dcc4    program     static                          
         ___else_lbl00137   0x00dcc6    program     static                          
           ___if_lbl00138   0x00dcf2    program     static                          
           ___if_lbl00136   0x00dcf2    program     static                          
           ___if_lbl00139   0x00dd0a    program     static                          
      ___case_65_lbl00141   0x00dda4    program     static                          
      ___case_69_lbl00144   0x00ddb2    program     static                          
           ___if_lbl00142   0x00ddc4    program     static                          
           ___if_lbl00143   0x00ddd2    program     static                          
      ___case_70_lbl00145   0x00ddd4    program     static                          
      ___case_63_lbl00146   0x00ddda    program     static                          
      ___case_42_lbl00147   0x00dde2    program     static                          
      ___case_35_lbl00148   0x00ddea    program     static                          
      ___case_64_lbl00149   0x00ddf2    program     static                          
      ___case_33_lbl00150   0x00ddfa    program     static                          
      ___case_94_lbl00151   0x00de00    program     static                          
     ___case_103_lbl00152   0x00de08    program     static                          
      ___case_84_lbl00153   0x00de10    program     static                          
      ___case_71_lbl00154   0x00de18    program     static                          
      ___case_89_lbl00156   0x00de20    program     static                          
     ___case_121_lbl00155   0x00de20    program     static                          
     ___case_110_lbl00157   0x00de28    program     static                          
      ___case_78_lbl00158   0x00de28    program     static                          
      ___case_72_lbl00159   0x00de30    program     static                          
              __tmplbl_90   0x00de42    program     static                          
              __tmplbl_89   0x00de46    program     static                          
         ___else_lbl00161   0x00de4e    program     static                          
           ___if_lbl00160   0x00de52    program     static                          
     ___case_104_lbl00162   0x00de54    program     static                          
              __tmplbl_92   0x00de66    program     static                          
              __tmplbl_91   0x00de6a    program     static                          
         ___else_lbl00164   0x00de72    program     static                          
           ___if_lbl00163   0x00de76    program     static                          
      ___case_86_lbl00165   0x00de78    program     static                          
     ___case_118_lbl00166   0x00ded0    program     static                          
      ___case_68_lbl00167   0x00df2a    program     static                          
     ___case_100_lbl00168   0x00df32    program     static                          
      ___case_75_lbl00171   0x00df38    program     static                          
        ___while_lbl00169   0x00df38    program     static                          
        ___while_lbl00170   0x00df3a    program     static                          
      ___case_66_lbl00172   0x00df3c    program     static                          
              __tmplbl_93   0x00df5c    program     static                          
           ___if_lbl00173   0x00df68    program     static                          
      ___case_80_lbl00174   0x00df70    program     static                          
     ___case_112_lbl00175   0x00df78    program     static                          
      ___case_79_lbl00176   0x00df80    program     static                          
     ___case_111_lbl00177   0x00df88    program     static                          
      ___case_90_lbl00178   0x00df90    program     static                          
      ___default_lbl00181   0x00df98    program     static                          
              __tmplbl_95   0x00dfa0    program     static                          
              __tmplbl_94   0x00dfa8    program     static                          
           ___if_lbl00180   0x00dfac    program     static                          
           ___if_lbl00182   0x00dfbe    program     static                          
              __tmplbl_98   0x00dfc6    program     static                          
              __tmplbl_97   0x00dfce    program     static                          
              __tmplbl_96   0x00dfd6    program     static                          
           ___if_lbl00185   0x00dfe0    program     static                          
           ___if_lbl00186   0x00dfe0    program     static                          
   ___switchexit_lbl00140   0x00dfe2    program     static                          
           ___if_lbl00188   0x00e00c    program     static                          
           ___if_lbl00187   0x00e00c    program     static                          
           ___if_lbl00189   0x00e010    program     static                          
           ___if_lbl00190   0x00e014    program     static                          
           ___if_lbl00191   0x00e04e    program     static                          
             __tmplbl_100   0x00e054    program     static                          
              __tmplbl_99   0x00e05a    program     static                          
           ___if_lbl00193   0x00e068    program     static                          
           ___if_lbl00194   0x00e078    program     static                          
         ___else_lbl00196   0x00e084    program     static                          
           ___if_lbl00197   0x00e088    program     static                          
           ___if_lbl00195   0x00e088    program     static                          
             __tmplbl_102   0x00e08e    program     static                          
             __tmplbl_101   0x00e094    program     static                          
           ___if_lbl00199   0x00e0a2    program     static                          
       ___return_lbl00000   0x00e0e8    program     static                          
             work_handler   0x00e108    program     extern L:\solarpic_rewrite\swm8722\solar18f8722\mbmc_vector.c
           ___if_lbl00201   0x00e19e    program     static                          
           ___if_lbl00202   0x00e1d6    program     static                          
             __tmplbl_104   0x00e1e2    program     static                          
             __tmplbl_103   0x00e1e8    program     static                          
         ___else_lbl00205   0x00e234    program     static                          
           ___if_lbl00204   0x00e250    program     static                          
           ___if_lbl00206   0x00e272    program     static                          
         ___else_lbl00211   0x00e274    program     static                          
         ___else_lbl00208   0x00e2c2    program     static                          
           ___if_lbl00207   0x00e2de    program     static                          
           ___if_lbl00210   0x00e300    program     static                          
           ___if_lbl00209   0x00e300    program     static                          
           ___if_lbl00212   0x00e350    program     static                          
           ___if_lbl00214   0x00e356    program     static                          
           ___if_lbl00213   0x00e356    program     static                          
             __tmplbl_106   0x00e364    program     static                          
             __tmplbl_105   0x00e372    program     static                          
             __tmplbl_107   0x00e3b2    program     static                          
           ___if_lbl00216   0x00e3cc    program     static                          
           ___if_lbl00217   0x00e3e4    program     static                          
         ___else_lbl00220   0x00e3e6    program     static                          
           ___if_lbl00219   0x00e3f0    program     static                          
           ___if_lbl00218   0x00e3f0    program     static                          
             __tmplbl_109   0x00e3f6    program     static                          
             __tmplbl_108   0x00e3fc    program     static                          
         ___else_lbl00223   0x00e444    program     static                          
           ___if_lbl00222   0x00e492    program     static                          
         ___else_lbl00225   0x00e4c0    program     static                          
           ___if_lbl00224   0x00e4e4    program     static                          
             __tmplbl_113   0x00e500    program     static                          
             __tmplbl_112   0x00e502    program     static                          
             __tmplbl_114   0x00e51c    program     static                          
             __tmplbl_111   0x00e51e    program     static                          
             __tmplbl_115   0x00e538    program     static                          
             __tmplbl_110   0x00e53a    program     static                          
         ___else_lbl00231   0x00e542    program     static                          
             __tmplbl_118   0x00e55c    program     static                          
             __tmplbl_117   0x00e55e    program     static                          
             __tmplbl_119   0x00e578    program     static                          
             __tmplbl_116   0x00e57a    program     static                          
           ___if_lbl00230   0x00e57e    program     static                          
           ___if_lbl00229   0x00e57e    program     static                          
             __tmplbl_121   0x00e584    program     static                          
             __tmplbl_120   0x00e58a    program     static                          
           ___if_lbl00233   0x00e5ca    program     static                          
           ___if_lbl00234   0x00e5f0    program     static                          
           ___if_lbl00235   0x00e616    program     static                          
           ___if_lbl00236   0x00e63c    program     static                          
           ___if_lbl00237   0x00e662    program     static                          
           ___if_lbl00238   0x00e676    program     static                          
           ___if_lbl00239   0x00e828    program     static                          
             __tmplbl_122   0x00e860    program     static                          
         ___else_lbl00241   0x00e914    program     static                          
           ___if_lbl00240   0x00e9c4    program     static                          
             __tmplbl_123   0x00e9fc    program     static                          
         ___else_lbl00243   0x00eab0    program     static                          
           ___if_lbl00242   0x00eb60    program     static                          
             __tmplbl_125   0x00ebd0    program     static                          
             __tmplbl_126   0x00ebe2    program     static                          
             __tmplbl_124   0x00ebe4    program     static                          
           ___if_lbl00245   0x00ec58    program     static                          
         ___else_lbl00247   0x00ec5a    program     static                          
           ___if_lbl00246   0x00ec5e    program     static                          
         ___else_lbl00251   0x00ec60    program     static                          
           ___if_lbl00248   0x00ed2a    program     static                          
           ___if_lbl00249   0x00ed34    program     static                          
           ___if_lbl00250   0x00ed34    program     static                          
             __tmplbl_127   0x00ed50    program     static                          
           ___if_lbl00252   0x00ee70    program     static                          
           ___if_lbl00253   0x00ee70    program     static                          
          ___for_lbl00259   0x00ee76    program     static                          
             __tmplbl_173   0x00f132    program     static                          
             __tmplbl_128   0x00f158    program     static                          
           ___if_lbl00256   0x00f210    program     static                          
             __tmplbl_174   0x00f24c    program     static                          
             __tmplbl_129   0x00f272    program     static                          
           ___if_lbl00258   0x00f2a2    program     static                          
           ___if_lbl00257   0x00f2a2    program     static                          
          ___for_lbl00254   0x00f2a2    program     static                          
          ___for_lbl00255   0x00f2a8    program     static                          
         ___else_lbl00261   0x00f612    program     static                          
           ___if_lbl00260   0x00f650    program     static                          
         ___else_lbl00263   0x00f69c    program     static                          
           ___if_lbl00262   0x00f6da    program     static                          
             __tmplbl_130   0x00f71e    program     static                          
           ___if_lbl00264   0x00f8e0    program     static                          
         ___else_lbl00268   0x00f8e2    program     static                          
           ___if_lbl00265   0x00fbde    program     static                          
           ___if_lbl00266   0x00fbde    program     static                          
           ___if_lbl00267   0x00fbde    program     static                          
         ___else_lbl00274   0x00fbe0    program     static                          
           ___if_lbl00269   0x00fd8e    program     static                          
             __tmplbl_131   0x00fdaa    program     static                          
           ___if_lbl00272   0x00ffb6    program     static                          
           ___if_lbl00273   0x00ffb6    program     static                          
           ___if_lbl00271   0x00ffb6    program     static                          
           ___if_lbl00270   0x00ffb6    program     static                          
             __tmplbl_132   0x01000a    program     static                          
           ___if_lbl00275   0x01004e    program     static                          
             __tmplbl_133   0x0100a2    program     static                          
           ___if_lbl00276   0x0100e6    program     static                          
             __tmplbl_134   0x01013a    program     static                          
           ___if_lbl00277   0x01017e    program     static                          
             __tmplbl_135   0x0101d2    program     static                          
           ___if_lbl00278   0x010216    program     static                          
         ___else_lbl00280   0x01044e    program     static                          
           ___if_lbl00279   0x0108a2    program     static                          
             __tmplbl_175   0x0108fa    program     static                          
             __tmplbl_136   0x010920    program     static                          
           ___if_lbl00281   0x0109f4    program     static                          
             __tmplbl_176   0x010a4c    program     static                          
             __tmplbl_137   0x010a72    program     static                          
           ___if_lbl00282   0x010abe    program     static                          
           ___if_lbl00283   0x010abe    program     static                          
             __tmplbl_138   0x010b20    program     static                          
           ___if_lbl00284   0x010b26    program     static                          
             __tmplbl_141   0x010b2e    program     static                          
             __tmplbl_144   0x010b42    program     static                          
             __tmplbl_143   0x010b44    program     static                          
             __tmplbl_142   0x010b4c    program     static                          
             __tmplbl_145   0x010b54    program     static                          
             __tmplbl_140   0x010b5c    program     static                          
             __tmplbl_139   0x010b62    program     static                          
         ___else_lbl00295   0x010b68    program     static                          
           ___if_lbl00290   0x010b86    program     static                          
         ___else_lbl00292   0x010b88    program     static                          
           ___if_lbl00291   0x010b8c    program     static                          
           ___if_lbl00293   0x010b9a    program     static                          
           ___if_lbl00294   0x010b9a    program     static                          
           ___if_lbl00296   0x010ba6    program     static                          
           ___if_lbl00297   0x010bb2    program     static                          
           ___if_lbl00298   0x010bb2    program     static                          
           ___if_lbl00299   0x010bbe    program     static                          
             __tmplbl_147   0x010bc4    program     static                          
             __tmplbl_146   0x010bca    program     static                          
           ___if_lbl00301   0x010bce    program     static                          
             __tmplbl_149   0x010bd4    program     static                          
             __tmplbl_148   0x010bda    program     static                          
           ___if_lbl00303   0x010bee    program     static                          
             __tmplbl_152   0x010bf4    program     static                          
             __tmplbl_151   0x010bfa    program     static                          
             __tmplbl_150   0x010c00    program     static                          
             __tmplbl_153   0x010c1a    program     static                          
         ___else_lbl00307   0x010c34    program     static                          
           ___if_lbl00306   0x010c4a    program     static                          
           ___if_lbl00308   0x010c4a    program     static                          
           ___if_lbl00309   0x010c4a    program     static                          
       ___return_lbl00200   0x010c90    program     static                          
                idle_loop   0x010cba    program     extern L:\solarpic_rewrite\swm8722\solar18f8722\mbmc_vector.c
           ___if_lbl00311   0x010cce    program     static                          
             __tmplbl_154   0x010d0e    program     static                          
             __tmplbl_155   0x010d1c    program     static                          
             __tmplbl_156   0x010d2a    program     static                          
             __tmplbl_157   0x010d38    program     static                          
             __tmplbl_158   0x010d46    program     static                          
             __tmplbl_159   0x010d54    program     static                          
             __tmplbl_160   0x010d62    program     static                          
             __tmplbl_161   0x010d6e    program     static                          
             __tmplbl_162   0x010d7a    program     static                          
             __tmplbl_163   0x010d86    program     static                          
             __tmplbl_164   0x010d92    program     static                          
             __tmplbl_165   0x010d9e    program     static                          
      ___case_48_lbl00313   0x010da2    program     static                          
      ___case_54_lbl00314   0x010da4    program     static                          
      ___case_50_lbl00315   0x010dc8    program     static                          
      ___case_51_lbl00316   0x010e1c    program     static                          
      ___case_52_lbl00317   0x010e34    program     static                          
      ___case_53_lbl00318   0x010e4e    program     static                          
      ___case_70_lbl00319   0x010e66    program     static                          
      ___case_86_lbl00320   0x010e8a    program     static                          
     ___case_118_lbl00321   0x010eae    program     static                          
      ___case_68_lbl00322   0x010ed2    program     static                          
     ___case_100_lbl00323   0x010ef6    program     static                          
      ___case_42_lbl00324   0x010f1a    program     static                          
      ___default_lbl00325   0x010f3e    program     static                          
   ___switchexit_lbl00312   0x010f40    program     static                          
           ___if_lbl00326   0x010f46    program     static                          
           ___if_lbl00327   0x010f4e    program     static                          
             __tmplbl_166   0x010f68    program     static                          
           ___if_lbl00329   0x010f9e    program     static                          
           ___if_lbl00328   0x010f9e    program     static                          
             __tmplbl_168   0x010fa4    program     static                          
             __tmplbl_167   0x010faa    program     static                          
           ___if_lbl00331   0x010fec    program     static                          
           ___if_lbl00332   0x010fee    program     static                          
       ___return_lbl00310   0x011000    program     static                          
                   P1wait   0x011008    program     extern L:\solarpic_rewrite\swm8722\solar18f8722\mbmc_vector.c
                   P2wait   0x01100e    program     extern L:\solarpic_rewrite\swm8722\solar18f8722\mbmc_vector.c
             __string_230   0x011014    program     static L:\solarpic_rewrite\swm8722\solar18f8722\swm8722.c
             __string_229   0x01101c    program     static L:\solarpic_rewrite\swm8722\solar18f8722\swm8722.c
             __string_228   0x011034    program     static L:\solarpic_rewrite\swm8722\solar18f8722\swm8722.c
             __string_227   0x01104d    program     static L:\solarpic_rewrite\swm8722\solar18f8722\swm8722.c
             __string_226   0x011055    program     static L:\solarpic_rewrite\swm8722\solar18f8722\swm8722.c
             __string_225   0x01105d    program     static L:\solarpic_rewrite\swm8722\solar18f8722\swm8722.c
             __string_224   0x011075    program     static L:\solarpic_rewrite\swm8722\solar18f8722\swm8722.c
             __string_223   0x01108c    program     static L:\solarpic_rewrite\swm8722\solar18f8722\swm8722.c
             __string_222   0x0110ad    program     static L:\solarpic_rewrite\swm8722\solar18f8722\swm8722.c
             __string_221   0x0110cf    program     static L:\solarpic_rewrite\swm8722\solar18f8722\swm8722.c
             __string_220   0x0110e5    program     static L:\solarpic_rewrite\swm8722\solar18f8722\swm8722.c
             __string_219   0x0110fb    program     static L:\solarpic_rewrite\swm8722\solar18f8722\swm8722.c
             __string_218   0x011112    program     static L:\solarpic_rewrite\swm8722\solar18f8722\swm8722.c
             __string_217   0x011128    program     static L:\solarpic_rewrite\swm8722\solar18f8722\swm8722.c
             __string_216   0x011141    program     static L:\solarpic_rewrite\swm8722\solar18f8722\swm8722.c
             __string_215   0x011154    program     static L:\solarpic_rewrite\swm8722\solar18f8722\swm8722.c
             __string_214   0x011164    program     static L:\solarpic_rewrite\swm8722\solar18f8722\swm8722.c
             __string_213   0x011175    program     static L:\solarpic_rewrite\swm8722\solar18f8722\swm8722.c
             __string_212   0x01118d    program     static L:\solarpic_rewrite\swm8722\solar18f8722\swm8722.c
             __string_211   0x0111a8    program     static L:\solarpic_rewrite\swm8722\solar18f8722\swm8722.c
             __string_210   0x0111ca    program     static L:\solarpic_rewrite\swm8722\solar18f8722\swm8722.c
             __string_209   0x0111de    program     static L:\solarpic_rewrite\swm8722\solar18f8722\swm8722.c
             __string_208   0x011221    program     static L:\solarpic_rewrite\swm8722\solar18f8722\swm8722.c
             __string_207   0x01123b    program     static L:\solarpic_rewrite\swm8722\solar18f8722\swm8722.c
             __string_206   0x011253    program     static L:\solarpic_rewrite\swm8722\solar18f8722\swm8722.c
             __string_205   0x01126c    program     static L:\solarpic_rewrite\swm8722\solar18f8722\swm8722.c
             __string_204   0x011288    program     static L:\solarpic_rewrite\swm8722\solar18f8722\swm8722.c
             __string_203   0x01128d    program     static L:\solarpic_rewrite\swm8722\solar18f8722\swm8722.c
             __string_202   0x01129f    program     static L:\solarpic_rewrite\swm8722\solar18f8722\swm8722.c
             __string_201   0x0112b8    program     static L:\solarpic_rewrite\swm8722\solar18f8722\swm8722.c
             __string_200   0x0112d8    program     static L:\solarpic_rewrite\swm8722\solar18f8722\swm8722.c
             __string_199   0x0112fd    program     static L:\solarpic_rewrite\swm8722\solar18f8722\swm8722.c
             __string_198   0x01131a    program     static L:\solarpic_rewrite\swm8722\solar18f8722\swm8722.c
             __string_197   0x01134a    program     static L:\solarpic_rewrite\swm8722\solar18f8722\swm8722.c
             __string_196   0x011360    program     static L:\solarpic_rewrite\swm8722\solar18f8722\swm8722.c
             __string_195   0x011387    program     static L:\solarpic_rewrite\swm8722\solar18f8722\swm8722.c
             __string_194   0x0113a3    program     static L:\solarpic_rewrite\swm8722\solar18f8722\swm8722.c
             __string_193   0x0113c7    program     static L:\solarpic_rewrite\swm8722\solar18f8722\swm8722.c
             __string_192   0x0113eb    program     static L:\solarpic_rewrite\swm8722\solar18f8722\swm8722.c
             __string_191   0x011414    program     static L:\solarpic_rewrite\swm8722\solar18f8722\swm8722.c
             __string_190   0x01143d    program     static L:\solarpic_rewrite\swm8722\solar18f8722\swm8722.c
             __string_189   0x011467    program     static L:\solarpic_rewrite\swm8722\solar18f8722\swm8722.c
             __string_188   0x01148c    program     static L:\solarpic_rewrite\swm8722\solar18f8722\swm8722.c
             __string_187   0x0114a1    program     static L:\solarpic_rewrite\swm8722\solar18f8722\swm8722.c
             __string_186   0x0114be    program     static L:\solarpic_rewrite\swm8722\solar18f8722\swm8722.c
             __string_185   0x0114d4    program     static L:\solarpic_rewrite\swm8722\solar18f8722\swm8722.c
             __string_184   0x0114ed    program     static L:\solarpic_rewrite\swm8722\solar18f8722\swm8722.c
             __string_183   0x011509    program     static L:\solarpic_rewrite\swm8722\solar18f8722\swm8722.c
             __string_182   0x01151f    program     static L:\solarpic_rewrite\swm8722\solar18f8722\swm8722.c
             __string_181   0x011538    program     static L:\solarpic_rewrite\swm8722\solar18f8722\swm8722.c
             __string_180   0x011558    program     static L:\solarpic_rewrite\swm8722\solar18f8722\swm8722.c
             __string_179   0x01157d    program     static L:\solarpic_rewrite\swm8722\solar18f8722\swm8722.c
             __string_178   0x01158f    program     static L:\solarpic_rewrite\swm8722\solar18f8722\swm8722.c
             __string_177   0x0115a7    program     static L:\solarpic_rewrite\swm8722\solar18f8722\swm8722.c
             __string_176   0x0115bc    program     static L:\solarpic_rewrite\swm8722\solar18f8722\swm8722.c
             __string_175   0x0115d6    program     static L:\solarpic_rewrite\swm8722\solar18f8722\swm8722.c
             __string_174   0x0115ec    program     static L:\solarpic_rewrite\swm8722\solar18f8722\swm8722.c
             __string_173   0x011601    program     static L:\solarpic_rewrite\swm8722\solar18f8722\swm8722.c
             __string_172   0x011609    program     static L:\solarpic_rewrite\swm8722\solar18f8722\swm8722.c
             __string_171   0x011629    program     static L:\solarpic_rewrite\swm8722\solar18f8722\swm8722.c
             __string_170   0x01164e    program     static L:\solarpic_rewrite\swm8722\solar18f8722\swm8722.c
             __string_169   0x01166b    program     static L:\solarpic_rewrite\swm8722\solar18f8722\swm8722.c
             __string_168   0x011685    program     static L:\solarpic_rewrite\swm8722\solar18f8722\swm8722.c
             __string_167   0x0116b7    program     static L:\solarpic_rewrite\swm8722\solar18f8722\swm8722.c
             __string_166   0x0116e4    program     static L:\solarpic_rewrite\swm8722\solar18f8722\swm8722.c
             __string_165   0x0116fe    program     static L:\solarpic_rewrite\swm8722\solar18f8722\swm8722.c
             __string_164   0x011718    program     static L:\solarpic_rewrite\swm8722\solar18f8722\swm8722.c
             __string_163   0x011770    program     static L:\solarpic_rewrite\swm8722\solar18f8722\swm8722.c
             __string_162   0x011799    program     static L:\solarpic_rewrite\swm8722\solar18f8722\swm8722.c
             __string_161   0x0117a3    program     static L:\solarpic_rewrite\swm8722\solar18f8722\swm8722.c
             __string_160   0x0117b0    program     static L:\solarpic_rewrite\swm8722\solar18f8722\swm8722.c
             __string_159   0x0117b6    program     static L:\solarpic_rewrite\swm8722\solar18f8722\swm8722.c
             __string_158   0x0117be    program     static L:\solarpic_rewrite\swm8722\solar18f8722\swm8722.c
             __string_157   0x0117c6    program     static L:\solarpic_rewrite\swm8722\solar18f8722\swm8722.c
             __string_156   0x0117d2    program     static L:\solarpic_rewrite\swm8722\solar18f8722\swm8722.c
             __string_155   0x0117e4    program     static L:\solarpic_rewrite\swm8722\solar18f8722\swm8722.c
             __string_154   0x011812    program     static L:\solarpic_rewrite\swm8722\solar18f8722\swm8722.c
             __string_153   0x01183f    program     static L:\solarpic_rewrite\swm8722\solar18f8722\swm8722.c
             __string_152   0x01187c    program     static L:\solarpic_rewrite\swm8722\solar18f8722\swm8722.c
             __string_151   0x0118bd    program     static L:\solarpic_rewrite\swm8722\solar18f8722\swm8722.c
             __string_150   0x0118d7    program     static L:\solarpic_rewrite\swm8722\solar18f8722\swm8722.c
             __string_149   0x011915    program     static L:\solarpic_rewrite\swm8722\solar18f8722\swm8722.c
             __string_148   0x011955    program     static L:\solarpic_rewrite\swm8722\solar18f8722\swm8722.c
             __string_147   0x011980    program     static L:\solarpic_rewrite\swm8722\solar18f8722\swm8722.c
             __string_146   0x0119af    program     static L:\solarpic_rewrite\swm8722\solar18f8722\swm8722.c
             __string_145   0x0119c6    program     static L:\solarpic_rewrite\swm8722\solar18f8722\swm8722.c
             __string_144   0x0119e6    program     static L:\solarpic_rewrite\swm8722\solar18f8722\swm8722.c
             __string_143   0x011a18    program     static L:\solarpic_rewrite\swm8722\solar18f8722\swm8722.c
             __string_142   0x011a38    program     static L:\solarpic_rewrite\swm8722\solar18f8722\swm8722.c
             __string_141   0x011a57    program     static L:\solarpic_rewrite\swm8722\solar18f8722\swm8722.c
             __string_140   0x011a81    program     static L:\solarpic_rewrite\swm8722\solar18f8722\swm8722.c
             __string_139   0x011ab3    program     static L:\solarpic_rewrite\swm8722\solar18f8722\swm8722.c
             __string_138   0x011ad4    program     static L:\solarpic_rewrite\swm8722\solar18f8722\swm8722.c
             __string_137   0x011af9    program     static L:\solarpic_rewrite\swm8722\solar18f8722\swm8722.c
             __string_136   0x011b35    program     static L:\solarpic_rewrite\swm8722\solar18f8722\swm8722.c
             __string_135   0x011b6b    program     static L:\solarpic_rewrite\swm8722\solar18f8722\swm8722.c
             __string_134   0x011b89    program     static L:\solarpic_rewrite\swm8722\solar18f8722\swm8722.c
             __string_133   0x011bdd    program     static L:\solarpic_rewrite\swm8722\solar18f8722\swm8722.c
             __string_132   0x011c12    program     static L:\solarpic_rewrite\swm8722\solar18f8722\swm8722.c
             __string_131   0x011c30    program     static L:\solarpic_rewrite\swm8722\solar18f8722\swm8722.c
             __string_130   0x011ccd    program     static L:\solarpic_rewrite\swm8722\solar18f8722\swm8722.c
             __string_129   0x011d58    program     static L:\solarpic_rewrite\swm8722\solar18f8722\swm8722.c
             __string_128   0x011ddb    program     static L:\solarpic_rewrite\swm8722\solar18f8722\swm8722.c
             __string_127   0x011e3b    program     static L:\solarpic_rewrite\swm8722\solar18f8722\swm8722.c
             __string_126   0x011e93    program     static L:\solarpic_rewrite\swm8722\solar18f8722\swm8722.c
             __string_125   0x011eb5    program     static L:\solarpic_rewrite\swm8722\solar18f8722\swm8722.c
             __string_124   0x011ed6    program     static L:\solarpic_rewrite\swm8722\solar18f8722\swm8722.c
             __string_123   0x011ef8    program     static L:\solarpic_rewrite\swm8722\solar18f8722\swm8722.c
             __string_122   0x011f1a    program     static L:\solarpic_rewrite\swm8722\solar18f8722\swm8722.c
             __string_121   0x011f3c    program     static L:\solarpic_rewrite\swm8722\solar18f8722\swm8722.c
             __string_120   0x011ff6    program     static L:\solarpic_rewrite\swm8722\solar18f8722\swm8722.c
             __string_119   0x012092    program     static L:\solarpic_rewrite\swm8722\solar18f8722\swm8722.c
             __string_118   0x01210a    program     static L:\solarpic_rewrite\swm8722\solar18f8722\swm8722.c
             __string_117   0x01217a    program     static L:\solarpic_rewrite\swm8722\solar18f8722\swm8722.c
             __string_116   0x01224d    program     static L:\solarpic_rewrite\swm8722\solar18f8722\swm8722.c
             __string_115   0x012307    program     static L:\solarpic_rewrite\swm8722\solar18f8722\swm8722.c
             __string_114   0x01231c    program     static L:\solarpic_rewrite\swm8722\solar18f8722\swm8722.c
             __string_113   0x01231e    program     static L:\solarpic_rewrite\swm8722\solar18f8722\swm8722.c
             __string_112   0x012323    program     static L:\solarpic_rewrite\swm8722\solar18f8722\swm8722.c
             __string_111   0x01234a    program     static L:\solarpic_rewrite\swm8722\solar18f8722\swm8722.c
             __string_110   0x01234d    program     static L:\solarpic_rewrite\swm8722\solar18f8722\swm8722.c
             __string_109   0x012354    program     static L:\solarpic_rewrite\swm8722\solar18f8722\swm8722.c
             __string_108   0x01235b    program     static L:\solarpic_rewrite\swm8722\solar18f8722\swm8722.c
             __string_107   0x012362    program     static L:\solarpic_rewrite\swm8722\solar18f8722\swm8722.c
             __string_106   0x01237e    program     static L:\solarpic_rewrite\swm8722\solar18f8722\swm8722.c
             __string_105   0x012394    program     static L:\solarpic_rewrite\swm8722\solar18f8722\swm8722.c
             __string_104   0x0123a3    program     static L:\solarpic_rewrite\swm8722\solar18f8722\swm8722.c
             __string_103   0x0123bc    program     static L:\solarpic_rewrite\swm8722\solar18f8722\swm8722.c
             __string_102   0x0123c5    program     static L:\solarpic_rewrite\swm8722\solar18f8722\swm8722.c
               __string_1   0x0123d1    program     static L:\solarpic_rewrite\swm8722\solar18f8722\model.c
               __string_0   0x01242f    program     static L:\solarpic_rewrite\swm8722\solar18f8722\model.c
              __string_49   0x012432    program     static L:\solarpic_rewrite\swm8722\solar18f8722\power.c
              __string_48   0x012455    program     static L:\solarpic_rewrite\swm8722\solar18f8722\power.c
              __string_47   0x01246e    program     static L:\solarpic_rewrite\swm8722\solar18f8722\power.c
              __string_46   0x012488    program     static L:\solarpic_rewrite\swm8722\solar18f8722\power.c
              __string_45   0x0124a4    program     static L:\solarpic_rewrite\swm8722\solar18f8722\power.c
              __string_44   0x0124b3    program     static L:\solarpic_rewrite\swm8722\solar18f8722\power.c
              __string_43   0x0124bd    program     static L:\solarpic_rewrite\swm8722\solar18f8722\power.c
              __string_42   0x012515    program     static L:\solarpic_rewrite\swm8722\solar18f8722\power.c
              __string_41   0x012579    program     static L:\solarpic_rewrite\swm8722\solar18f8722\power.c
              __string_40   0x0125c1    program     static L:\solarpic_rewrite\swm8722\solar18f8722\power.c
              __string_39   0x0125f8    program     static L:\solarpic_rewrite\swm8722\solar18f8722\power.c
              __string_38   0x01262a    program     static L:\solarpic_rewrite\swm8722\solar18f8722\power.c
              __string_37   0x012638    program     static L:\solarpic_rewrite\swm8722\solar18f8722\power.c
              __string_36   0x01264b    program     static L:\solarpic_rewrite\swm8722\solar18f8722\power.c
              __string_35   0x012668    program     static L:\solarpic_rewrite\swm8722\solar18f8722\power.c
              __string_34   0x01268d    program     static L:\solarpic_rewrite\swm8722\solar18f8722\power.c
              __string_33   0x0126e0    program     static L:\solarpic_rewrite\swm8722\solar18f8722\power.c
              __string_32   0x01270c    program     static L:\solarpic_rewrite\swm8722\solar18f8722\power.c
              __string_31   0x01272e    program     static L:\solarpic_rewrite\swm8722\solar18f8722\power.c
              __string_30   0x012771    program     static L:\solarpic_rewrite\swm8722\solar18f8722\power.c
              __string_29   0x0127a4    program     static L:\solarpic_rewrite\swm8722\solar18f8722\power.c
              __string_28   0x0127c4    program     static L:\solarpic_rewrite\swm8722\solar18f8722\power.c
              __string_27   0x0127d9    program     static L:\solarpic_rewrite\swm8722\solar18f8722\power.c
              __string_26   0x012837    program     static L:\solarpic_rewrite\swm8722\solar18f8722\power.c
              __string_25   0x01286e    program     static L:\solarpic_rewrite\swm8722\solar18f8722\power.c
              __string_24   0x01287b    program     static L:\solarpic_rewrite\swm8722\solar18f8722\power.c
              __string_23   0x0128bf    program     static L:\solarpic_rewrite\swm8722\solar18f8722\power.c
              __string_22   0x0128d5    program     static L:\solarpic_rewrite\swm8722\solar18f8722\power.c
              __string_21   0x0128f6    program     static L:\solarpic_rewrite\swm8722\solar18f8722\power.c
              __string_20   0x012913    program     static L:\solarpic_rewrite\swm8722\solar18f8722\power.c
              __string_19   0x012920    program     static L:\solarpic_rewrite\swm8722\solar18f8722\power.c
              __string_18   0x012948    program     static L:\solarpic_rewrite\swm8722\solar18f8722\power.c
              __string_17   0x012973    program     static L:\solarpic_rewrite\swm8722\solar18f8722\power.c
              __string_16   0x01299e    program     static L:\solarpic_rewrite\swm8722\solar18f8722\power.c
              __string_15   0x0129c2    program     static L:\solarpic_rewrite\swm8722\solar18f8722\power.c
              __string_14   0x0129e6    program     static L:\solarpic_rewrite\swm8722\solar18f8722\power.c
              __string_13   0x0129fd    program     static L:\solarpic_rewrite\swm8722\solar18f8722\power.c
              __string_12   0x012a1b    program     static L:\solarpic_rewrite\swm8722\solar18f8722\power.c
              __string_11   0x012a35    program     static L:\solarpic_rewrite\swm8722\solar18f8722\power.c
              __string_10   0x012a42    program     static L:\solarpic_rewrite\swm8722\solar18f8722\power.c
               __string_9   0x012a4f    program     static L:\solarpic_rewrite\swm8722\solar18f8722\power.c
               __string_8   0x012a5c    program     static L:\solarpic_rewrite\swm8722\solar18f8722\power.c
               __string_7   0x012a6f    program     static L:\solarpic_rewrite\swm8722\solar18f8722\power.c
               __string_6   0x012a79    program     static L:\solarpic_rewrite\swm8722\solar18f8722\power.c
               __string_5   0x012a83    program     static L:\solarpic_rewrite\swm8722\solar18f8722\power.c
               __string_4   0x012a8d    program     static L:\solarpic_rewrite\swm8722\solar18f8722\power.c
               __string_3   0x012a97    program     static L:\solarpic_rewrite\swm8722\solar18f8722\power.c
               __string_2   0x012aa2    program     static L:\solarpic_rewrite\swm8722\solar18f8722\power.c
               __string_1   0x012aad    program     static L:\solarpic_rewrite\swm8722\solar18f8722\power.c
               __string_0   0x012ab8    program     static L:\solarpic_rewrite\swm8722\solar18f8722\power.c
               __string_3   0x012ac3    program     static L:\solarpic_rewrite\swm8722\solar18f8722\daq.c
               __string_2   0x012af8    program     static L:\solarpic_rewrite\swm8722\solar18f8722\daq.c
               __string_1   0x012b2c    program     static L:\solarpic_rewrite\swm8722\solar18f8722\daq.c
               __string_0   0x012b5a    program     static L:\solarpic_rewrite\swm8722\solar18f8722\daq.c
              __string_18   0x012b7e    program     static L:\solarpic_rewrite\swm8722\solar18f8722\timelib.c
              __string_17   0x012b82    program     static L:\solarpic_rewrite\swm8722\solar18f8722\timelib.c
              __string_16   0x012b86    program     static L:\solarpic_rewrite\swm8722\solar18f8722\timelib.c
              __string_15   0x012b8a    program     static L:\solarpic_rewrite\swm8722\solar18f8722\timelib.c
              __string_14   0x012b8e    program     static L:\solarpic_rewrite\swm8722\solar18f8722\timelib.c
              __string_13   0x012b92    program     static L:\solarpic_rewrite\swm8722\solar18f8722\timelib.c
              __string_12   0x012b96    program     static L:\solarpic_rewrite\swm8722\solar18f8722\timelib.c
              __string_11   0x012b9a    program     static L:\solarpic_rewrite\swm8722\solar18f8722\timelib.c
              __string_10   0x012b9e    program     static L:\solarpic_rewrite\swm8722\solar18f8722\timelib.c
               __string_9   0x012ba2    program     static L:\solarpic_rewrite\swm8722\solar18f8722\timelib.c
               __string_8   0x012ba6    program     static L:\solarpic_rewrite\swm8722\solar18f8722\timelib.c
               __string_7   0x012baa    program     static L:\solarpic_rewrite\swm8722\solar18f8722\timelib.c
               __string_6   0x012bae    program     static L:\solarpic_rewrite\swm8722\solar18f8722\timelib.c
               __string_5   0x012bb2    program     static L:\solarpic_rewrite\swm8722\solar18f8722\timelib.c
               __string_4   0x012bb6    program     static L:\solarpic_rewrite\swm8722\solar18f8722\timelib.c
               __string_3   0x012bba    program     static L:\solarpic_rewrite\swm8722\solar18f8722\timelib.c
               __string_2   0x012bbe    program     static L:\solarpic_rewrite\swm8722\solar18f8722\timelib.c
               __string_1   0x012bc2    program     static L:\solarpic_rewrite\swm8722\solar18f8722\timelib.c
               __string_0   0x012bc6    program     static L:\solarpic_rewrite\swm8722\solar18f8722\timelib.c
                 ADC_zero   0x012bca    program     extern L:\solarpic_rewrite\swm8722\solar18f8722\daq.c
        ___while_lbl00001   0x012be4    program     static                          
        ___while_lbl00002   0x012bee    program     static                          
       ___return_lbl00000   0x012bfa    program     static                          
                 ADC_read   0x012bfc    program     extern L:\solarpic_rewrite\swm8722\solar18f8722\daq.c
          ___for_lbl00008   0x012c24    program     static                          
        ___while_lbl00006   0x012c34    program     static                          
        ___while_lbl00007   0x012c3e    program     static                          
          ___for_lbl00004   0x012c60    program     static                          
          ___for_lbl00005   0x012c6a    program     static                          
              __tmplbl_17   0x012cb8    program     static                          
          ___for_lbl00013   0x012d62    program     static                          
        ___while_lbl00011   0x012d72    program     static                          
        ___while_lbl00012   0x012d7c    program     static                          
          ___for_lbl00009   0x012d9e    program     static                          
          ___for_lbl00010   0x012da8    program     static                          
              __tmplbl_18   0x012df6    program     static                          
          ___for_lbl00018   0x012efc    program     static                          
        ___while_lbl00016   0x012f0c    program     static                          
        ___while_lbl00017   0x012f16    program     static                          
          ___for_lbl00014   0x012f38    program     static                          
          ___for_lbl00015   0x012f42    program     static                          
              __tmplbl_19   0x012fec    program     static                          
               __tmplbl_0   0x013062    program     static                          
           ___if_lbl00019   0x01306e    program     static                          
           ___if_lbl00020   0x01314e    program     static                          
          ___for_lbl00025   0x013174    program     static                          
        ___while_lbl00023   0x013184    program     static                          
        ___while_lbl00024   0x01318e    program     static                          
          ___for_lbl00021   0x0131b0    program     static                          
          ___for_lbl00022   0x0131ba    program     static                          
              __tmplbl_20   0x013208    program     static                          
          ___for_lbl00030   0x013294    program     static                          
        ___while_lbl00028   0x0132a4    program     static                          
        ___while_lbl00029   0x0132ae    program     static                          
          ___for_lbl00026   0x0132d0    program     static                          
          ___for_lbl00027   0x0132da    program     static                          
              __tmplbl_21   0x013328    program     static                          
          ___for_lbl00035   0x0133b4    program     static                          
        ___while_lbl00033   0x0133c4    program     static                          
        ___while_lbl00034   0x0133ce    program     static                          
          ___for_lbl00031   0x0133f0    program     static                          
          ___for_lbl00032   0x0133fa    program     static                          
              __tmplbl_22   0x013448    program     static                          
          ___for_lbl00040   0x013594    program     static                          
        ___while_lbl00038   0x0135a4    program     static                          
        ___while_lbl00039   0x0135ae    program     static                          
          ___for_lbl00036   0x0135d0    program     static                          
          ___for_lbl00037   0x0135da    program     static                          
              __tmplbl_23   0x013684    program     static                          
               __tmplbl_1   0x0136fa    program     static                          
           ___if_lbl00041   0x013706    program     static                          
           ___if_lbl00042   0x0137e8    program     static                          
          ___for_lbl00047   0x013810    program     static                          
        ___while_lbl00045   0x013820    program     static                          
        ___while_lbl00046   0x01382a    program     static                          
          ___for_lbl00043   0x01384c    program     static                          
          ___for_lbl00044   0x013856    program     static                          
               __tmplbl_4   0x01392a    program     static                          
               __tmplbl_3   0x01392c    program     static                          
               __tmplbl_5   0x013946    program     static                          
               __tmplbl_2   0x013948    program     static                          
           ___if_lbl00049   0x013956    program     static                          
          ___for_lbl00054   0x013982    program     static                          
        ___while_lbl00052   0x013992    program     static                          
        ___while_lbl00053   0x01399c    program     static                          
          ___for_lbl00050   0x0139be    program     static                          
          ___for_lbl00051   0x0139c8    program     static                          
              __tmplbl_24   0x013a72    program     static                          
               __tmplbl_6   0x013ae8    program     static                          
           ___if_lbl00055   0x013af4    program     static                          
           ___if_lbl00056   0x013bc2    program     static                          
           ___if_lbl00057   0x013c08    program     static                          
               __tmplbl_8   0x013c32    program     static                          
               __tmplbl_7   0x013c3c    program     static                          
           ___if_lbl00059   0x013c6c    program     static                          
           ___if_lbl00060   0x013c7e    program     static                          
           ___if_lbl00061   0x013c86    program     static                          
           ___if_lbl00062   0x013c9a    program     static                          
           ___if_lbl00063   0x013d04    program     static                          
           ___if_lbl00064   0x013d98    program     static                          
              __tmplbl_10   0x013da4    program     static                          
               __tmplbl_9   0x013daa    program     static                          
           ___if_lbl00066   0x013dfe    program     static                          
         ___else_lbl00072   0x013e00    program     static                          
           ___if_lbl00067   0x013e94    program     static                          
           ___if_lbl00068   0x013ef2    program     static                          
              __tmplbl_12   0x013efe    program     static                          
              __tmplbl_11   0x013f04    program     static                          
           ___if_lbl00071   0x013f58    program     static                          
           ___if_lbl00070   0x013f58    program     static                          
       ___return_lbl00003   0x013f62    program     static                          
                   do_sim   0x013f64    program     extern L:\solarpic_rewrite\swm8722\solar18f8722\daq.c
           ___if_lbl00074   0x014166    program     static                          
           ___if_lbl00075   0x0141d4    program     static                          
           ___if_lbl00076   0x0141da    program     static                          
           ___if_lbl00077   0x0141e0    program     static                          
       ___return_lbl00073   0x0141e0    program     static                          
             set_adc_gain   0x0141e2    program     extern L:\solarpic_rewrite\swm8722\solar18f8722\daq.c
              zero_amploc   0x014316    program     extern L:\solarpic_rewrite\swm8722\solar18f8722\daq.c
           zero_amploc_PV   0x014456    program     extern L:\solarpic_rewrite\swm8722\solar18f8722\daq.c
                   __pa_0   0x01448a    program     static L:\solarpic_rewrite\swm8722\solar18f8722\daq.c
                   __pa_1   0x01449e    program     static L:\solarpic_rewrite\swm8722\solar18f8722\daq.c
                   __pa_2   0x0144ac    program     static L:\solarpic_rewrite\swm8722\solar18f8722\daq.c
                   __pa_3   0x0144b6    program     static L:\solarpic_rewrite\swm8722\solar18f8722\daq.c
                   __pa_4   0x0144c6    program     static L:\solarpic_rewrite\swm8722\solar18f8722\daq.c
                   __pa_5   0x0144da    program     static L:\solarpic_rewrite\swm8722\solar18f8722\daq.c
                   __pa_6   0x0144e8    program     static L:\solarpic_rewrite\swm8722\solar18f8722\daq.c
                   __pa_7   0x0144f6    program     static L:\solarpic_rewrite\swm8722\solar18f8722\daq.c
                   __pa_8   0x014500    program     static L:\solarpic_rewrite\swm8722\solar18f8722\daq.c
                   __pa_9   0x014510    program     static L:\solarpic_rewrite\swm8722\solar18f8722\daq.c
                  __pa_10   0x01451c    program     static L:\solarpic_rewrite\swm8722\solar18f8722\daq.c
                 lowbatt0   0x014524    program     extern L:\solarpic_rewrite\swm8722\solar18f8722\mbmc_msg.h
                    zero0   0x014567    program     extern L:\solarpic_rewrite\swm8722\solar18f8722\mbmc_msg.h
                    zero1   0x014597    program     extern L:\solarpic_rewrite\swm8722\solar18f8722\mbmc_msg.h
                    zero2   0x0145d3    program     extern L:\solarpic_rewrite\swm8722\solar18f8722\mbmc_msg.h
                    zero3   0x014607    program     extern L:\solarpic_rewrite\swm8722\solar18f8722\mbmc_msg.h
                    adcg0   0x014641    program     extern L:\solarpic_rewrite\swm8722\solar18f8722\mbmc_msg.h
                    adcg1   0x014681    program     extern L:\solarpic_rewrite\swm8722\solar18f8722\mbmc_msg.h
                    adcg2   0x0146ac    program     extern L:\solarpic_rewrite\swm8722\solar18f8722\mbmc_msg.h
                    adcg3   0x0146df    program     extern L:\solarpic_rewrite\swm8722\solar18f8722\mbmc_msg.h
                    adcg4   0x01474b    program     extern L:\solarpic_rewrite\swm8722\solar18f8722\mbmc_msg.h
                   tweak0   0x014782    program     extern L:\solarpic_rewrite\swm8722\solar18f8722\mbmc_msg.h
                   tweak1   0x01481f    program     extern L:\solarpic_rewrite\swm8722\solar18f8722\mbmc_msg.h
                   tweak2   0x014848    program     extern L:\solarpic_rewrite\swm8722\solar18f8722\mbmc_msg.h
                   tweak3   0x01486c    program     extern L:\solarpic_rewrite\swm8722\solar18f8722\mbmc_msg.h
                   tweak4   0x0148eb    program     extern L:\solarpic_rewrite\swm8722\solar18f8722\mbmc_msg.h
                   tweak5   0x01491b    program     extern L:\solarpic_rewrite\swm8722\solar18f8722\mbmc_msg.h
                 tweak_t1   0x0149a1    program     extern L:\solarpic_rewrite\swm8722\solar18f8722\mbmc_msg.h
                 tweak_t2   0x0149a6    program     extern L:\solarpic_rewrite\swm8722\solar18f8722\mbmc_msg.h
                 tweak_t3   0x0149aa    program     extern L:\solarpic_rewrite\swm8722\solar18f8722\mbmc_msg.h
                 tweak_t4   0x0149ae    program     extern L:\solarpic_rewrite\swm8722\solar18f8722\mbmc_msg.h
                 tweak_tw   0x0149b3    program     extern L:\solarpic_rewrite\swm8722\solar18f8722\mbmc_msg.h
                   hello0   0x0149c3    program     extern L:\solarpic_rewrite\swm8722\solar18f8722\mbmc_msg.h
                   hello1   0x014a28    program     extern L:\solarpic_rewrite\swm8722\solar18f8722\mbmc_msg.h
                    hold0   0x014a3a    program     extern L:\solarpic_rewrite\swm8722\solar18f8722\mbmc_msg.h
                    hold1   0x014a93    program     extern L:\solarpic_rewrite\swm8722\solar18f8722\mbmc_msg.h
                    sync0   0x014ac7    program     extern L:\solarpic_rewrite\swm8722\solar18f8722\mbmc_msg.h
                    sync1   0x014afb    program     extern L:\solarpic_rewrite\swm8722\solar18f8722\mbmc_msg.h
                    sync2   0x014b19    program     extern L:\solarpic_rewrite\swm8722\solar18f8722\mbmc_msg.h
                 keycmds0   0x014b37    program     extern L:\solarpic_rewrite\swm8722\solar18f8722\mbmc_msg.h
                 keycmds1   0x014bd8    program     extern L:\solarpic_rewrite\swm8722\solar18f8722\mbmc_msg.h
              battheader0   0x014c80    program     extern L:\solarpic_rewrite\swm8722\solar18f8722\mbmc_msg.h
              battheader1   0x014cfa    program     extern L:\solarpic_rewrite\swm8722\solar18f8722\mbmc_msg.h
             modelheader0   0x014d93    program     extern L:\solarpic_rewrite\swm8722\solar18f8722\mbmc_msg.h
             modelheader1   0x014db2    program     extern L:\solarpic_rewrite\swm8722\solar18f8722\mbmc_msg.h
              battbuffer0   0x014dca    program     extern L:\solarpic_rewrite\swm8722\solar18f8722\mbmc_msg.h
                  sddump0   0x014df2    program     extern L:\solarpic_rewrite\swm8722\solar18f8722\mbmc_msg.h
                  sddump1   0x014e20    program     extern L:\solarpic_rewrite\swm8722\solar18f8722\mbmc_msg.h
                  sddump2   0x014e56    program     extern L:\solarpic_rewrite\swm8722\solar18f8722\mbmc_msg.h
                  sddump3   0x014e6d    program     extern L:\solarpic_rewrite\swm8722\solar18f8722\mbmc_msg.h
                  divert0   0x014e9a    program     extern L:\solarpic_rewrite\swm8722\solar18f8722\mbmc_msg.h
                  divert1   0x014eba    program     extern L:\solarpic_rewrite\swm8722\solar18f8722\mbmc_msg.h
                 divert99   0x014ef7    program     extern L:\solarpic_rewrite\swm8722\solar18f8722\mbmc_msg.h
                 almcode0   0x014ef8    program     extern L:\solarpic_rewrite\swm8722\solar18f8722\mbmc_msg.h
                 almcode1   0x014f18    program     extern L:\solarpic_rewrite\swm8722\solar18f8722\mbmc_msg.h
                 almcode2   0x014f48    program     extern L:\solarpic_rewrite\swm8722\solar18f8722\mbmc_msg.h
                 almcode3   0x014f6b    program     extern L:\solarpic_rewrite\swm8722\solar18f8722\mbmc_msg.h
                 almcode4   0x014f8e    program     extern L:\solarpic_rewrite\swm8722\solar18f8722\mbmc_msg.h
                 almcode5   0x014fbf    program     extern L:\solarpic_rewrite\swm8722\solar18f8722\mbmc_msg.h
                 almcode6   0x014ff3    program     extern L:\solarpic_rewrite\swm8722\solar18f8722\mbmc_msg.h
                 almcode7   0x015028    program     extern L:\solarpic_rewrite\swm8722\solar18f8722\mbmc_msg.h
                 almcode8   0x015070    program     extern L:\solarpic_rewrite\swm8722\solar18f8722\mbmc_msg.h
                 almcode9   0x01509e    program     extern L:\solarpic_rewrite\swm8722\solar18f8722\mbmc_msg.h
                almcode10   0x0150ce    program     extern L:\solarpic_rewrite\swm8722\solar18f8722\mbmc_msg.h
                almcode11   0x01510f    program     extern L:\solarpic_rewrite\swm8722\solar18f8722\mbmc_msg.h
                almcode12   0x015135    program     extern L:\solarpic_rewrite\swm8722\solar18f8722\mbmc_msg.h
                almcode13   0x01515b    program     extern L:\solarpic_rewrite\swm8722\solar18f8722\mbmc_msg.h
                almcode14   0x015187    program     extern L:\solarpic_rewrite\swm8722\solar18f8722\mbmc_msg.h
                almcode15   0x01519f    program     extern L:\solarpic_rewrite\swm8722\solar18f8722\mbmc_msg.h
                almcode16   0x0151b6    program     extern L:\solarpic_rewrite\swm8722\solar18f8722\mbmc_msg.h
                almcode17   0x0151e3    program     extern L:\solarpic_rewrite\swm8722\solar18f8722\mbmc_msg.h
                almcode18   0x015202    program     extern L:\solarpic_rewrite\swm8722\solar18f8722\mbmc_msg.h
                almcode19   0x01523c    program     extern L:\solarpic_rewrite\swm8722\solar18f8722\mbmc_msg.h
                almcode99   0x015250    program     extern L:\solarpic_rewrite\swm8722\solar18f8722\mbmc_msg.h
                chrgcode0   0x015251    program     extern L:\solarpic_rewrite\swm8722\solar18f8722\mbmc_msg.h
                chrgcode1   0x015282    program     extern L:\solarpic_rewrite\swm8722\solar18f8722\mbmc_msg.h
                chrgcode2   0x0152b8    program     extern L:\solarpic_rewrite\swm8722\solar18f8722\mbmc_msg.h
                chrgcode3   0x0152e4    program     extern L:\solarpic_rewrite\swm8722\solar18f8722\mbmc_msg.h
                chrgcode4   0x015315    program     extern L:\solarpic_rewrite\swm8722\solar18f8722\mbmc_msg.h
                chrgcode5   0x01534d    program     extern L:\solarpic_rewrite\swm8722\solar18f8722\mbmc_msg.h
                chrgcode6   0x015360    program     extern L:\solarpic_rewrite\swm8722\solar18f8722\mbmc_msg.h
                chrgcode7   0x015380    program     extern L:\solarpic_rewrite\swm8722\solar18f8722\mbmc_msg.h
                chrgcode8   0x0153ad    program     extern L:\solarpic_rewrite\swm8722\solar18f8722\mbmc_msg.h
                chrgcode9   0x0153d7    program     extern L:\solarpic_rewrite\swm8722\solar18f8722\mbmc_msg.h
               chrgcode10   0x0153fc    program     extern L:\solarpic_rewrite\swm8722\solar18f8722\mbmc_msg.h
               chrgcode11   0x015429    program     extern L:\solarpic_rewrite\swm8722\solar18f8722\mbmc_msg.h
               chrgcode12   0x015454    program     extern L:\solarpic_rewrite\swm8722\solar18f8722\mbmc_msg.h
               chrgcode13   0x015482    program     extern L:\solarpic_rewrite\swm8722\solar18f8722\mbmc_msg.h
               chrgcode14   0x0154af    program     extern L:\solarpic_rewrite\swm8722\solar18f8722\mbmc_msg.h
               chrgcode15   0x0154e3    program     extern L:\solarpic_rewrite\swm8722\solar18f8722\mbmc_msg.h
               chrgcode16   0x01550d    program     extern L:\solarpic_rewrite\swm8722\solar18f8722\mbmc_msg.h
                 charger0   0x015537    program     extern L:\solarpic_rewrite\swm8722\solar18f8722\mbmc_msg.h
                 charger1   0x01556e    program     extern L:\solarpic_rewrite\swm8722\solar18f8722\mbmc_msg.h
                 charger2   0x0155d0    program     extern L:\solarpic_rewrite\swm8722\solar18f8722\mbmc_msg.h
                 charger3   0x01560e    program     extern L:\solarpic_rewrite\swm8722\solar18f8722\mbmc_msg.h
                 charger4   0x01562d    program     extern L:\solarpic_rewrite\swm8722\solar18f8722\mbmc_msg.h
                 charger5   0x01564d    program     extern L:\solarpic_rewrite\swm8722\solar18f8722\mbmc_msg.h
                charger99   0x015687    program     extern L:\solarpic_rewrite\swm8722\solar18f8722\mbmc_msg.h
                 runcode0   0x015688    program     extern L:\solarpic_rewrite\swm8722\solar18f8722\mbmc_msg.h
                 runcode1   0x0156b6    program     extern L:\solarpic_rewrite\swm8722\solar18f8722\mbmc_msg.h
                 runcode2   0x0156e6    program     extern L:\solarpic_rewrite\swm8722\solar18f8722\mbmc_msg.h
                 runcode3   0x01570f    program     extern L:\solarpic_rewrite\swm8722\solar18f8722\mbmc_msg.h
                 runcode4   0x01574d    program     extern L:\solarpic_rewrite\swm8722\solar18f8722\mbmc_msg.h
                 runcode5   0x01577c    program     extern L:\solarpic_rewrite\swm8722\solar18f8722\mbmc_msg.h
                 runcode6   0x0157aa    program     extern L:\solarpic_rewrite\swm8722\solar18f8722\mbmc_msg.h
                 runcode7   0x0157e5    program     extern L:\solarpic_rewrite\swm8722\solar18f8722\mbmc_msg.h
                 runcode8   0x01580f    program     extern L:\solarpic_rewrite\swm8722\solar18f8722\mbmc_msg.h
                 runcode9   0x01584a    program     extern L:\solarpic_rewrite\swm8722\solar18f8722\mbmc_msg.h
                runcode10   0x01587f    program     extern L:\solarpic_rewrite\swm8722\solar18f8722\mbmc_msg.h
          sd_data_layout1   0x0158b0    program     extern L:\solarpic_rewrite\swm8722\solar18f8722\mbmc_msg.h
          sd_data_layout2   0x0158f9    program     extern L:\solarpic_rewrite\swm8722\solar18f8722\mbmc_msg.h
          sd_data_layout3   0x015950    program     extern L:\solarpic_rewrite\swm8722\solar18f8722\mbmc_msg.h
          sd_data_layout4   0x015976    program     extern L:\solarpic_rewrite\swm8722\solar18f8722\mbmc_msg.h
          sd_data_layout5   0x0159ae    program     extern L:\solarpic_rewrite\swm8722\solar18f8722\mbmc_msg.h
              BVSOC_TABLE   0x0159b1    program     extern L:\solarpic_rewrite\swm8722\solar18f8722\swm8722.c
                sd_select   0x015a82    program     extern L:\solarpic_rewrite\swm8722\solar18f8722\sdspi.c
              sd_deselect   0x015a86    program     extern L:\solarpic_rewrite\swm8722\solar18f8722\sdspi.c
                    CRC16   0x015a8a    program     extern L:\solarpic_rewrite\swm8722\solar18f8722\sdspi.c
                 xmit_spi   0x015b4a    program     extern L:\solarpic_rewrite\swm8722\solar18f8722\sdspi.c
           ___do_lbl00009   0x015b5c    program     static                          
           ___if_lbl00008   0x015b6e    program     static                          
           ___do_lbl00006   0x015b6e    program     static                          
           ___do_lbl00007   0x015b72    program     static                          
       ___return_lbl00005   0x015b76    program     static                          
                 rcvr_spi   0x015b7e    program     extern L:\solarpic_rewrite\swm8722\solar18f8722\sdspi.c
               wait_ready   0x015b84    program     extern L:\solarpic_rewrite\swm8722\solar18f8722\sdspi.c
           ___do_lbl00015   0x015b88    program     static                          
           ___if_lbl00014   0x015ba6    program     static                          
           ___do_lbl00012   0x015ba6    program     static                          
           ___do_lbl00013   0x015bae    program     static                          
       ___return_lbl00011   0x015bb4    program     static                          
                 send_cmd   0x015bb6    program     extern L:\solarpic_rewrite\swm8722\solar18f8722\sdspi.c
              send_dummys   0x015cd8    program     extern L:\solarpic_rewrite\swm8722\solar18f8722\sdspi.c
      MMC_get_volume_info   0x015cf0    program     extern L:\solarpic_rewrite\swm8722\solar18f8722\sdspi.c
          disk_initialize   0x015ff0    program     extern L:\solarpic_rewrite\swm8722\solar18f8722\sdspi.c
            wipe_sdbuffer   0x01615a    program     extern L:\solarpic_rewrite\swm8722\solar18f8722\sdspi.c
          mmc_write_block   0x016172    program     extern L:\solarpic_rewrite\swm8722\solar18f8722\sdspi.c
           ___if_lbl00079   0x0161be    program     static                          
           ___do_lbl00085   0x0161ca    program     static                          
         ___else_lbl00083   0x0161f0    program     static                          
           ___if_lbl00082   0x01620c    program     static                          
           ___if_lbl00084   0x01622a    program     static                          
           ___do_lbl00080   0x01622c    program     static                          
           ___do_lbl00081   0x016232    program     static                          
          ___for_lbl00088   0x01624a    program     static                          
              __tmplbl_10   0x016260    program     static                          
               __tmplbl_4   0x01627a    program     static                          
          ___for_lbl00086   0x016294    program     static                          
          ___for_lbl00087   0x01629e    program     static                          
           ___if_lbl00089   0x0162bc    program     static                          
        ___while_lbl00090   0x0162bc    program     static                          
        ___while_lbl00091   0x0162c4    program     static                          
         ___else_lbl00104   0x0162d2    program     static                          
          ___for_lbl00100   0x016322    program     static                          
          ___for_lbl00096   0x016350    program     static                          
              __tmplbl_11   0x016366    program     static                          
               __tmplbl_5   0x016380    program     static                          
          ___for_lbl00094   0x01639c    program     static                          
          ___for_lbl00095   0x0163a6    program     static                          
        ___while_lbl00098   0x0163ca    program     static                          
           ___if_lbl00097   0x0163ca    program     static                          
        ___while_lbl00099   0x0163d4    program     static                          
          ___for_lbl00092   0x0163d4    program     static                          
          ___for_lbl00093   0x0163de    program     static                          
        ___while_lbl00101   0x0163e8    program     static                          
        ___while_lbl00102   0x0163f2    program     static                          
           ___if_lbl00103   0x0163fe    program     static                          
       ___return_lbl00078   0x0163fe    program     static                          
           mmc_read_block   0x016406    program     extern L:\solarpic_rewrite\swm8722\solar18f8722\sdspi.c
           ___if_lbl00106   0x016452    program     static                          
           ___do_lbl00112   0x01645e    program     static                          
         ___else_lbl00110   0x016486    program     static                          
           ___if_lbl00109   0x0164a4    program     static                          
           ___if_lbl00111   0x0164c4    program     static                          
           ___do_lbl00107   0x0164c6    program     static                          
           ___do_lbl00108   0x0164cc    program     static                          
           ___do_lbl00116   0x0164d2    program     static                          
           ___do_lbl00113   0x0164fa    program     static                          
           ___if_lbl00115   0x0164fa    program     static                          
           ___do_lbl00114   0x016502    program     static                          
          ___for_lbl00119   0x016510    program     static                          
              __tmplbl_12   0x016526    program     static                          
               __tmplbl_6   0x016540    program     static                          
          ___for_lbl00117   0x01655e    program     static                          
          ___for_lbl00118   0x016568    program     static                          
         ___else_lbl00129   0x016582    program     static                          
          ___for_lbl00125   0x0165d2    program     static                          
          ___for_lbl00124   0x0165f6    program     static                          
              __tmplbl_13   0x01660c    program     static                          
               __tmplbl_7   0x016626    program     static                          
          ___for_lbl00122   0x016644    program     static                          
          ___for_lbl00123   0x01664e    program     static                          
          ___for_lbl00120   0x016656    program     static                          
          ___for_lbl00121   0x016660    program     static                          
        ___while_lbl00126   0x016682    program     static                          
        ___while_lbl00127   0x01668c    program     static                          
           ___if_lbl00128   0x01669c    program     static                          
       ___return_lbl00105   0x01669c    program     static                          
               init_sdspi   0x0166a4    program     extern L:\solarpic_rewrite\swm8722\solar18f8722\sdspi.c
                   __pa_0   0x0166bc    program     static L:\solarpic_rewrite\swm8722\solar18f8722\sdspi.c
                   __pa_1   0x0166c4    program     static L:\solarpic_rewrite\swm8722\solar18f8722\sdspi.c
                   __pa_2   0x0166d6    program     static L:\solarpic_rewrite\swm8722\solar18f8722\sdspi.c
                   __pa_3   0x0166e0    program     static L:\solarpic_rewrite\swm8722\solar18f8722\sdspi.c
                   __pa_4   0x0166f4    program     static L:\solarpic_rewrite\swm8722\solar18f8722\sdspi.c
                   __pa_5   0x0166fc    program     static L:\solarpic_rewrite\swm8722\solar18f8722\sdspi.c
                   __pa_6   0x016704    program     static L:\solarpic_rewrite\swm8722\solar18f8722\sdspi.c
                   __pa_7   0x016712    program     static L:\solarpic_rewrite\swm8722\solar18f8722\sdspi.c
                   __pa_8   0x01671c    program     static L:\solarpic_rewrite\swm8722\solar18f8722\sdspi.c
                   __pa_9   0x016728    program     static L:\solarpic_rewrite\swm8722\solar18f8722\sdspi.c
                  __pa_10   0x01673a    program     static L:\solarpic_rewrite\swm8722\solar18f8722\sdspi.c
                  __pa_11   0x016742    program     static L:\solarpic_rewrite\swm8722\solar18f8722\sdspi.c
                  __pa_12   0x016750    program     static L:\solarpic_rewrite\swm8722\solar18f8722\sdspi.c
                  __pa_13   0x016758    program     static L:\solarpic_rewrite\swm8722\solar18f8722\sdspi.c
                  __pa_14   0x01676a    program     static L:\solarpic_rewrite\swm8722\solar18f8722\sdspi.c
                  __pa_15   0x016776    program     static L:\solarpic_rewrite\swm8722\solar18f8722\sdspi.c
                  __pa_16   0x016786    program     static L:\solarpic_rewrite\swm8722\solar18f8722\sdspi.c
                  __pa_17   0x016794    program     static L:\solarpic_rewrite\swm8722\solar18f8722\sdspi.c
                  __pa_18   0x0167a2    program     static L:\solarpic_rewrite\swm8722\solar18f8722\sdspi.c
                  __pa_19   0x0167ac    program     static L:\solarpic_rewrite\swm8722\solar18f8722\sdspi.c
                  __pa_20   0x0167b4    program     static L:\solarpic_rewrite\swm8722\solar18f8722\sdspi.c
                  __pa_21   0x0167c2    program     static L:\solarpic_rewrite\swm8722\solar18f8722\sdspi.c
                  __pa_22   0x0167ce    program     static L:\solarpic_rewrite\swm8722\solar18f8722\sdspi.c
                  __pa_23   0x0167d6    program     static L:\solarpic_rewrite\swm8722\solar18f8722\sdspi.c
                  __subFP   0x0167e0    program     extern E:\c18v3.46\pic18-lt\cxx-framework\src\extended\math\addFP.asm
                  __addFP   0x0167e4    program     extern E:\c18v3.46\pic18-lt\cxx-framework\src\extended\math\addFP.asm
                     jBeg   0x0167e6    program     static E:\c18v3.46\pic18-lt\cxx-framework\src\extended\math\addFP.asm
                jBANotInf   0x01681c    program     static E:\c18v3.46\pic18-lt\cxx-framework\src\extended\math\addFP.asm
                 jANotInf   0x016826    program     static E:\c18v3.46\pic18-lt\cxx-framework\src\extended\math\addFP.asm
                 jBNotInf   0x016834    program     static E:\c18v3.46\pic18-lt\cxx-framework\src\extended\math\addFP.asm
            jDifOrPosSign   0x016848    program     static E:\c18v3.46\pic18-lt\cxx-framework\src\extended\math\addFP.asm
             jNotBothZero   0x01684c    program     static E:\c18v3.46\pic18-lt\cxx-framework\src\extended\math\addFP.asm
                 jAltBexp   0x016878    program     static E:\c18v3.46\pic18-lt\cxx-framework\src\extended\math\addFP.asm
              jAandWsetup   0x01688a    program     static E:\c18v3.46\pic18-lt\cxx-framework\src\extended\math\addFP.asm
                 jANotNeg   0x0168ba    program     static E:\c18v3.46\pic18-lt\cxx-framework\src\extended\math\addFP.asm
                 jWNotNeg   0x0168ce    program     static E:\c18v3.46\pic18-lt\cxx-framework\src\extended\math\addFP.asm
               jShiftLoop   0x0168d4    program     static E:\c18v3.46\pic18-lt\cxx-framework\src\extended\math\addFP.asm
               jShiftDone   0x0168e2    program     static E:\c18v3.46\pic18-lt\cxx-framework\src\extended\math\addFP.asm
                jSignDone   0x016912    program     static E:\c18v3.46\pic18-lt\cxx-framework\src\extended\math\addFP.asm
               jFinalSign   0x016922    program     static E:\c18v3.46\pic18-lt\cxx-framework\src\extended\math\addFP.asm
                 __FpPack   0x01692a    program     extern E:\c18v3.46\pic18-lt\cxx-framework\src\extended\math\packFP.asm
                  jPkLoop   0x016938    program     static E:\c18v3.46\pic18-lt\cxx-framework\src\extended\math\packFP.asm
             jPkShiftDone   0x016954    program     static E:\c18v3.46\pic18-lt\cxx-framework\src\extended\math\packFP.asm
               jPkRoundIt   0x01696a    program     static E:\c18v3.46\pic18-lt\cxx-framework\src\extended\math\packFP.asm
             jPkRoundDone   0x016982    program     static E:\c18v3.46\pic18-lt\cxx-framework\src\extended\math\packFP.asm
              __FpReturnW   0x016982    program     extern E:\c18v3.46\pic18-lt\cxx-framework\src\extended\math\packFP.asm
                    jExit   0x01699e    program     static E:\c18v3.46\pic18-lt\cxx-framework\src\extended\math\packFP.asm
            __FpReturnNaN   0x0169ac    program     extern E:\c18v3.46\pic18-lt\cxx-framework\src\extended\math\packFP.asm
        __FpReturnSignInf   0x0169ba    program     extern E:\c18v3.46\pic18-lt\cxx-framework\src\extended\math\packFP.asm
         __FpReturnNegInf   0x0169be    program     extern E:\c18v3.46\pic18-lt\cxx-framework\src\extended\math\packFP.asm
         __FpReturnPosInf   0x0169c4    program     extern E:\c18v3.46\pic18-lt\cxx-framework\src\extended\math\packFP.asm
           jReturnPosInf0   0x0169c8    program     static E:\c18v3.46\pic18-lt\cxx-framework\src\extended\math\packFP.asm
               jZero1and2   0x0169cc    program     static E:\c18v3.46\pic18-lt\cxx-framework\src\extended\math\packFP.asm
       __FpReturnSignZero   0x0169d2    program     extern E:\c18v3.46\pic18-lt\cxx-framework\src\extended\math\packFP.asm
        __FpReturnNegZero   0x0169d6    program     extern E:\c18v3.46\pic18-lt\cxx-framework\src\extended\math\packFP.asm
        __FpReturnPosZero   0x0169de    program     extern E:\c18v3.46\pic18-lt\cxx-framework\src\extended\math\packFP.asm
              __FpUnPackA   0x0169e4    program     extern E:\c18v3.46\pic18-lt\cxx-framework\src\extended\math\unpackFP.asm
                  jUnpkA1   0x0169ee    program     static E:\c18v3.46\pic18-lt\cxx-framework\src\extended\math\unpackFP.asm
                 jUnpkANZ   0x0169fc    program     static E:\c18v3.46\pic18-lt\cxx-framework\src\extended\math\unpackFP.asm
                  jUnpkA2   0x016a06    program     static E:\c18v3.46\pic18-lt\cxx-framework\src\extended\math\unpackFP.asm
                 jUnpkNaN   0x016a10    program     static E:\c18v3.46\pic18-lt\cxx-framework\src\extended\math\unpackFP.asm
              __FpUnPackB   0x016a14    program     extern E:\c18v3.46\pic18-lt\cxx-framework\src\extended\math\unpackFP.asm
                  jUnpkB1   0x016a1e    program     static E:\c18v3.46\pic18-lt\cxx-framework\src\extended\math\unpackFP.asm
                 jUnpkBNZ   0x016a2c    program     static E:\c18v3.46\pic18-lt\cxx-framework\src\extended\math\unpackFP.asm
                  jUnpkB2   0x016a36    program     static E:\c18v3.46\pic18-lt\cxx-framework\src\extended\math\unpackFP.asm
              __cast08uFP   0x016a40    program     extern E:\c18v3.46\pic18-lt\cxx-framework\src\extended\math\cast08FP.asm
              __cast08sFP   0x016a44    program     extern E:\c18v3.46\pic18-lt\cxx-framework\src\extended\math\cast08FP.asm
                     jBeg   0x016a46    program     static E:\c18v3.46\pic18-lt\cxx-framework\src\extended\math\cast08FP.asm
                  jNotNeg   0x016a66    program     static E:\c18v3.46\pic18-lt\cxx-framework\src\extended\math\cast08FP.asm
              __cast16uFP   0x016a7a    program     extern E:\c18v3.46\pic18-lt\cxx-framework\src\extended\math\cast16FP.asm
              __cast16sFP   0x016a7e    program     extern E:\c18v3.46\pic18-lt\cxx-framework\src\extended\math\cast16FP.asm
                     jBeg   0x016a80    program     static E:\c18v3.46\pic18-lt\cxx-framework\src\extended\math\cast16FP.asm
                  jNotNeg   0x016aa6    program     static E:\c18v3.46\pic18-lt\cxx-framework\src\extended\math\cast16FP.asm
              __cast32uFP   0x016abc    program     extern E:\c18v3.46\pic18-lt\cxx-framework\src\extended\math\cast32FP.asm
              __cast32sFP   0x016ac0    program     extern E:\c18v3.46\pic18-lt\cxx-framework\src\extended\math\cast32FP.asm
                     jBeg   0x016ac2    program     static E:\c18v3.46\pic18-lt\cxx-framework\src\extended\math\cast32FP.asm
                  jNotNeg   0x016af0    program     static E:\c18v3.46\pic18-lt\cxx-framework\src\extended\math\cast32FP.asm
               __castFP08   0x016b0a    program     extern E:\c18v3.46\pic18-lt\cxx-framework\src\extended\math\castFP08.asm
                     jMax   0x016b2e    program     static E:\c18v3.46\pic18-lt\cxx-framework\src\extended\math\castFP08.asm
                  jMaxPos   0x016b32    program     static E:\c18v3.46\pic18-lt\cxx-framework\src\extended\math\castFP08.asm
                  jMaxNeg   0x016b38    program     static E:\c18v3.46\pic18-lt\cxx-framework\src\extended\math\castFP08.asm
                    jZero   0x016b3e    program     static E:\c18v3.46\pic18-lt\cxx-framework\src\extended\math\castFP08.asm
                  jNotInf   0x016b42    program     static E:\c18v3.46\pic18-lt\cxx-framework\src\extended\math\castFP08.asm
                    jLoop   0x016b52    program     static E:\c18v3.46\pic18-lt\cxx-framework\src\extended\math\castFP08.asm
                jLoopExit   0x016b60    program     static E:\c18v3.46\pic18-lt\cxx-framework\src\extended\math\castFP08.asm
                    jDone   0x016b6a    program     static E:\c18v3.46\pic18-lt\cxx-framework\src\extended\math\castFP08.asm
                    jExit   0x016b6e    program     static E:\c18v3.46\pic18-lt\cxx-framework\src\extended\math\castFP08.asm
               __castFP16   0x016b7c    program     extern E:\c18v3.46\pic18-lt\cxx-framework\src\extended\math\castFP16.asm
                     jMax   0x016ba0    program     static E:\c18v3.46\pic18-lt\cxx-framework\src\extended\math\castFP16.asm
                  jMaxPos   0x016ba4    program     static E:\c18v3.46\pic18-lt\cxx-framework\src\extended\math\castFP16.asm
                  jMaxNeg   0x016bae    program     static E:\c18v3.46\pic18-lt\cxx-framework\src\extended\math\castFP16.asm
                    jZero   0x016bb6    program     static E:\c18v3.46\pic18-lt\cxx-framework\src\extended\math\castFP16.asm
                  jNotInf   0x016bbc    program     static E:\c18v3.46\pic18-lt\cxx-framework\src\extended\math\castFP16.asm
                    jLoop   0x016bcc    program     static E:\c18v3.46\pic18-lt\cxx-framework\src\extended\math\castFP16.asm
                jLoopExit   0x016bdc    program     static E:\c18v3.46\pic18-lt\cxx-framework\src\extended\math\castFP16.asm
                    jDone   0x016bec    program     static E:\c18v3.46\pic18-lt\cxx-framework\src\extended\math\castFP16.asm
                    jExit   0x016bf4    program     static E:\c18v3.46\pic18-lt\cxx-framework\src\extended\math\castFP16.asm
               __castFP32   0x016c02    program     extern E:\c18v3.46\pic18-lt\cxx-framework\src\extended\math\castFP32.asm
                     jMax   0x016c26    program     static E:\c18v3.46\pic18-lt\cxx-framework\src\extended\math\castFP32.asm
                  jMaxPos   0x016c2a    program     static E:\c18v3.46\pic18-lt\cxx-framework\src\extended\math\castFP32.asm
                   jWr123   0x016c30    program     static E:\c18v3.46\pic18-lt\cxx-framework\src\extended\math\castFP32.asm
                  jMaxNeg   0x016c38    program     static E:\c18v3.46\pic18-lt\cxx-framework\src\extended\math\castFP32.asm
                    jZero   0x016c3e    program     static E:\c18v3.46\pic18-lt\cxx-framework\src\extended\math\castFP32.asm
                  jWrZ123   0x016c40    program     static E:\c18v3.46\pic18-lt\cxx-framework\src\extended\math\castFP32.asm
                  jNotInf   0x016c44    program     static E:\c18v3.46\pic18-lt\cxx-framework\src\extended\math\castFP32.asm
                    jLoop   0x016c56    program     static E:\c18v3.46\pic18-lt\cxx-framework\src\extended\math\castFP32.asm
                jLoopExit   0x016c6a    program     static E:\c18v3.46\pic18-lt\cxx-framework\src\extended\math\castFP32.asm
                    jDone   0x016c82    program     static E:\c18v3.46\pic18-lt\cxx-framework\src\extended\math\castFP32.asm
                    jExit   0x016c92    program     static E:\c18v3.46\pic18-lt\cxx-framework\src\extended\math\castFP32.asm
                 SETUPSTK   0x016ca0    program     static E:\c18v3.46\pic18-lt\cxx-framework\src\extended\math\div16s.asm
                 __div16s   0x016cb8    program     extern E:\c18v3.46\pic18-lt\cxx-framework\src\extended\math\div16s.asm
                 __mod16s   0x016cbe    program     extern E:\c18v3.46\pic18-lt\cxx-framework\src\extended\math\div16s.asm
                  SETSIGN   0x016cc0    program     static E:\c18v3.46\pic18-lt\cxx-framework\src\extended\math\div16s.asm
                  DA1616S   0x016cd2    program     static E:\c18v3.46\pic18-lt\cxx-framework\src\extended\math\div16s.asm
                   D1616S   0x016ce2    program     static E:\c18v3.46\pic18-lt\cxx-framework\src\extended\math\div16s.asm
                 D1616SOK   0x016cec    program     static E:\c18v3.46\pic18-lt\cxx-framework\src\extended\math\div16s.asm
                D1616SNEG   0x016cf0    program     static E:\c18v3.46\pic18-lt\cxx-framework\src\extended\math\div16s.asm
                D1616SPOS   0x016d00    program     static E:\c18v3.46\pic18-lt\cxx-framework\src\extended\math\div16s.asm
              RETQUOTIENT   0x016d10    program     static E:\c18v3.46\pic18-lt\cxx-framework\src\extended\math\div16s.asm
                  RESTORE   0x016d18    program     static E:\c18v3.46\pic18-lt\cxx-framework\src\extended\math\div16s.asm
                  D1616SX   0x016d26    program     static E:\c18v3.46\pic18-lt\cxx-framework\src\extended\math\div16s.asm
                 SETUPSTK   0x016d30    program     static E:\c18v3.46\pic18-lt\cxx-framework\src\extended\math\div16u.asm
                 __div16u   0x016d48    program     extern E:\c18v3.46\pic18-lt\cxx-framework\src\extended\math\div16u.asm
                 __mod16u   0x016d4e    program     extern E:\c18v3.46\pic18-lt\cxx-framework\src\extended\math\div16u.asm
            _early16uexit   0x016d52    program     extern E:\c18v3.46\pic18-lt\cxx-framework\src\extended\math\div16u.asm
                divmod16u   0x016d54    program     static E:\c18v3.46\pic18-lt\cxx-framework\src\extended\math\div16u.asm
                     loop   0x016d5e    program     static E:\c18v3.46\pic18-lt\cxx-framework\src\extended\math\div16u.asm
                  endloop   0x016d7a    program     static E:\c18v3.46\pic18-lt\cxx-framework\src\extended\math\div16u.asm
              RETQUOTIENT   0x016d92    program     static E:\c18v3.46\pic18-lt\cxx-framework\src\extended\math\div16u.asm
                  RESTORE   0x016d9a    program     static E:\c18v3.46\pic18-lt\cxx-framework\src\extended\math\div16u.asm
                 SETUPSTK   0x016da8    program     static E:\c18v3.46\pic18-lt\cxx-framework\src\extended\math\div32s.asm
                 __div32s   0x016dc0    program     extern E:\c18v3.46\pic18-lt\cxx-framework\src\extended\math\div32s.asm
                 __mod32s   0x016dc6    program     extern E:\c18v3.46\pic18-lt\cxx-framework\src\extended\math\div32s.asm
                  SETSIGN   0x016dc8    program     static E:\c18v3.46\pic18-lt\cxx-framework\src\extended\math\div32s.asm
                  DA3232S   0x016de2    program     static E:\c18v3.46\pic18-lt\cxx-framework\src\extended\math\div32s.asm
                   D3232S   0x016df8    program     static E:\c18v3.46\pic18-lt\cxx-framework\src\extended\math\div32s.asm
                 D3232SOK   0x016e02    program     static E:\c18v3.46\pic18-lt\cxx-framework\src\extended\math\div32s.asm
                D3232SNEG   0x016e06    program     static E:\c18v3.46\pic18-lt\cxx-framework\src\extended\math\div32s.asm
                D3232SPOS   0x016e24    program     static E:\c18v3.46\pic18-lt\cxx-framework\src\extended\math\div32s.asm
              RETQUOTIENT   0x016e3c    program     static E:\c18v3.46\pic18-lt\cxx-framework\src\extended\math\div32s.asm
                  RESTORE   0x016e4c    program     static E:\c18v3.46\pic18-lt\cxx-framework\src\extended\math\div32s.asm
                  D3232SX   0x016e5a    program     static E:\c18v3.46\pic18-lt\cxx-framework\src\extended\math\div32s.asm
                 SETUPSTK   0x016e64    program     static E:\c18v3.46\pic18-lt\cxx-framework\src\extended\math\div32u.asm
                 __div32u   0x016e7c    program     extern E:\c18v3.46\pic18-lt\cxx-framework\src\extended\math\div32u.asm
                 __mod32u   0x016e82    program     extern E:\c18v3.46\pic18-lt\cxx-framework\src\extended\math\div32u.asm
            _early32uexit   0x016e86    program     extern E:\c18v3.46\pic18-lt\cxx-framework\src\extended\math\div32u.asm
                divmod32u   0x016e88    program     static E:\c18v3.46\pic18-lt\cxx-framework\src\extended\math\div32u.asm
                     loop   0x016e96    program     static E:\c18v3.46\pic18-lt\cxx-framework\src\extended\math\div32u.asm
                   _false   0x016eca    program     static E:\c18v3.46\pic18-lt\cxx-framework\src\extended\math\div32u.asm
              RETQUOTIENT   0x016eea    program     static E:\c18v3.46\pic18-lt\cxx-framework\src\extended\math\div32u.asm
                  RESTORE   0x016efa    program     static E:\c18v3.46\pic18-lt\cxx-framework\src\extended\math\div32u.asm
                  __divFP   0x016f08    program     extern E:\c18v3.46\pic18-lt\cxx-framework\src\extended\math\divFP.asm
              jDivANotInf   0x016f3a    program     static E:\c18v3.46\pic18-lt\cxx-framework\src\extended\math\divFP.asm
             jDivANotZero   0x016f4e    program     static E:\c18v3.46\pic18-lt\cxx-framework\src\extended\math\divFP.asm
                 jDivLoop   0x016f76    program     static E:\c18v3.46\pic18-lt\cxx-framework\src\extended\math\divFP.asm
                jNoAdjust   0x016f9a    program     static E:\c18v3.46\pic18-lt\cxx-framework\src\extended\math\divFP.asm
                 jDivNext   0x016f9c    program     static E:\c18v3.46\pic18-lt\cxx-framework\src\extended\math\divFP.asm
                   __gtFP   0x016fc2    program     extern E:\c18v3.46\pic18-lt\cxx-framework\src\extended\math\gtFP.asm
              __FpCompare   0x016fd4    program     extern E:\c18v3.46\pic18-lt\cxx-framework\src\extended\math\compFP.asm
             jBothNotZero   0x017006    program     static E:\c18v3.46\pic18-lt\cxx-framework\src\extended\math\compFP.asm
                 jSignsEQ   0x01700a    program     static E:\c18v3.46\pic18-lt\cxx-framework\src\extended\math\compFP.asm
                      jEQ   0x017022    program     static E:\c18v3.46\pic18-lt\cxx-framework\src\extended\math\compFP.asm
                      jNE   0x017026    program     static E:\c18v3.46\pic18-lt\cxx-framework\src\extended\math\compFP.asm
                    jExch   0x01702e    program     static E:\c18v3.46\pic18-lt\cxx-framework\src\extended\math\compFP.asm
                  jNoExch   0x01704e    program     static E:\c18v3.46\pic18-lt\cxx-framework\src\extended\math\compFP.asm
                   jFinal   0x017058    program     static E:\c18v3.46\pic18-lt\cxx-framework\src\extended\math\compFP.asm
                  jAisNeg   0x017064    program     static E:\c18v3.46\pic18-lt\cxx-framework\src\extended\math\compFP.asm
                   jShift   0x01706a    program     static E:\c18v3.46\pic18-lt\cxx-framework\src\extended\math\compFP.asm
                   jExpEQ   0x017074    program     static E:\c18v3.46\pic18-lt\cxx-framework\src\extended\math\compFP.asm
                  jRotate   0x017080    program     static E:\c18v3.46\pic18-lt\cxx-framework\src\extended\math\compFP.asm
                    jExit   0x017092    program     static E:\c18v3.46\pic18-lt\cxx-framework\src\extended\math\compFP.asm
                   __ltFP   0x0170a2    program     extern E:\c18v3.46\pic18-lt\cxx-framework\src\extended\math\ltFP.asm
                  __mul16   0x0170b4    program     extern E:\c18v3.46\pic18-lt\cxx-framework\src\extended\math\mul16.asm
                  __mul24   0x01711c    program     extern E:\c18v3.46\pic18-lt\cxx-framework\src\extended\math\mul24.asm
                  __mul32   0x0171dc    program     extern E:\c18v3.46\pic18-lt\cxx-framework\src\extended\math\mul32.asm
                  __mulFP   0x01727e    program     extern E:\c18v3.46\pic18-lt\cxx-framework\src\extended\math\mulFP.asm
                 jANotInf   0x0172b0    program     static E:\c18v3.46\pic18-lt\cxx-framework\src\extended\math\mulFP.asm
              jBothFinite   0x0172be    program     static E:\c18v3.46\pic18-lt\cxx-framework\src\extended\math\mulFP.asm
                jHaveZero   0x0172c6    program     static E:\c18v3.46\pic18-lt\cxx-framework\src\extended\math\mulFP.asm
             jBothNotZero   0x0172ca    program     static E:\c18v3.46\pic18-lt\cxx-framework\src\extended\math\mulFP.asm
                   __eqFP   0x01736c    program     extern E:\c18v3.46\pic18-lt\cxx-framework\src\extended\math\eqFP.asm
                   isleap   0x01737a    program     extern L:\solarpic_rewrite\swm8722\solar18f8722\timelib.c
                   mktime   0x0173e2    program     extern L:\solarpic_rewrite\swm8722\solar18f8722\timelib.c
                  offtime   0x017566    program     extern L:\solarpic_rewrite\swm8722\solar18f8722\timelib.c
                  asctime   0x0177c0    program     extern L:\solarpic_rewrite\swm8722\solar18f8722\timelib.c
                   __pa_0   0x01799e    program     static L:\solarpic_rewrite\swm8722\solar18f8722\timelib.c
                   __pa_1   0x0179a4    program     static L:\solarpic_rewrite\swm8722\solar18f8722\timelib.c
                   __pa_2   0x0179aa    program     static L:\solarpic_rewrite\swm8722\solar18f8722\timelib.c
                   __pa_3   0x0179b2    program     static L:\solarpic_rewrite\swm8722\solar18f8722\timelib.c
                   __pa_4   0x0179ea    program     static L:\solarpic_rewrite\swm8722\solar18f8722\timelib.c
                   __pa_5   0x0179fe    program     static L:\solarpic_rewrite\swm8722\solar18f8722\timelib.c
                   __pa_6   0x017a04    program     static L:\solarpic_rewrite\swm8722\solar18f8722\timelib.c
                   __pa_7   0x017a16    program     static L:\solarpic_rewrite\swm8722\solar18f8722\timelib.c
                   __pa_8   0x017a2c    program     static L:\solarpic_rewrite\swm8722\solar18f8722\timelib.c
                   __pa_9   0x017a60    program     static L:\solarpic_rewrite\swm8722\solar18f8722\timelib.c
                  __pa_10   0x017a76    program     static L:\solarpic_rewrite\swm8722\solar18f8722\timelib.c
                  __pa_11   0x017a8a    program     static L:\solarpic_rewrite\swm8722\solar18f8722\timelib.c
                  __pa_12   0x017aa8    program     static L:\solarpic_rewrite\swm8722\solar18f8722\timelib.c
                  __pa_13   0x017abc    program     static L:\solarpic_rewrite\swm8722\solar18f8722\timelib.c
                  __pa_14   0x017adc    program     static L:\solarpic_rewrite\swm8722\solar18f8722\timelib.c
                  __pa_15   0x017ae8    program     static L:\solarpic_rewrite\swm8722\solar18f8722\timelib.c
                  __pa_16   0x017b06    program     static L:\solarpic_rewrite\swm8722\solar18f8722\timelib.c
                  __pa_17   0x017b10    program     static L:\solarpic_rewrite\swm8722\solar18f8722\timelib.c
                  __pa_18   0x017b1a    program     static L:\solarpic_rewrite\swm8722\solar18f8722\timelib.c
                  __pa_19   0x017b2c    program     static L:\solarpic_rewrite\swm8722\solar18f8722\timelib.c
                  __pa_20   0x017b36    program     static L:\solarpic_rewrite\swm8722\solar18f8722\timelib.c
                  __pa_21   0x017b40    program     static L:\solarpic_rewrite\swm8722\solar18f8722\timelib.c
                  __pa_22   0x017b50    program     static L:\solarpic_rewrite\swm8722\solar18f8722\timelib.c
                  __pa_23   0x017b5c    program     static L:\solarpic_rewrite\swm8722\solar18f8722\timelib.c
                  __pa_24   0x017b62    program     static L:\solarpic_rewrite\swm8722\solar18f8722\timelib.c
                  __pa_25   0x017b74    program     static L:\solarpic_rewrite\swm8722\solar18f8722\timelib.c
                  __pa_26   0x017b7c    program     static L:\solarpic_rewrite\swm8722\solar18f8722\timelib.c
                  __pa_27   0x017b8e    program     static L:\solarpic_rewrite\swm8722\solar18f8722\timelib.c
                  __pa_28   0x017b9a    program     static L:\solarpic_rewrite\swm8722\solar18f8722\timelib.c
                  __pa_29   0x017ba4    program     static L:\solarpic_rewrite\swm8722\solar18f8722\timelib.c
                  __pa_30   0x017bae    program     static L:\solarpic_rewrite\swm8722\solar18f8722\timelib.c
                  __pa_31   0x017bb8    program     static L:\solarpic_rewrite\swm8722\solar18f8722\timelib.c
                  __pa_32   0x017bbe    program     static L:\solarpic_rewrite\swm8722\solar18f8722\timelib.c
                  __pa_33   0x017bc8    program     static L:\solarpic_rewrite\swm8722\solar18f8722\timelib.c
                  __pa_34   0x017bf0    program     static L:\solarpic_rewrite\swm8722\solar18f8722\timelib.c
                  __pa_35   0x017c02    program     static L:\solarpic_rewrite\swm8722\solar18f8722\timelib.c
                  __pa_36   0x017c0c    program     static L:\solarpic_rewrite\swm8722\solar18f8722\timelib.c
                  __pa_37   0x017c16    program     static L:\solarpic_rewrite\swm8722\solar18f8722\timelib.c
                  __pa_38   0x017c1e    program     static L:\solarpic_rewrite\swm8722\solar18f8722\timelib.c
                  __pa_39   0x017c2e    program     static L:\solarpic_rewrite\swm8722\solar18f8722\timelib.c
                  __pa_40   0x017c40    program     static L:\solarpic_rewrite\swm8722\solar18f8722\timelib.c
                  __pa_41   0x017c4e    program     static L:\solarpic_rewrite\swm8722\solar18f8722\timelib.c
                  __pa_42   0x017c54    program     static L:\solarpic_rewrite\swm8722\solar18f8722\timelib.c
                  __pa_43   0x017c66    program     static L:\solarpic_rewrite\swm8722\solar18f8722\timelib.c
                  __pa_44   0x017c72    program     static L:\solarpic_rewrite\swm8722\solar18f8722\timelib.c
                  __pa_45   0x017c7e    program     static L:\solarpic_rewrite\swm8722\solar18f8722\timelib.c
                  __pa_46   0x017c86    program     static L:\solarpic_rewrite\swm8722\solar18f8722\timelib.c
                  __pa_47   0x017c94    program     static L:\solarpic_rewrite\swm8722\solar18f8722\timelib.c
                  __pa_48   0x017ca4    program     static L:\solarpic_rewrite\swm8722\solar18f8722\timelib.c
                  __pa_49   0x017cac    program     static L:\solarpic_rewrite\swm8722\solar18f8722\timelib.c
                  __pa_50   0x017cba    program     static L:\solarpic_rewrite\swm8722\solar18f8722\timelib.c
                  __pa_51   0x017cc4    program     static L:\solarpic_rewrite\swm8722\solar18f8722\timelib.c
                  __pa_52   0x017cd0    program     static L:\solarpic_rewrite\swm8722\solar18f8722\timelib.c
                  __pa_53   0x017cda    program     static L:\solarpic_rewrite\swm8722\solar18f8722\timelib.c
                  __pa_54   0x017ce2    program     static L:\solarpic_rewrite\swm8722\solar18f8722\timelib.c
                  __pa_55   0x017cee    program     static L:\solarpic_rewrite\swm8722\solar18f8722\timelib.c
            s_put_n_chars   0x017cf8    program     static E:\c18v3.46\pic18-lt\cxx-framework\src\extended\stdclib\vfprintf.c
                 vfprintf   0x017d2a    program     extern E:\c18v3.46\pic18-lt\cxx-framework\src\extended\stdclib\vfprintf.c
                   __pa_0   0x0183ba    program     static E:\c18v3.46\pic18-lt\cxx-framework\src\extended\stdclib\vfprintf.c
                   __pa_1   0x0183c8    program     static E:\c18v3.46\pic18-lt\cxx-framework\src\extended\stdclib\vfprintf.c
                   __pa_2   0x0183d8    program     static E:\c18v3.46\pic18-lt\cxx-framework\src\extended\stdclib\vfprintf.c
                   __pa_3   0x0183e4    program     static E:\c18v3.46\pic18-lt\cxx-framework\src\extended\stdclib\vfprintf.c
                   __pa_4   0x0183f8    program     static E:\c18v3.46\pic18-lt\cxx-framework\src\extended\stdclib\vfprintf.c
                   __pa_5   0x01840a    program     static E:\c18v3.46\pic18-lt\cxx-framework\src\extended\stdclib\vfprintf.c
                   __pa_6   0x01841a    program     static E:\c18v3.46\pic18-lt\cxx-framework\src\extended\stdclib\vfprintf.c
                   __pa_7   0x01842c    program     static E:\c18v3.46\pic18-lt\cxx-framework\src\extended\stdclib\vfprintf.c
                   __pa_8   0x018438    program     static E:\c18v3.46\pic18-lt\cxx-framework\src\extended\stdclib\vfprintf.c
                   __pa_9   0x01844a    program     static E:\c18v3.46\pic18-lt\cxx-framework\src\extended\stdclib\vfprintf.c
                  __pa_10   0x018456    program     static E:\c18v3.46\pic18-lt\cxx-framework\src\extended\stdclib\vfprintf.c
                  __pa_11   0x018466    program     static E:\c18v3.46\pic18-lt\cxx-framework\src\extended\stdclib\vfprintf.c
                  __pa_12   0x018476    program     static E:\c18v3.46\pic18-lt\cxx-framework\src\extended\stdclib\vfprintf.c
                  __pa_13   0x018484    program     static E:\c18v3.46\pic18-lt\cxx-framework\src\extended\stdclib\vfprintf.c
                  __pa_14   0x0184a2    program     static E:\c18v3.46\pic18-lt\cxx-framework\src\extended\stdclib\vfprintf.c
                  __pa_15   0x0184ac    program     static E:\c18v3.46\pic18-lt\cxx-framework\src\extended\stdclib\vfprintf.c
                  __pa_16   0x0184b2    program     static E:\c18v3.46\pic18-lt\cxx-framework\src\extended\stdclib\vfprintf.c
                  __pa_17   0x0184c2    program     static E:\c18v3.46\pic18-lt\cxx-framework\src\extended\stdclib\vfprintf.c
                  __pa_18   0x0184ce    program     static E:\c18v3.46\pic18-lt\cxx-framework\src\extended\stdclib\vfprintf.c
                  __pa_19   0x0184dc    program     static E:\c18v3.46\pic18-lt\cxx-framework\src\extended\stdclib\vfprintf.c
                  __pa_20   0x0184e6    program     static E:\c18v3.46\pic18-lt\cxx-framework\src\extended\stdclib\vfprintf.c
                  __pa_21   0x0184f0    program     static E:\c18v3.46\pic18-lt\cxx-framework\src\extended\stdclib\vfprintf.c
                  __pa_22   0x0184fa    program     static E:\c18v3.46\pic18-lt\cxx-framework\src\extended\stdclib\vfprintf.c
                  __pa_23   0x018508    program     static E:\c18v3.46\pic18-lt\cxx-framework\src\extended\stdclib\vfprintf.c
                      pow   0x01850e    program     extern E:\c18v3.46\pic18-lt\cxx-framework\src\extended\stdclib\pow.c
                   __pa_0   0x018a2c    program     static E:\c18v3.46\pic18-lt\cxx-framework\src\extended\stdclib\pow.c
                   __pa_1   0x018a34    program     static E:\c18v3.46\pic18-lt\cxx-framework\src\extended\stdclib\pow.c
                   __pa_2   0x018a46    program     static E:\c18v3.46\pic18-lt\cxx-framework\src\extended\stdclib\pow.c
                   __pa_3   0x018a58    program     static E:\c18v3.46\pic18-lt\cxx-framework\src\extended\stdclib\pow.c
                   __pa_4   0x018a6a    program     static E:\c18v3.46\pic18-lt\cxx-framework\src\extended\stdclib\pow.c
                   __pa_5   0x018a7c    program     static E:\c18v3.46\pic18-lt\cxx-framework\src\extended\stdclib\pow.c
                   __pa_6   0x018a8a    program     static E:\c18v3.46\pic18-lt\cxx-framework\src\extended\stdclib\pow.c
                   __pa_7   0x018a9c    program     static E:\c18v3.46\pic18-lt\cxx-framework\src\extended\stdclib\pow.c
                   __pa_8   0x018ab0    program     static E:\c18v3.46\pic18-lt\cxx-framework\src\extended\stdclib\pow.c
                   __pa_9   0x018ac0    program     static E:\c18v3.46\pic18-lt\cxx-framework\src\extended\stdclib\pow.c
                  __pa_10   0x018ad2    program     static E:\c18v3.46\pic18-lt\cxx-framework\src\extended\stdclib\pow.c
                  __pa_11   0x018adc    program     static E:\c18v3.46\pic18-lt\cxx-framework\src\extended\stdclib\pow.c
                  __pa_12   0x018aea    program     static E:\c18v3.46\pic18-lt\cxx-framework\src\extended\stdclib\pow.c
                  __pa_13   0x018af4    program     static E:\c18v3.46\pic18-lt\cxx-framework\src\extended\stdclib\pow.c
                  __pa_14   0x018b06    program     static E:\c18v3.46\pic18-lt\cxx-framework\src\extended\stdclib\pow.c
                  __pa_15   0x018b18    program     static E:\c18v3.46\pic18-lt\cxx-framework\src\extended\stdclib\pow.c
                  __pa_16   0x018b2a    program     static E:\c18v3.46\pic18-lt\cxx-framework\src\extended\stdclib\pow.c
                  __pa_17   0x018b3c    program     static E:\c18v3.46\pic18-lt\cxx-framework\src\extended\stdclib\pow.c
                  __pa_18   0x018b48    program     static E:\c18v3.46\pic18-lt\cxx-framework\src\extended\stdclib\pow.c
                  __pa_19   0x018b5e    program     static E:\c18v3.46\pic18-lt\cxx-framework\src\extended\stdclib\pow.c
                  __pa_20   0x018b68    program     static E:\c18v3.46\pic18-lt\cxx-framework\src\extended\stdclib\pow.c
                  __pa_21   0x018b7c    program     static E:\c18v3.46\pic18-lt\cxx-framework\src\extended\stdclib\pow.c
                  __pa_22   0x018b86    program     static E:\c18v3.46\pic18-lt\cxx-framework\src\extended\stdclib\pow.c
                  __pa_23   0x018b90    program     static E:\c18v3.46\pic18-lt\cxx-framework\src\extended\stdclib\pow.c
                  __pa_24   0x018b98    program     static E:\c18v3.46\pic18-lt\cxx-framework\src\extended\stdclib\pow.c
              model_learn   0x018b9e    program     extern L:\solarpic_rewrite\swm8722\solar18f8722\model.c
               model_data   0x018d14    program     extern L:\solarpic_rewrite\swm8722\solar18f8722\model.c
          ___for_lbl00016   0x018d5a    program     static                          
          ___for_lbl00015   0x018d68    program     static                          
          ___for_lbl00013   0x018fd6    program     static                          
          ___for_lbl00014   0x018fdc    program     static                          
          ___for_lbl00011   0x018fee    program     static                          
          ___for_lbl00012   0x018ff4    program     static                          
       ___return_lbl00010   0x018ff4    program     static                          
                   __pa_0   0x018ff6    program     static L:\solarpic_rewrite\swm8722\solar18f8722\model.c
                   __pa_1   0x018ffa    program     static L:\solarpic_rewrite\swm8722\solar18f8722\model.c
                   __pa_2   0x01900c    program     static L:\solarpic_rewrite\swm8722\solar18f8722\model.c
                   __pa_3   0x01901a    program     static L:\solarpic_rewrite\swm8722\solar18f8722\model.c
                   __pa_4   0x01902a    program     static L:\solarpic_rewrite\swm8722\solar18f8722\model.c
                   __pa_5   0x019032    program     static L:\solarpic_rewrite\swm8722\solar18f8722\model.c
                   __pa_6   0x019042    program     static L:\solarpic_rewrite\swm8722\solar18f8722\model.c
                   __pa_7   0x019048    program     static L:\solarpic_rewrite\swm8722\solar18f8722\model.c
                   __pa_8   0x019056    program     static L:\solarpic_rewrite\swm8722\solar18f8722\model.c
                   __pa_9   0x019062    program     static L:\solarpic_rewrite\swm8722\solar18f8722\model.c
                  __pa_10   0x01906e    program     static L:\solarpic_rewrite\swm8722\solar18f8722\model.c
                  __pa_11   0x01907a    program     static L:\solarpic_rewrite\swm8722\solar18f8722\model.c
                  __pa_12   0x019084    program     static L:\solarpic_rewrite\swm8722\solar18f8722\model.c
                      exp   0x01908e    program     extern E:\c18v3.46\pic18-lt\cxx-framework\src\extended\stdclib\exp.c
                   __pa_0   0x0192fa    program     static E:\c18v3.46\pic18-lt\cxx-framework\src\extended\stdclib\exp.c
                   __pa_1   0x019312    program     static E:\c18v3.46\pic18-lt\cxx-framework\src\extended\stdclib\exp.c
                   __pa_2   0x019324    program     static E:\c18v3.46\pic18-lt\cxx-framework\src\extended\stdclib\exp.c
                   __pa_3   0x019336    program     static E:\c18v3.46\pic18-lt\cxx-framework\src\extended\stdclib\exp.c
                   __pa_4   0x019348    program     static E:\c18v3.46\pic18-lt\cxx-framework\src\extended\stdclib\exp.c
                   __pa_5   0x019362    program     static E:\c18v3.46\pic18-lt\cxx-framework\src\extended\stdclib\exp.c
                   __pa_6   0x01936e    program     static E:\c18v3.46\pic18-lt\cxx-framework\src\extended\stdclib\exp.c
                   __pa_7   0x019382    program     static E:\c18v3.46\pic18-lt\cxx-framework\src\extended\stdclib\exp.c
                   __pa_8   0x019394    program     static E:\c18v3.46\pic18-lt\cxx-framework\src\extended\stdclib\exp.c
                   __pa_9   0x0193a6    program     static E:\c18v3.46\pic18-lt\cxx-framework\src\extended\stdclib\exp.c
                  __pa_10   0x0193b6    program     static E:\c18v3.46\pic18-lt\cxx-framework\src\extended\stdclib\exp.c
                  __pa_11   0x0193c4    program     static E:\c18v3.46\pic18-lt\cxx-framework\src\extended\stdclib\exp.c
               crc8_table   0x0193cc    program     extern L:\solarpic_rewrite\swm8722\solar18f8722\crc8_fast.c
                 crc16tab   0x0194cc    program     extern L:\solarpic_rewrite\swm8722\solar18f8722\crc8_fast.c
                      log   0x0196cc    program     extern E:\c18v3.46\pic18-lt\cxx-framework\src\extended\stdclib\log.c
                   __pa_0   0x0198bc    program     static E:\c18v3.46\pic18-lt\cxx-framework\src\extended\stdclib\log.c
                   __pa_1   0x0198d4    program     static E:\c18v3.46\pic18-lt\cxx-framework\src\extended\stdclib\log.c
                   __pa_2   0x0198e8    program     static E:\c18v3.46\pic18-lt\cxx-framework\src\extended\stdclib\log.c
                   __pa_3   0x0198fa    program     static E:\c18v3.46\pic18-lt\cxx-framework\src\extended\stdclib\log.c
                   __pa_4   0x019910    program     static E:\c18v3.46\pic18-lt\cxx-framework\src\extended\stdclib\log.c
                   __pa_5   0x019922    program     static E:\c18v3.46\pic18-lt\cxx-framework\src\extended\stdclib\log.c
                   __pa_6   0x019934    program     static E:\c18v3.46\pic18-lt\cxx-framework\src\extended\stdclib\log.c
                   __pa_7   0x01993c    program     static E:\c18v3.46\pic18-lt\cxx-framework\src\extended\stdclib\log.c
                   __pa_8   0x019948    program     static E:\c18v3.46\pic18-lt\cxx-framework\src\extended\stdclib\log.c
                   __pa_9   0x019950    program     static E:\c18v3.46\pic18-lt\cxx-framework\src\extended\stdclib\log.c
                  __pa_10   0x019968    program     static E:\c18v3.46\pic18-lt\cxx-framework\src\extended\stdclib\log.c
                  __pa_11   0x019976    program     static E:\c18v3.46\pic18-lt\cxx-framework\src\extended\stdclib\log.c
                   memcpy   0x019980    program     extern E:\c18v3.46\pic18-lt\cxx-framework\src\extended\stdclib\memcpy.asm
                    jLoop   0x0199a8    program     static E:\c18v3.46\pic18-lt\cxx-framework\src\extended\stdclib\memcpy.asm
              _4jContinue   0x0199b4    program     static E:\c18v3.46\pic18-lt\cxx-framework\src\extended\stdclib\memcpy.asm
                   _5jEnd   0x0199be    program     static E:\c18v3.46\pic18-lt\cxx-framework\src\extended\stdclib\memcpy.asm
                     jEnd   0x0199c4    program     static E:\c18v3.46\pic18-lt\cxx-framework\src\extended\stdclib\memcpy.asm
            memcpypgm2ram   0x0199d6    program     extern E:\c18v3.46\pic18-lt\cxx-framework\src\extended\stdclib\mcpyp2r.asm
                    jLoop   0x0199fc    program     static E:\c18v3.46\pic18-lt\cxx-framework\src\extended\stdclib\mcpyp2r.asm
              _3jContinue   0x019a08    program     static E:\c18v3.46\pic18-lt\cxx-framework\src\extended\stdclib\mcpyp2r.asm
                   _4jEnd   0x019a12    program     static E:\c18v3.46\pic18-lt\cxx-framework\src\extended\stdclib\mcpyp2r.asm
                     jEnd   0x019a1a    program     static E:\c18v3.46\pic18-lt\cxx-framework\src\extended\stdclib\mcpyp2r.asm
                   memset   0x019a1c    program     extern E:\c18v3.46\pic18-lt\cxx-framework\src\extended\stdclib\memset.asm
                    jLoop   0x019a30    program     static E:\c18v3.46\pic18-lt\cxx-framework\src\extended\stdclib\memset.asm
              _2jContinue   0x019a3c    program     static E:\c18v3.46\pic18-lt\cxx-framework\src\extended\stdclib\memset.asm
                   _3jEnd   0x019a46    program     static E:\c18v3.46\pic18-lt\cxx-framework\src\extended\stdclib\memset.asm
                     jEnd   0x019a4e    program     static E:\c18v3.46\pic18-lt\cxx-framework\src\extended\stdclib\memset.asm
            strcatpgm2ram   0x019a50    program     extern E:\c18v3.46\pic18-lt\cxx-framework\src\extended\stdclib\scatp2r.asm
                jNullLoop   0x019a76    program     static E:\c18v3.46\pic18-lt\cxx-framework\src\extended\stdclib\scatp2r.asm
                    jLoop   0x019a7c    program     static E:\c18v3.46\pic18-lt\cxx-framework\src\extended\stdclib\scatp2r.asm
                     jEnd   0x019a86    program     static E:\c18v3.46\pic18-lt\cxx-framework\src\extended\stdclib\scatp2r.asm
            strcpypgm2ram   0x019a88    program     extern E:\c18v3.46\pic18-lt\cxx-framework\src\extended\stdclib\scpyp2r.asm
                    jLoop   0x019aae    program     static E:\c18v3.46\pic18-lt\cxx-framework\src\extended\stdclib\scpyp2r.asm
                     jEnd   0x019ab8    program     static E:\c18v3.46\pic18-lt\cxx-framework\src\extended\stdclib\scpyp2r.asm
                   strlen   0x019aba    program     extern E:\c18v3.46\pic18-lt\cxx-framework\src\extended\stdclib\strlen.asm
                    jLoop   0x019aca    program     static E:\c18v3.46\pic18-lt\cxx-framework\src\extended\stdclib\strlen.asm
                     jEnd   0x019ad4    program     static E:\c18v3.46\pic18-lt\cxx-framework\src\extended\stdclib\strlen.asm
                  strncpy   0x019ad6    program     extern E:\c18v3.46\pic18-lt\cxx-framework\src\extended\stdclib\strncpy.asm
                    jLoop   0x019afe    program     static E:\c18v3.46\pic18-lt\cxx-framework\src\extended\stdclib\strncpy.asm
              _4jContinue   0x019b0a    program     static E:\c18v3.46\pic18-lt\cxx-framework\src\extended\stdclib\strncpy.asm
                   _5jEnd   0x019b14    program     static E:\c18v3.46\pic18-lt\cxx-framework\src\extended\stdclib\strncpy.asm
                     jEnd   0x019b20    program     static E:\c18v3.46\pic18-lt\cxx-framework\src\extended\stdclib\strncpy.asm
           strncpypgm2ram   0x019b32    program     extern E:\c18v3.46\pic18-lt\cxx-framework\src\extended\stdclib\sncpyp2r.asm
                    jLoop   0x019b58    program     static E:\c18v3.46\pic18-lt\cxx-framework\src\extended\stdclib\sncpyp2r.asm
              _3jContinue   0x019b64    program     static E:\c18v3.46\pic18-lt\cxx-framework\src\extended\stdclib\sncpyp2r.asm
                   _4jEnd   0x019b6e    program     static E:\c18v3.46\pic18-lt\cxx-framework\src\extended\stdclib\sncpyp2r.asm
                     jEnd   0x019b7c    program     static E:\c18v3.46\pic18-lt\cxx-framework\src\extended\stdclib\sncpyp2r.asm
                strlenpgm   0x019b7e    program     extern E:\c18v3.46\pic18-lt\cxx-framework\src\extended\stdclib\slenpgm.asm
                    jLoop   0x019b9c    program     static E:\c18v3.46\pic18-lt\cxx-framework\src\extended\stdclib\slenpgm.asm
                   _2jEnd   0x019bb2    program     static E:\c18v3.46\pic18-lt\cxx-framework\src\extended\stdclib\slenpgm.asm
                     jEnd   0x019bb4    program     static E:\c18v3.46\pic18-lt\cxx-framework\src\extended\stdclib\slenpgm.asm
                   s_crit   0x019bc8    program     extern L:\solarpic_rewrite\swm8722\solar18f8722\crit.c
           ___if_lbl00001   0x019bf6    program     static                          
           ___if_lbl00002   0x019c18    program     static                          
           ___if_lbl00003   0x019c38    program     static                          
           ___if_lbl00004   0x019c60    program     static                          
       ___return_lbl00000   0x019c6c    program     static                          
           ___if_lbl00005   0x019c6c    program     static                          
                   e_crit   0x019c74    program     extern L:\solarpic_rewrite\swm8722\solar18f8722\crit.c
           ___if_lbl00007   0x019caa    program     static                          
           ___if_lbl00008   0x019ce4    program     static                          
           ___if_lbl00009   0x019cf0    program     static                          
         ___else_lbl00011   0x019d22    program     static                          
           ___if_lbl00010   0x019d2a    program     static                          
       ___return_lbl00006   0x019d2a    program     static                          
               clear_crit   0x019d2c    program     extern L:\solarpic_rewrite\swm8722\solar18f8722\crit.c
        write_data_eeprom   0x019d3c    program     extern L:\solarpic_rewrite\swm8722\solar18f8722\crit.c
         read_data_eeprom   0x019d9a    program     extern L:\solarpic_rewrite\swm8722\solar18f8722\crit.c
                   __pa_0   0x019dc4    program     static L:\solarpic_rewrite\swm8722\solar18f8722\crit.c
                   __pa_1   0x019dd0    program     static L:\solarpic_rewrite\swm8722\solar18f8722\crit.c
                   __pa_2   0x019dde    program     static L:\solarpic_rewrite\swm8722\solar18f8722\crit.c
               config_pic   0x019de8    program     extern L:\solarpic_rewrite\swm8722\solar18f8722\hwconf.c
           ___if_lbl00001   0x019e0c    program     static                          
               __tmplbl_1   0x019e12    program     static                          
               __tmplbl_0   0x019e18    program     static                          
           ___if_lbl00003   0x019e1e    program     static                          
        ___while_lbl00004   0x019eb4    program     static                          
        ___while_lbl00006   0x019ec2    program     static                          
        ___while_lbl00005   0x019ec2    program     static                          
        ___while_lbl00007   0x019ed0    program     static                          
           ___if_lbl00008   0x019f8c    program     static                          
       ___return_lbl00000   0x019f8c    program     static                          
                start_pic   0x019f94    program     extern L:\solarpic_rewrite\swm8722\solar18f8722\hwconf.c
       start_workerthread   0x019fbe    program     extern L:\solarpic_rewrite\swm8722\solar18f8722\hwconf.c
                   _fchop   0x019fc2    program     extern E:\c18v3.46\pic18-lt\cxx-framework\src\extended\stdclib\fchop.c
                   __pa_0   0x01a17c    program     static E:\c18v3.46\pic18-lt\cxx-framework\src\extended\stdclib\fchop.c
                   __pa_1   0x01a18a    program     static E:\c18v3.46\pic18-lt\cxx-framework\src\extended\stdclib\fchop.c
           crc8_calculate   0x01a198    program     extern L:\solarpic_rewrite\swm8722\solar18f8722\crc8_fast.c
                    crc16   0x01a208    program     extern L:\solarpic_rewrite\swm8722\solar18f8722\crc8_fast.c
              crc16_ccitt   0x01a28a    program     extern L:\solarpic_rewrite\swm8722\solar18f8722\crc8_fast.c
                   __pa_0   0x01a344    program     static L:\solarpic_rewrite\swm8722\solar18f8722\crc8_fast.c
                     itoa   0x01a34e    program     extern E:\c18v3.46\pic18-lt\cxx-framework\src\extended\stdclib\itoa.asm
                jTstSign1   0x01a37a    program     static E:\c18v3.46\pic18-lt\cxx-framework\src\extended\stdclib\itoa.asm
                     jDo5   0x01a3c4    program     static E:\c18v3.46\pic18-lt\cxx-framework\src\extended\stdclib\itoa.asm
                     jDo4   0x01a3c8    program     static E:\c18v3.46\pic18-lt\cxx-framework\src\extended\stdclib\itoa.asm
                     jDo3   0x01a3cc    program     static E:\c18v3.46\pic18-lt\cxx-framework\src\extended\stdclib\itoa.asm
                     jDo2   0x01a3d0    program     static E:\c18v3.46\pic18-lt\cxx-framework\src\extended\stdclib\itoa.asm
                     jDo1   0x01a3d4    program     static E:\c18v3.46\pic18-lt\cxx-framework\src\extended\stdclib\itoa.asm
                 TstUpper   0x01a408    program     static E:\c18v3.46\pic18-lt\cxx-framework\src\extended\stdclib\itoa.asm
                 TstLower   0x01a40e    program     static E:\c18v3.46\pic18-lt\cxx-framework\src\extended\stdclib\itoa.asm
                jTstLowZ1   0x01a418    program     static E:\c18v3.46\pic18-lt\cxx-framework\src\extended\stdclib\itoa.asm
                ProcUpper   0x01a41a    program     static E:\c18v3.46\pic18-lt\cxx-framework\src\extended\stdclib\itoa.asm
                ProcLower   0x01a424    program     static E:\c18v3.46\pic18-lt\cxx-framework\src\extended\stdclib\itoa.asm
                   itoBCD   0x01a42e    program     extern E:\c18v3.46\pic18-lt\cxx-framework\src\extended\stdclib\itobcd.asm
                    jLoop   0x01a446    program     static E:\c18v3.46\pic18-lt\cxx-framework\src\extended\stdclib\itobcd.asm
                     jEnd   0x01a46c    program     static E:\c18v3.46\pic18-lt\cxx-framework\src\extended\stdclib\itobcd.asm
                  OneByte   0x01a470    program     static E:\c18v3.46\pic18-lt\cxx-framework\src\extended\stdclib\itobcd.asm
                    srand   0x01a482    program     extern E:\c18v3.46\pic18-lt\cxx-framework\src\extended\stdclib\rand.asm
                     rand   0x01a490    program     extern E:\c18v3.46\pic18-lt\cxx-framework\src\extended\stdclib\rand.asm
                _PackMath   0x01a4c2    program     extern E:\c18v3.46\pic18-lt\cxx-framework\src\extended\stdclib\PackMath.c
                   __pa_0   0x01a58e    program     static E:\c18v3.46\pic18-lt\cxx-framework\src\extended\stdclib\PackMath.c
                   __pa_1   0x01a59e    program     static E:\c18v3.46\pic18-lt\cxx-framework\src\extended\stdclib\PackMath.c
                   __pa_2   0x01a5a8    program     static E:\c18v3.46\pic18-lt\cxx-framework\src\extended\stdclib\PackMath.c
                   __pa_3   0x01a5b2    program     static E:\c18v3.46\pic18-lt\cxx-framework\src\extended\stdclib\PackMath.c
                   __pa_4   0x01a5ba    program     static E:\c18v3.46\pic18-lt\cxx-framework\src\extended\stdclib\PackMath.c
                   __pa_5   0x01a5c2    program     static E:\c18v3.46\pic18-lt\cxx-framework\src\extended\stdclib\PackMath.c
                   __pa_6   0x01a5ce    program     static E:\c18v3.46\pic18-lt\cxx-framework\src\extended\stdclib\PackMath.c
                _UnpkMath   0x01a5d8    program     extern E:\c18v3.46\pic18-lt\cxx-framework\src\extended\stdclib\UnpkMath.c
                   __pa_0   0x01a6b4    program     static E:\c18v3.46\pic18-lt\cxx-framework\src\extended\stdclib\UnpkMath.c
                    ldexp   0x01a6be    program     extern E:\c18v3.46\pic18-lt\cxx-framework\src\extended\stdclib\ldexp.c
                   __pa_0   0x01a76c    program     static E:\c18v3.46\pic18-lt\cxx-framework\src\extended\stdclib\ldexp.c
                    frexp   0x01a77a    program     extern E:\c18v3.46\pic18-lt\cxx-framework\src\extended\stdclib\frexp.c
                   __pa_0   0x01a820    program     static E:\c18v3.46\pic18-lt\cxx-framework\src\extended\stdclib\frexp.c
                _do_cinit   0x01a82e    program     extern E:\c18v3.46\pic18-lt\cxx-framework\src\extended\startup\c018iz_e.c
                     test   0x01a848    program     static                          
                copy_loop   0x01a8a0    program     static                          
            copy_one_byte   0x01a8a6    program     static                          
             done_copying   0x01a8b4    program     static                          
       ___return_lbl00002   0x01a8ca    program     static                          
                     done   0x01a8ca    program     static                          
                 OpenXLCD   0x01a8cc    program     extern L:\solarpic_rewrite\swm8722\solar18f8722\xlcd\openxlcd.c
                   __pa_0   0x01a954    program     static L:\solarpic_rewrite\swm8722\solar18f8722\xlcd\openxlcd.c
                   __pa_1   0x01a95e    program     static L:\solarpic_rewrite\swm8722\solar18f8722\xlcd\openxlcd.c
               Open2USART   0x01a966    program     extern E:\c18v3.46\pic18-lt\cxx-framework\src\pmc_common\USART\u2open.c
               Open1USART   0x01a9ea    program     extern E:\c18v3.46\pic18-lt\cxx-framework\src\pmc_common\USART\u1open.c
                  sprintf   0x01aa64    program     extern E:\c18v3.46\pic18-lt\cxx-framework\src\extended\stdclib\sprintf.c
                     putc   0x01aad6    program     extern E:\c18v3.46\pic18-lt\cxx-framework\src\extended\stdclib\putc.c
              Write_b_eep   0x01ab3c    program     extern E:\c18v3.46\pic18-lt\cxx-framework\src\pmc_common\EEP\write_B.c
                  OpenADC   0x01aba0    program     extern E:\c18v3.46\pic18-lt\cxx-framework\src\pmc_common\ADC\adcopen.c
                 OpenSPI1   0x01ac04    program     extern E:\c18v3.46\pic18-lt\cxx-framework\src\pmc_common\SPI\spi1open.c
              putrs2USART   0x01ac62    program     extern E:\c18v3.46\pic18-lt\cxx-framework\src\pmc_common\USART\u2putrs.c
                     fabs   0x01acbe    program     extern E:\c18v3.46\pic18-lt\cxx-framework\src\extended\stdclib\fabs.c
                putrsXLCD   0x01ad0e    program     extern L:\solarpic_rewrite\swm8722\solar18f8722\xlcd\putrxlcd.c
                   __pa_0   0x01ad4c    program     static L:\solarpic_rewrite\swm8722\solar18f8722\xlcd\putrxlcd.c
                SetDCPWM4   0x01ad5c    program     extern E:\c18v3.46\pic18-lt\cxx-framework\src\pmc_common\PWM\pw4setdc.c
             SetDDRamAddr   0x01ada8    program     extern L:\solarpic_rewrite\swm8722\solar18f8722\xlcd\setddram.c
                   __pa_0   0x01ade2    program     static L:\solarpic_rewrite\swm8722\solar18f8722\xlcd\setddram.c
             SetCGRamAddr   0x01adf0    program     extern L:\solarpic_rewrite\swm8722\solar18f8722\xlcd\setcgram.c
                   __pa_0   0x01ae2a    program     static L:\solarpic_rewrite\swm8722\solar18f8722\xlcd\setcgram.c
               puts2USART   0x01ae38    program     extern E:\c18v3.46\pic18-lt\cxx-framework\src\pmc_common\USART\u2puts.c
            WriteDataXLCD   0x01ae7e    program     extern L:\solarpic_rewrite\swm8722\solar18f8722\xlcd\writdata.c
                   __pa_0   0x01aeb4    program     static L:\solarpic_rewrite\swm8722\solar18f8722\xlcd\writdata.c
             WriteCmdXLCD   0x01aec2    program     extern L:\solarpic_rewrite\swm8722\solar18f8722\xlcd\wcmdxlcd.c
                   __pa_0   0x01aef8    program     static L:\solarpic_rewrite\swm8722\solar18f8722\xlcd\wcmdxlcd.c
             ReadDataXLCD   0x01af06    program     extern L:\solarpic_rewrite\swm8722\solar18f8722\xlcd\readdata.c
             ReadAddrXLCD   0x01af4a    program     extern L:\solarpic_rewrite\swm8722\solar18f8722\xlcd\readaddr.c
               Read_b_eep   0x01af8e    program     extern E:\c18v3.46\pic18-lt\cxx-framework\src\pmc_common\EEP\read_B.c
       ___return_lbl00000   0x01afc4    program     static                          
                 OpenPWM4   0x01afd0    program     extern E:\c18v3.46\pic18-lt\cxx-framework\src\pmc_common\PWM\pw4open.c
               OpenTimer3   0x01b012    program     extern E:\c18v3.46\pic18-lt\cxx-framework\src\pmc_common\Timers\t3open.c
                 putsXLCD   0x01b052    program     extern L:\solarpic_rewrite\swm8722\solar18f8722\xlcd\putsxlcd.c
               Read2USART   0x01b092    program     extern E:\c18v3.46\pic18-lt\cxx-framework\src\pmc_common\USART\u2read.c
               Read1USART   0x01b0d0    program     extern E:\c18v3.46\pic18-lt\cxx-framework\src\pmc_common\USART\u1read.c
                  tformat   0x01b10e    program     extern L:\solarpic_rewrite\swm8722\solar18f8722\timelib.c
               days_month   0x01b132    program     extern L:\solarpic_rewrite\swm8722\solar18f8722\timelib.c
             Delay10KTCYx   0x01b14a    program     extern E:\c18v3.46\pic18-lt\cxx-framework\src\extended\delays\d10ktcyx.asm
                    D10Kx   0x01b156    program     static E:\c18v3.46\pic18-lt\cxx-framework\src\extended\delays\d10ktcyx.asm
                   D10K_1   0x01b15a    program     static E:\c18v3.46\pic18-lt\cxx-framework\src\extended\delays\d10ktcyx.asm
       _D10KTCYXCODE_0014   0x01b15e    program     static E:\c18v3.46\pic18-lt\cxx-framework\src\extended\delays\d10ktcyx.asm
                    D10Kl   0x01b168    program     static E:\c18v3.46\pic18-lt\cxx-framework\src\extended\delays\d10ktcyx.asm
       _D10KTCYXCODE_0022   0x01b16c    program     static E:\c18v3.46\pic18-lt\cxx-framework\src\extended\delays\d10ktcyx.asm
               OpenTimer0   0x01b180    program     extern E:\c18v3.46\pic18-lt\cxx-framework\src\pmc_common\Timers\t0open.c
               OpenTimer4   0x01b1b6    program     extern E:\c18v3.46\pic18-lt\cxx-framework\src\pmc_common\Timers\t4open.c
              WriteTimer3   0x01b1ea    program     extern E:\c18v3.46\pic18-lt\cxx-framework\src\pmc_common\Timers\t3write.c
              WriteTimer0   0x01b21a    program     extern E:\c18v3.46\pic18-lt\cxx-framework\src\pmc_common\Timers\t0write.c
               SetChanADC   0x01b24a    program     extern E:\c18v3.46\pic18-lt\cxx-framework\src\pmc_common\ADC\adcsetch.c
              Write2USART   0x01b27a    program     extern E:\c18v3.46\pic18-lt\cxx-framework\src\pmc_common\USART\u2write.c
                 BusyXLCD   0x01b2a8    program     extern L:\solarpic_rewrite\swm8722\solar18f8722\xlcd\busyxlcd.c
                   __pa_0   0x01b2c2    program     static L:\solarpic_rewrite\swm8722\solar18f8722\xlcd\busyxlcd.c
                  isdigit   0x01b2d4    program     extern E:\c18v3.46\pic18-lt\cxx-framework\src\extended\stdclib\isdigit.asm
                   jMatch   0x01b2f4    program     static E:\c18v3.46\pic18-lt\cxx-framework\src\extended\stdclib\isdigit.asm
                 jNoMatch   0x01b2f6    program     static E:\c18v3.46\pic18-lt\cxx-framework\src\extended\stdclib\isdigit.asm
            __zero_memory   0x01b2f8    program     extern E:\c18v3.46\pic18-lt\cxx-framework\src\extended\proc\p18f8722.asm
               zero_block   0x01b306    program     static E:\c18v3.46\pic18-lt\cxx-framework\src\extended\proc\p18f8722.asm
                   loop_h   0x01b306    program     static E:\c18v3.46\pic18-lt\cxx-framework\src\extended\proc\p18f8722.asm
                compare_l   0x01b30e    program     static E:\c18v3.46\pic18-lt\cxx-framework\src\extended\proc\p18f8722.asm
                   loop_l   0x01b310    program     static E:\c18v3.46\pic18-lt\cxx-framework\src\extended\proc\p18f8722.asm
                 _startup   0x01b318    program     extern E:\c18v3.46\pic18-lt\cxx-framework\src\extended\startup\c018iz_e.c
                     loop   0x01b32a    program     static                          
       ___return_lbl00001   0x01b334    program     static                          
              _usart_putc   0x01b336    program     extern E:\c18v3.46\pic18-lt\cxx-framework\src\pmc_common\USART\_usartpc.asm
                     loop   0x01b346    program     static E:\c18v3.46\pic18-lt\cxx-framework\src\pmc_common\USART\_usartpc.asm
                  ReadADC   0x01b352    program     extern E:\c18v3.46\pic18-lt\cxx-framework\src\pmc_common\ADC\adcread.c
              Delay10TCYx   0x01b36a    program     extern E:\c18v3.46\pic18-lt\cxx-framework\src\extended\delays\d10tcyx.asm
                     D10x   0x01b372    program     static E:\c18v3.46\pic18-lt\cxx-framework\src\extended\delays\d10tcyx.asm
        _D10TCYXCODE_000A   0x01b374    program     static E:\c18v3.46\pic18-lt\cxx-framework\src\extended\delays\d10tcyx.asm
        _D10TCYXCODE_000C   0x01b376    program     static E:\c18v3.46\pic18-lt\cxx-framework\src\extended\delays\d10tcyx.asm
        _D10TCYXCODE_000E   0x01b378    program     static E:\c18v3.46\pic18-lt\cxx-framework\src\extended\delays\d10tcyx.asm
                    D10_1   0x01b37a    program     static E:\c18v3.46\pic18-lt\cxx-framework\src\extended\delays\d10tcyx.asm
                 s_digits   0x01b380    program     static E:\c18v3.46\pic18-lt\cxx-framework\src\extended\stdclib\vfprintf.c
                 Busy_eep   0x01b392    program     extern E:\c18v3.46\pic18-lt\cxx-framework\src\pmc_common\EEP\busy_eep.c
               ConvertADC   0x01b398    program     extern E:\c18v3.46\pic18-lt\cxx-framework\src\pmc_common\ADC\adcconv.c
                   __init   0x01b39c    program     extern E:\c18v3.46\pic18-lt\cxx-framework\src\extended\stdclib\__init.c
               __config_0   0x300001    program     static L:\solarpic_rewrite\swm8722\solar18f8722\swm8722.c
               __config_1   0x300002    program     static L:\solarpic_rewrite\swm8722\solar18f8722\swm8722.c
               __config_2   0x300003    program     static L:\solarpic_rewrite\swm8722\solar18f8722\swm8722.c
               __config_3   0x300004    program     static L:\solarpic_rewrite\swm8722\solar18f8722\swm8722.c
               __config_4   0x300005    program     static L:\solarpic_rewrite\swm8722\solar18f8722\swm8722.c
               __config_5   0x300006    program     static L:\solarpic_rewrite\swm8722\solar18f8722\swm8722.c
               __config_6   0x300008    program     static L:\solarpic_rewrite\swm8722\solar18f8722\swm8722.c
               __config_7   0x300009    program     static L:\solarpic_rewrite\swm8722\solar18f8722\swm8722.c
               __config_8   0x30000a    program     static L:\solarpic_rewrite\swm8722\solar18f8722\swm8722.c
               __config_9   0x30000b    program     static L:\solarpic_rewrite\swm8722\solar18f8722\swm8722.c
              __config_10   0x30000c    program     static L:\solarpic_rewrite\swm8722\solar18f8722\swm8722.c
              __config_11   0x30000d    program     static L:\solarpic_rewrite\swm8722\solar18f8722\swm8722.c
                      boi   0x000000       data     static L:\solarpic_rewrite\swm8722\solar18f8722\power.c
                     D_ON   0x000001       data     static L:\solarpic_rewrite\swm8722\solar18f8722\power.c
                    D_OFF   0x000002       data     static L:\solarpic_rewrite\swm8722\solar18f8722\power.c
               C_MSG_STOP   0x000003       data     static L:\solarpic_rewrite\swm8722\solar18f8722\power.c
                        z   0x000004       data     static L:\solarpic_rewrite\swm8722\solar18f8722\power.c
                     pick   0x000005       data     static L:\solarpic_rewrite\swm8722\solar18f8722\power.c
               alert_pick   0x000006       data     static L:\solarpic_rewrite\swm8722\solar18f8722\power.c
                   d_code   0x000007       data     static L:\solarpic_rewrite\swm8722\solar18f8722\power.c
              alert_clock   0x000008       data     static L:\solarpic_rewrite\swm8722\solar18f8722\power.c
                  vloaded   0x00000c       data     static L:\solarpic_rewrite\swm8722\solar18f8722\power.c
                   weight   0x000010       data     static L:\solarpic_rewrite\swm8722\solar18f8722\power.c
                     rate   0x000014       data     static L:\solarpic_rewrite\swm8722\solar18f8722\power.c
                    usage   0x000018       data     static L:\solarpic_rewrite\swm8722\solar18f8722\power.c
                   result   0x00001c       data     static L:\solarpic_rewrite\swm8722\solar18f8722\power.c
                      soc   0x000020       data     static L:\solarpic_rewrite\swm8722\solar18f8722\power.c
                    r_soc   0x000024       data     static L:\solarpic_rewrite\swm8722\solar18f8722\power.c
                  voltage   0x000028       data     static L:\solarpic_rewrite\swm8722\solar18f8722\power.c
                BATCHARGE   0x00002c       data     static L:\solarpic_rewrite\swm8722\solar18f8722\power.c
                 timetemp   0x000030       data     static L:\solarpic_rewrite\swm8722\solar18f8722\power.c
                  newdate   0x000034       data     static L:\solarpic_rewrite\swm8722\solar18f8722\power.c
               cycles_tmp   0x000038       data     static L:\solarpic_rewrite\swm8722\solar18f8722\power.c
                CCEFF_tmp   0x00003c       data     static L:\solarpic_rewrite\swm8722\solar18f8722\power.c
                    ccs_t   0x00003e       data     static L:\solarpic_rewrite\swm8722\solar18f8722\power.c
            use_dual_load   0x00003f       data     static L:\solarpic_rewrite\swm8722\solar18f8722\power.c
                        z   0x000040       data     static L:\solarpic_rewrite\swm8722\solar18f8722\power.c
                  CC_DONE   0x000041       data     static L:\solarpic_rewrite\swm8722\solar18f8722\power.c
                    t_esr   0x000042       data     static L:\solarpic_rewrite\swm8722\solar18f8722\power.c
                  load_i1   0x000044       data     static L:\solarpic_rewrite\swm8722\solar18f8722\power.c
                  load_i2   0x000046       data     static L:\solarpic_rewrite\swm8722\solar18f8722\power.c
                    t_soc   0x000048       data     static L:\solarpic_rewrite\swm8722\solar18f8722\power.c
                  __tmp_0   0x00004a       data     static L:\solarpic_rewrite\swm8722\solar18f8722\timelib.c
                  __tmp_0   0x00004a       data     static E:\c18v3.46\pic18-lt\cxx-framework\src\extended\stdclib\vfprintf.c
                  __tmp_0   0x00004a       data     static E:\c18v3.46\pic18-lt\cxx-framework\src\extended\stdclib\log.c
                  __tmp_0   0x00004a       data     static E:\c18v3.46\pic18-lt\cxx-framework\src\extended\stdclib\ldexp.c
                  __tmp_0   0x00004a       data     static L:\solarpic_rewrite\swm8722\solar18f8722\power.c
                  __tmp_0   0x00004a       data     static L:\solarpic_rewrite\swm8722\solar18f8722\daq.c
                  __tmp_0   0x00004a       data     static E:\c18v3.46\pic18-lt\cxx-framework\src\extended\stdclib\frexp.c
                  __tmp_0   0x00004a       data     static E:\c18v3.46\pic18-lt\cxx-framework\src\pmc_common\EEP\read_B.c
                  __tmp_0   0x00004a       data     static E:\c18v3.46\pic18-lt\cxx-framework\src\pmc_common\ADC\adcsetch.c
                  __tmp_0   0x00004a       data     static E:\c18v3.46\pic18-lt\cxx-framework\src\pmc_common\PWM\pw4setdc.c
                  __tmp_0   0x00004a       data     static E:\c18v3.46\pic18-lt\cxx-framework\src\pmc_common\EEP\write_B.c
                  __tmp_0   0x00004a       data     static E:\c18v3.46\pic18-lt\cxx-framework\src\extended\stdclib\pow.c
                  __tmp_0   0x00004a       data     static E:\c18v3.46\pic18-lt\cxx-framework\src\pmc_common\ADC\adcread.c
                  __tmp_0   0x00004a       data     static E:\c18v3.46\pic18-lt\cxx-framework\src\pmc_common\ADC\adcopen.c
                  __tmp_0   0x00004a       data     static E:\c18v3.46\pic18-lt\cxx-framework\src\pmc_common\USART\u2open.c
                  __tmp_0   0x00004a       data     static E:\c18v3.46\pic18-lt\cxx-framework\src\extended\stdclib\UnpkMath.c
                  __tmp_0   0x00004a       data     static E:\c18v3.46\pic18-lt\cxx-framework\src\pmc_common\USART\u1open.c
                  __tmp_0   0x00004a       data     static L:\solarpic_rewrite\swm8722\solar18f8722\swm8722.c
                  __tmp_0   0x00004a       data     static L:\solarpic_rewrite\swm8722\solar18f8722\crc8_fast.c
                  __tmp_0   0x00004a       data     static L:\solarpic_rewrite\swm8722\solar18f8722\crit.c
                  __tmp_0   0x00004a       data     static L:\solarpic_rewrite\swm8722\solar18f8722\sdspi.c
                  __tmp_0   0x00004a       data     static E:\c18v3.46\pic18-lt\cxx-framework\src\extended\stdclib\fchop.c
                  __tmp_0   0x00004a       data     static L:\solarpic_rewrite\swm8722\solar18f8722\model.c
                  __tmp_0   0x00004a       data     static E:\c18v3.46\pic18-lt\cxx-framework\src\extended\stdclib\PackMath.c
                  __tmp_0   0x00004a       data     static E:\c18v3.46\pic18-lt\cxx-framework\src\extended\stdclib\exp.c
                    lmode   0x00005d       data     static L:\solarpic_rewrite\swm8722\solar18f8722\model.c
                        x   0x00005e       data     static L:\solarpic_rewrite\swm8722\solar18f8722\model.c
                        z   0x00005f       data     static L:\solarpic_rewrite\swm8722\solar18f8722\model.c
                HOST_BUSY   0x000060       data     extern L:\solarpic_rewrite\swm8722\solar18f8722\swm8722.c
                HOST_COMM   0x000061       data     extern L:\solarpic_rewrite\swm8722\solar18f8722\swm8722.c
                     SDC0   0x000062       data     extern L:\solarpic_rewrite\swm8722\solar18f8722\swm8722.c
                     SDD0   0x0000d8       data     extern L:\solarpic_rewrite\swm8722\solar18f8722\swm8722.c
               ccled_flag   0x0000de       data     extern L:\solarpic_rewrite\swm8722\solar18f8722\swm8722.c
                     sign   0x0000e5       data     extern L:\solarpic_rewrite\swm8722\solar18f8722\swm8722.c
                 lp_speed   0x0000e6       data     extern L:\solarpic_rewrite\swm8722\solar18f8722\swm8722.c
                     lp_x   0x0000ea       data     extern L:\solarpic_rewrite\swm8722\solar18f8722\swm8722.c
                     LINK   0x0000ee       data     extern L:\solarpic_rewrite\swm8722\solar18f8722\swm8722.c
                     prom   0x0000f6       data     static E:\c18v3.46\pic18-lt\cxx-framework\src\extended\startup\c018iz_e.c
                curr_byte   0x0000f9       data     static E:\c18v3.46\pic18-lt\cxx-framework\src\extended\startup\c018iz_e.c
               curr_entry   0x0000fb       data     static E:\c18v3.46\pic18-lt\cxx-framework\src\extended\startup\c018iz_e.c
                 data_ptr   0x0000fd       data     static E:\c18v3.46\pic18-lt\cxx-framework\src\extended\startup\c018iz_e.c
                     MBMC   0x000100       data     extern L:\solarpic_rewrite\swm8722\solar18f8722\swm8722.c
                 mbmcflag   0x000194       data     extern L:\solarpic_rewrite\swm8722\solar18f8722\swm8722.c
            mbmc_dumpflag   0x0001ba       data     extern L:\solarpic_rewrite\swm8722\solar18f8722\swm8722.c
                       t1   0x0001e0       data     extern L:\solarpic_rewrite\swm8722\solar18f8722\swm8722.c
                       t2   0x0001e4       data     extern L:\solarpic_rewrite\swm8722\solar18f8722\swm8722.c
                       t3   0x0001e8       data     extern L:\solarpic_rewrite\swm8722\solar18f8722\swm8722.c
                       t4   0x0001ec       data     extern L:\solarpic_rewrite\swm8722\solar18f8722\swm8722.c
                       t5   0x0001f0       data     extern L:\solarpic_rewrite\swm8722\solar18f8722\swm8722.c
                       t6   0x0001f4       data     extern L:\solarpic_rewrite\swm8722\solar18f8722\swm8722.c
                       t7   0x0001f8       data     extern L:\solarpic_rewrite\swm8722\solar18f8722\swm8722.c
                   t_time   0x0001fc       data     extern L:\solarpic_rewrite\swm8722\solar18f8722\swm8722.c
                   tx_tmp   0x000200       data     extern L:\solarpic_rewrite\swm8722\solar18f8722\swm8722.c
                   rx_tmp   0x000202       data     extern L:\solarpic_rewrite\swm8722\solar18f8722\swm8722.c
           mbmc_cmd_reply   0x000204       data     extern L:\solarpic_rewrite\swm8722\solar18f8722\swm8722.c
                 voltfrak   0x000208       data     extern L:\solarpic_rewrite\swm8722\solar18f8722\swm8722.c
                   ahfrak   0x00020c       data     extern L:\solarpic_rewrite\swm8722\solar18f8722\swm8722.c
                  ahi_tmp   0x000210       data     extern L:\solarpic_rewrite\swm8722\solar18f8722\swm8722.c
                  aho_tmp   0x000214       data     extern L:\solarpic_rewrite\swm8722\solar18f8722\swm8722.c
                 ahop_tmp   0x000218       data     extern L:\solarpic_rewrite\swm8722\solar18f8722\swm8722.c
           absorp_current   0x00021c       data     extern L:\solarpic_rewrite\swm8722\solar18f8722\swm8722.c
                 end_amps   0x000220       data     extern L:\solarpic_rewrite\swm8722\solar18f8722\swm8722.c
             model_update   0x000224       data     extern L:\solarpic_rewrite\swm8722\solar18f8722\swm8722.c
                current_t   0x000225       data     extern L:\solarpic_rewrite\swm8722\solar18f8722\swm8722.c
              currentin_t   0x000229       data     extern L:\solarpic_rewrite\swm8722\solar18f8722\swm8722.c
         currentcharger_t   0x00022d       data     extern L:\solarpic_rewrite\swm8722\solar18f8722\swm8722.c
                      Vin   0x000231       data     extern L:\solarpic_rewrite\swm8722\solar18f8722\swm8722.c
                    rawp1   0x000235       data     extern L:\solarpic_rewrite\swm8722\solar18f8722\swm8722.c
                    rawp2   0x000239       data     extern L:\solarpic_rewrite\swm8722\solar18f8722\swm8722.c
                    rawp3   0x00023d       data     extern L:\solarpic_rewrite\swm8722\solar18f8722\swm8722.c
                   chrg_v   0x000241       data     extern L:\solarpic_rewrite\swm8722\solar18f8722\swm8722.c
                 vbatol_t   0x000245       data     extern L:\solarpic_rewrite\swm8722\solar18f8722\swm8722.c
                  solar_t   0x000249       data     extern L:\solarpic_rewrite\swm8722\solar18f8722\swm8722.c
               battbuffer   0x00024d       data     extern L:\solarpic_rewrite\swm8722\solar18f8722\swm8722.c
                 batttype   0x000259       data     extern L:\solarpic_rewrite\swm8722\solar18f8722\swm8722.c
                 idleflag   0x000265       data     extern L:\solarpic_rewrite\swm8722\solar18f8722\swm8722.c
                    CCEFF   0x000266       data     extern L:\solarpic_rewrite\swm8722\solar18f8722\swm8722.c
               CCEFF_DIFF   0x000268       data     extern L:\solarpic_rewrite\swm8722\solar18f8722\swm8722.c
                       iw   0x00026a       data     extern L:\solarpic_rewrite\swm8722\solar18f8722\swm8722.c
                       ip   0x00026e       data     extern L:\solarpic_rewrite\swm8722\solar18f8722\swm8722.c
                   sdc0b1   0x000272       data     extern L:\solarpic_rewrite\swm8722\solar18f8722\swm8722.c
                       B0   0x0002e8       data     extern L:\solarpic_rewrite\swm8722\solar18f8722\swm8722.c
                       B1   0x0002e9       data     extern L:\solarpic_rewrite\swm8722\solar18f8722\swm8722.c
                       B2   0x0002ea       data     extern L:\solarpic_rewrite\swm8722\solar18f8722\swm8722.c
                       B3   0x0002eb       data     extern L:\solarpic_rewrite\swm8722\solar18f8722\swm8722.c
                       B4   0x0002ec       data     extern L:\solarpic_rewrite\swm8722\solar18f8722\swm8722.c
                 B_GANGED   0x0002ed       data     extern L:\solarpic_rewrite\swm8722\solar18f8722\swm8722.c
                      ZAP   0x0002ee       data     static L:\solarpic_rewrite\swm8722\solar18f8722\mbmc_vector.c
                 vc_count   0x0002ef       data     static L:\solarpic_rewrite\swm8722\solar18f8722\mbmc_vector.c
             worker_timer   0x0002f0       data     static L:\solarpic_rewrite\swm8722\solar18f8722\mbmc_vector.c
               hirez_tmp0   0x0002f1       data     static L:\solarpic_rewrite\swm8722\solar18f8722\mbmc_vector.c
               hirez_tmp1   0x0002f3       data     static L:\solarpic_rewrite\swm8722\solar18f8722\mbmc_vector.c
                     hmin   0x0002f5       data     static L:\solarpic_rewrite\swm8722\solar18f8722\mbmc_vector.c
                    H_tmp   0x0002f6       data     static L:\solarpic_rewrite\swm8722\solar18f8722\mbmc_vector.c
                      boc   0x0002f7       data     static L:\solarpic_rewrite\swm8722\solar18f8722\mbmc_vector.c
                      boi   0x0002f8       data     static L:\solarpic_rewrite\swm8722\solar18f8722\mbmc_vector.c
                pwm_delay   0x0002f9       data     static L:\solarpic_rewrite\swm8722\solar18f8722\mbmc_vector.c
               hirez_tmp0   0x0002fa       data     static L:\solarpic_rewrite\swm8722\solar18f8722\mbmc_vector.c
               hirez_tmp1   0x0002fc       data     static L:\solarpic_rewrite\swm8722\solar18f8722\mbmc_vector.c
                     Seed   0x0002fe       data     static E:\c18v3.46\pic18-lt\cxx-framework\src\extended\stdclib\rand.asm
                        R   0x000300       data     extern L:\solarpic_rewrite\swm8722\solar18f8722\swm8722.c
                        C   0x000328       data     extern L:\solarpic_rewrite\swm8722\solar18f8722\swm8722.c
                        B   0x000332       data     extern L:\solarpic_rewrite\swm8722\solar18f8722\swm8722.c
                        V   0x000355       data     extern L:\solarpic_rewrite\swm8722\solar18f8722\swm8722.c
               build_date   0x000385       data     extern L:\solarpic_rewrite\swm8722\solar18f8722\swm8722.c
               build_time   0x000388       data     extern L:\solarpic_rewrite\swm8722\solar18f8722\swm8722.c
          MMC_volume_Info   0x00038b       data     extern L:\solarpic_rewrite\swm8722\solar18f8722\swm8722.c
                     vinf   0x0003a5       data     extern L:\solarpic_rewrite\swm8722\solar18f8722\swm8722.c
            solarup_delay   0x0003a7       data     extern L:\solarpic_rewrite\swm8722\solar18f8722\swm8722.c
                 zero_ref   0x0003a9       data     extern L:\solarpic_rewrite\swm8722\solar18f8722\swm8722.c
                  utctime   0x0003ab       data     extern L:\solarpic_rewrite\swm8722\solar18f8722\swm8722.c
           time_skew_base   0x0003af       data     extern L:\solarpic_rewrite\swm8722\solar18f8722\swm8722.c
                time_skew   0x0003b3       data     extern L:\solarpic_rewrite\swm8722\solar18f8722\swm8722.c
                      dsi   0x0003b7       data     extern L:\solarpic_rewrite\swm8722\solar18f8722\swm8722.c
                 mbmccell   0x0003b8       data     extern L:\solarpic_rewrite\swm8722\solar18f8722\swm8722.c
                esr_delta   0x0003ba       data     extern L:\solarpic_rewrite\swm8722\solar18f8722\swm8722.c
                     netd   0x0003be       data     extern L:\solarpic_rewrite\swm8722\solar18f8722\swm8722.c
                 local_tm   0x0003c2       data     extern L:\solarpic_rewrite\swm8722\solar18f8722\swm8722.c
                   CCMODE   0x0003d8       data     extern L:\solarpic_rewrite\swm8722\solar18f8722\swm8722.c
                   BMMODE   0x0003d9       data     extern L:\solarpic_rewrite\swm8722\solar18f8722\swm8722.c
                    YNKEY   0x0003da       data     extern L:\solarpic_rewrite\swm8722\solar18f8722\swm8722.c
                   dcount   0x0003db       data     static L:\solarpic_rewrite\swm8722\solar18f8722\swm8722.c
                   dcount   0x0003df       data     static L:\solarpic_rewrite\swm8722\solar18f8722\swm8722.c
                 timetemp   0x0003e3       data     static L:\solarpic_rewrite\swm8722\solar18f8722\swm8722.c
                clocks_hz   0x0003e7       data     static L:\solarpic_rewrite\swm8722\solar18f8722\swm8722.c
                        n   0x0003eb       data     static L:\solarpic_rewrite\swm8722\solar18f8722\swm8722.c
                        z   0x0003ec       data     static L:\solarpic_rewrite\swm8722\solar18f8722\swm8722.c
                       q1   0x0003ed       data     static L:\solarpic_rewrite\swm8722\solar18f8722\swm8722.c
                       q2   0x0003f1       data     static L:\solarpic_rewrite\swm8722\solar18f8722\swm8722.c
                        j   0x0003f5       data     static L:\solarpic_rewrite\swm8722\solar18f8722\swm8722.c
                        k   0x0003f6       data     static L:\solarpic_rewrite\swm8722\solar18f8722\swm8722.c
                        z   0x0003f7       data     static L:\solarpic_rewrite\swm8722\solar18f8722\swm8722.c
                     slot   0x0003f8       data     static L:\solarpic_rewrite\swm8722\solar18f8722\swm8722.c
                  __tmp_1   0x0003f9       data     static L:\solarpic_rewrite\swm8722\solar18f8722\mbmc_vector.c
              tblptru_sav   0x0003ff       data     static E:\c18v3.46\pic18-lt\cxx-framework\src\extended\stdclib\mcpyp2r.asm
               hms_string   0x000400       data     extern L:\solarpic_rewrite\swm8722\solar18f8722\swm8722.c
                venttimer   0x000410       data     extern L:\solarpic_rewrite\swm8722\solar18f8722\swm8722.c
               loggertime   0x000412       data     extern L:\solarpic_rewrite\swm8722\solar18f8722\swm8722.c
                      a50   0x000414       data     extern L:\solarpic_rewrite\swm8722\solar18f8722\swm8722.c
                     a300   0x000416       data     extern L:\solarpic_rewrite\swm8722\solar18f8722\swm8722.c
                     a50c   0x000418       data     extern L:\solarpic_rewrite\swm8722\solar18f8722\swm8722.c
                    therm   0x00041a       data     extern L:\solarpic_rewrite\swm8722\solar18f8722\swm8722.c
                 worktick   0x00041c       data     extern L:\solarpic_rewrite\swm8722\solar18f8722\swm8722.c
                      cef   0x00041e       data     extern L:\solarpic_rewrite\swm8722\solar18f8722\swm8722.c
                 cef_calc   0x000420       data     extern L:\solarpic_rewrite\swm8722\solar18f8722\swm8722.c
                 cef_save   0x000422       data     extern L:\solarpic_rewrite\swm8722\solar18f8722\swm8722.c
                        P   0x000424       data     extern L:\solarpic_rewrite\swm8722\solar18f8722\swm8722.c
                  battnum   0x000426       data     extern L:\solarpic_rewrite\swm8722\solar18f8722\swm8722.c
              critc_level   0x000427       data     extern L:\solarpic_rewrite\swm8722\solar18f8722\swm8722.c
                   keynum   0x000428       data     extern L:\solarpic_rewrite\swm8722\solar18f8722\swm8722.c
                   b_read   0x000429       data     extern L:\solarpic_rewrite\swm8722\solar18f8722\swm8722.c
                    c2raw   0x00042a       data     extern L:\solarpic_rewrite\swm8722\solar18f8722\swm8722.c
             glitch_count   0x00042b       data     extern L:\solarpic_rewrite\swm8722\solar18f8722\swm8722.c
                 SET_BATT   0x00042c       data     extern L:\solarpic_rewrite\swm8722\solar18f8722\swm8722.c
               fast_ticks   0x00042d       data     extern L:\solarpic_rewrite\swm8722\solar18f8722\swm8722.c
               real_ticks   0x00042e       data     extern L:\solarpic_rewrite\swm8722\solar18f8722\swm8722.c
                BLANK_LCD   0x00042f       data     extern L:\solarpic_rewrite\swm8722\solar18f8722\swm8722.c
                 XON_XOFF   0x000430       data     extern L:\solarpic_rewrite\swm8722\solar18f8722\swm8722.c
               STATIC_SOC   0x000431       data     extern L:\solarpic_rewrite\swm8722\solar18f8722\swm8722.c
             DISPLAY_MODE   0x000432       data     extern L:\solarpic_rewrite\swm8722\solar18f8722\swm8722.c
                 D_UPDATE   0x000433       data     extern L:\solarpic_rewrite\swm8722\solar18f8722\swm8722.c
             GLITCH_CHECK   0x000434       data     extern L:\solarpic_rewrite\swm8722\solar18f8722\swm8722.c
                 FORCEDAY   0x000435       data     extern L:\solarpic_rewrite\swm8722\solar18f8722\swm8722.c
                  COOLING   0x000436       data     extern L:\solarpic_rewrite\swm8722\solar18f8722\swm8722.c
               UPDATE_EEP   0x000437       data     extern L:\solarpic_rewrite\swm8722\solar18f8722\swm8722.c
              RESET_ZEROS   0x000438       data     extern L:\solarpic_rewrite\swm8722\solar18f8722\swm8722.c
                 SYNC_SOC   0x000439       data     extern L:\solarpic_rewrite\swm8722\solar18f8722\swm8722.c
                  SYNCSOC   0x00043a       data     extern L:\solarpic_rewrite\swm8722\solar18f8722\swm8722.c
                 SYS_DATA   0x00043b       data     extern L:\solarpic_rewrite\swm8722\solar18f8722\swm8722.c
                 MOD_DATA   0x00043c       data     extern L:\solarpic_rewrite\swm8722\solar18f8722\swm8722.c
                 SYS_HELP   0x00043d       data     extern L:\solarpic_rewrite\swm8722\solar18f8722\swm8722.c
                  SET_ADC   0x00043e       data     extern L:\solarpic_rewrite\swm8722\solar18f8722\swm8722.c
                  SET_CEF   0x00043f       data     extern L:\solarpic_rewrite\swm8722\solar18f8722\swm8722.c
                   WDT_TO   0x000440       data     extern L:\solarpic_rewrite\swm8722\solar18f8722\swm8722.c
                   EEP_ER   0x000441       data     extern L:\solarpic_rewrite\swm8722\solar18f8722\swm8722.c
                PERKOSW_R   0x000442       data     extern L:\solarpic_rewrite\swm8722\solar18f8722\swm8722.c
                    TWEAK   0x000443       data     extern L:\solarpic_rewrite\swm8722\solar18f8722\swm8722.c
                   cdelay   0x000444       data     extern L:\solarpic_rewrite\swm8722\solar18f8722\swm8722.c
                 SIM_MODE   0x000445       data     extern L:\solarpic_rewrite\swm8722\solar18f8722\swm8722.c
                 SIM_FLAG   0x000446       data     extern L:\solarpic_rewrite\swm8722\solar18f8722\swm8722.c
              GANGED_MODE   0x000447       data     extern L:\solarpic_rewrite\swm8722\solar18f8722\swm8722.c
            GANG_OVERRIDE   0x000448       data     extern L:\solarpic_rewrite\swm8722\solar18f8722\swm8722.c
              alarm_codes   0x000449       data     extern L:\solarpic_rewrite\swm8722\solar18f8722\swm8722.c
                   almctr   0x00044b       data     extern L:\solarpic_rewrite\swm8722\solar18f8722\swm8722.c
                  hirez_0   0x00044c       data     extern L:\solarpic_rewrite\swm8722\solar18f8722\swm8722.c
                  hirez_1   0x00044e       data     extern L:\solarpic_rewrite\swm8722\solar18f8722\swm8722.c
            display_count   0x000450       data     extern L:\solarpic_rewrite\swm8722\solar18f8722\swm8722.c
             status_count   0x000454       data     extern L:\solarpic_rewrite\swm8722\solar18f8722\swm8722.c
                  cctimer   0x000458       data     extern L:\solarpic_rewrite\swm8722\solar18f8722\swm8722.c
               dayclockup   0x00045c       data     extern L:\solarpic_rewrite\swm8722\solar18f8722\swm8722.c
             dayclockdown   0x000460       data     extern L:\solarpic_rewrite\swm8722\solar18f8722\swm8722.c
             worker_count   0x000464       data     extern L:\solarpic_rewrite\swm8722\solar18f8722\swm8722.c
              critc_count   0x000468       data     extern L:\solarpic_rewrite\swm8722\solar18f8722\swm8722.c
                     d_on   0x00046c       data     extern L:\solarpic_rewrite\swm8722\solar18f8722\swm8722.c
                    d_off   0x000470       data     extern L:\solarpic_rewrite\swm8722\solar18f8722\swm8722.c
                     c_on   0x000474       data     extern L:\solarpic_rewrite\swm8722\solar18f8722\swm8722.c
                    c_off   0x000478       data     extern L:\solarpic_rewrite\swm8722\solar18f8722\swm8722.c
                      res   0x00047c       data     static L:\solarpic_rewrite\swm8722\solar18f8722\sdspi.c
                        n   0x00047d       data     static L:\solarpic_rewrite\swm8722\solar18f8722\sdspi.c
                      res   0x00047e       data     static L:\solarpic_rewrite\swm8722\solar18f8722\sdspi.c
                     ccrc   0x00047f       data     static L:\solarpic_rewrite\swm8722\solar18f8722\sdspi.c
                     argc   0x000484       data     static L:\solarpic_rewrite\swm8722\solar18f8722\sdspi.c
                        n   0x000485       data     static L:\solarpic_rewrite\swm8722\solar18f8722\sdspi.c
                        n   0x000486       data     static L:\solarpic_rewrite\swm8722\solar18f8722\sdspi.c
                      cmd   0x000487       data     static L:\solarpic_rewrite\swm8722\solar18f8722\sdspi.c
                      ocr   0x000488       data     static L:\solarpic_rewrite\swm8722\solar18f8722\sdspi.c
                        i   0x00048c       data     static L:\solarpic_rewrite\swm8722\solar18f8722\sdspi.c
                    retry   0x00048d       data     static L:\solarpic_rewrite\swm8722\solar18f8722\sdspi.c
                        i   0x00048f       data     static L:\solarpic_rewrite\swm8722\solar18f8722\sdspi.c
                     nsec   0x000491       data     static L:\solarpic_rewrite\swm8722\solar18f8722\sdspi.c
                      ssm   0x000493       data     static L:\solarpic_rewrite\swm8722\solar18f8722\sdspi.c
                      tmp   0x000495       data     static L:\solarpic_rewrite\swm8722\solar18f8722\sdspi.c
                block_tmp   0x000496       data     static L:\solarpic_rewrite\swm8722\solar18f8722\sdspi.c
                    retry   0x00049a       data     static L:\solarpic_rewrite\swm8722\solar18f8722\sdspi.c
                        i   0x00049c       data     static L:\solarpic_rewrite\swm8722\solar18f8722\sdspi.c
                     nsec   0x00049e       data     static L:\solarpic_rewrite\swm8722\solar18f8722\sdspi.c
                      ssm   0x0004a0       data     static L:\solarpic_rewrite\swm8722\solar18f8722\sdspi.c
                      tmp   0x0004a2       data     static L:\solarpic_rewrite\swm8722\solar18f8722\sdspi.c
                block_tmp   0x0004a3       data     static L:\solarpic_rewrite\swm8722\solar18f8722\sdspi.c
             block_buffer   0x000500       data     extern L:\solarpic_rewrite\swm8722\solar18f8722\swm8722.c
                 bootstr2   0x000708       data     extern L:\solarpic_rewrite\swm8722\solar18f8722\swm8722.c
                      csd   0x0007dd       data     extern L:\solarpic_rewrite\swm8722\solar18f8722\swm8722.c
                      cid   0x0007ef       data     extern L:\solarpic_rewrite\swm8722\solar18f8722\swm8722.c
                    HCRIT   0x000801       data     extern L:\solarpic_rewrite\swm8722\solar18f8722\swm8722.c
                    LCRIT   0x000809       data     extern L:\solarpic_rewrite\swm8722\solar18f8722\swm8722.c
                       p1   0x000811       data     extern L:\solarpic_rewrite\swm8722\solar18f8722\swm8722.c
                       p2   0x000821       data     extern L:\solarpic_rewrite\swm8722\solar18f8722\swm8722.c
                  termstr   0x000831       data     extern L:\solarpic_rewrite\swm8722\solar18f8722\swm8722.c
                      CCM   0x000851       data     extern L:\solarpic_rewrite\swm8722\solar18f8722\swm8722.c
                     cell   0x000852       data     extern L:\solarpic_rewrite\swm8722\solar18f8722\swm8722.c
                       f1   0x00091a       data     extern L:\solarpic_rewrite\swm8722\solar18f8722\swm8722.c
                       f2   0x000921       data     extern L:\solarpic_rewrite\swm8722\solar18f8722\swm8722.c
                       f3   0x000928       data     extern L:\solarpic_rewrite\swm8722\solar18f8722\swm8722.c
                       f4   0x00092f       data     extern L:\solarpic_rewrite\swm8722\solar18f8722\swm8722.c
                       p3   0x000936       data     extern L:\solarpic_rewrite\swm8722\solar18f8722\swm8722.c
                     buth   0x000946       data     extern L:\solarpic_rewrite\swm8722\solar18f8722\swm8722.c
             alarm_buffer   0x00095c       data     extern L:\solarpic_rewrite\swm8722\solar18f8722\swm8722.c
                   smooth   0x00096a       data     extern L:\solarpic_rewrite\swm8722\solar18f8722\swm8722.c
                     hist   0x00099a       data     extern L:\solarpic_rewrite\swm8722\solar18f8722\swm8722.c
                       ds   0x000bde       data     extern L:\solarpic_rewrite\swm8722\solar18f8722\swm8722.c
                      bmt   0x000cda       data     extern L:\solarpic_rewrite\swm8722\solar18f8722\swm8722.c
                 UTC_flag   0x000d50       data     extern L:\solarpic_rewrite\swm8722\solar18f8722\swm8722.c
                   UTC_ok   0x000d51       data     extern L:\solarpic_rewrite\swm8722\solar18f8722\swm8722.c
            DIVERSION_set   0x000d52       data     extern L:\solarpic_rewrite\swm8722\solar18f8722\swm8722.c
             netdword_ptr   0x000d53       data     extern L:\solarpic_rewrite\swm8722\solar18f8722\swm8722.c
             netdword_pos   0x000d55       data     extern L:\solarpic_rewrite\swm8722\solar18f8722\swm8722.c
                      CCS   0x000d56       data     extern L:\solarpic_rewrite\swm8722\solar18f8722\swm8722.c
              hirez_count   0x000d5b       data     extern L:\solarpic_rewrite\swm8722\solar18f8722\swm8722.c
                  adc_cal   0x000d69       data     extern L:\solarpic_rewrite\swm8722\solar18f8722\swm8722.c
                    CRITC   0x000d78       data     extern L:\solarpic_rewrite\swm8722\solar18f8722\swm8722.c
              BOOT_STATUS   0x000d79       data     extern L:\solarpic_rewrite\swm8722\solar18f8722\swm8722.c
               soc_method   0x000d7a       data     extern L:\solarpic_rewrite\swm8722\solar18f8722\swm8722.c
                     vsoc   0x000d7f       data     extern L:\solarpic_rewrite\swm8722\solar18f8722\swm8722.c
                BLENDMODE   0x000d93       data     extern L:\solarpic_rewrite\swm8722\solar18f8722\swm8722.c
                       ib   0x000d94       data     static L:\solarpic_rewrite\swm8722\solar18f8722\swm8722.c
                        z   0x000d95       data     static L:\solarpic_rewrite\swm8722\solar18f8722\swm8722.c
                 fcurrent   0x000d96       data     static L:\solarpic_rewrite\swm8722\solar18f8722\swm8722.c
                    ttg_t   0x000d9a       data     static L:\solarpic_rewrite\swm8722\solar18f8722\swm8722.c
                        h   0x000d9e       data     static L:\solarpic_rewrite\swm8722\solar18f8722\swm8722.c
                        m   0x000da2       data     static L:\solarpic_rewrite\swm8722\solar18f8722\swm8722.c
                        s   0x000da6       data     static L:\solarpic_rewrite\swm8722\solar18f8722\swm8722.c
                        h   0x000daa       data     static L:\solarpic_rewrite\swm8722\solar18f8722\swm8722.c
                        m   0x000dae       data     static L:\solarpic_rewrite\swm8722\solar18f8722\swm8722.c
                        s   0x000db2       data     static L:\solarpic_rewrite\swm8722\solar18f8722\swm8722.c
                        i   0x000db6       data     static L:\solarpic_rewrite\swm8722\solar18f8722\swm8722.c
                  alm_num   0x000db7       data     static L:\solarpic_rewrite\swm8722\solar18f8722\swm8722.c
               soc_loaded   0x000db8       data     static L:\solarpic_rewrite\swm8722\solar18f8722\swm8722.c
               soc_result   0x000dbc       data     static L:\solarpic_rewrite\swm8722\solar18f8722\swm8722.c
                      ret   0x000dbe       data     static L:\solarpic_rewrite\swm8722\solar18f8722\swm8722.c
                        j   0x000dc0       data     static L:\solarpic_rewrite\swm8722\solar18f8722\swm8722.c
                        k   0x000dc2       data     static L:\solarpic_rewrite\swm8722\solar18f8722\swm8722.c
                        i   0x000dc4       data     static L:\solarpic_rewrite\swm8722\solar18f8722\swm8722.c
                    dsize   0x000dc8       data     static L:\solarpic_rewrite\swm8722\solar18f8722\swm8722.c
                        i   0x000dcc       data     static L:\solarpic_rewrite\swm8722\solar18f8722\swm8722.c
                      ret   0x000dce       data     static L:\solarpic_rewrite\swm8722\solar18f8722\swm8722.c
                        j   0x000dcf       data     static L:\solarpic_rewrite\swm8722\solar18f8722\swm8722.c
                        k   0x000dd0       data     static L:\solarpic_rewrite\swm8722\solar18f8722\swm8722.c
                        i   0x000dd1       data     static L:\solarpic_rewrite\swm8722\solar18f8722\swm8722.c
                        j   0x000dd3       data     static L:\solarpic_rewrite\swm8722\solar18f8722\swm8722.c
                        k   0x000dd4       data     static L:\solarpic_rewrite\swm8722\solar18f8722\swm8722.c
                 waittime   0x000dd5       data     static L:\solarpic_rewrite\swm8722\solar18f8722\swm8722.c
                 eep_char   0x000dd9       data     static L:\solarpic_rewrite\swm8722\solar18f8722\swm8722.c
                      boi   0x000dda       data     static L:\solarpic_rewrite\swm8722\solar18f8722\swm8722.c
                       bn   0x000ddb       data     static L:\solarpic_rewrite\swm8722\solar18f8722\swm8722.c
                        j   0x000ddc       data     static L:\solarpic_rewrite\swm8722\solar18f8722\swm8722.c
                        k   0x000ddd       data     static L:\solarpic_rewrite\swm8722\solar18f8722\swm8722.c
                    ftest   0x000dde       data     static L:\solarpic_rewrite\swm8722\solar18f8722\swm8722.c
                    lmode   0x000ddf       data     static L:\solarpic_rewrite\swm8722\solar18f8722\swm8722.c
                        z   0x000de0       data     static L:\solarpic_rewrite\swm8722\solar18f8722\swm8722.c
                       c1   0x000de1       data     static L:\solarpic_rewrite\swm8722\solar18f8722\mbmc_vector.c
                       c2   0x000de2       data     static L:\solarpic_rewrite\swm8722\solar18f8722\mbmc_vector.c
                    timer   0x000de3       data     static L:\solarpic_rewrite\swm8722\solar18f8722\mbmc_vector.c
                        z   0x000de5       data     static L:\solarpic_rewrite\swm8722\solar18f8722\mbmc_vector.c
                       ai   0x000de6       data     static L:\solarpic_rewrite\swm8722\solar18f8722\mbmc_vector.c
                       ao   0x000dea       data     static L:\solarpic_rewrite\swm8722\solar18f8722\mbmc_vector.c
                       an   0x000dee       data     static L:\solarpic_rewrite\swm8722\solar18f8722\mbmc_vector.c
                      abl   0x000df2       data     static L:\solarpic_rewrite\swm8722\solar18f8722\mbmc_vector.c
                      aop   0x000df6       data     static L:\solarpic_rewrite\swm8722\solar18f8722\mbmc_vector.c
                    D_tmp   0x000dfa       data     static L:\solarpic_rewrite\swm8722\solar18f8722\mbmc_vector.c
                    timer   0x000dfe       data     static L:\solarpic_rewrite\swm8722\solar18f8722\mbmc_vector.c
                month_str   0x000f00       data     extern L:\solarpic_rewrite\swm8722\solar18f8722\timelib.c
                 wday_str   0x000f24       data     extern L:\solarpic_rewrite\swm8722\solar18f8722\timelib.c
               duty_cycle   0x000f39       data     static L:\solarpic_rewrite\swm8722\solar18f8722\power.c
           CCEFF_DIFF_tmp   0x000f3b       data     static L:\solarpic_rewrite\swm8722\solar18f8722\power.c
                power_exp   0x000f3d       data     static L:\solarpic_rewrite\swm8722\solar18f8722\power.c
                        z   0x000f41       data     static L:\solarpic_rewrite\swm8722\solar18f8722\power.c
                  __tmp_2   0x000f42       data     static L:\solarpic_rewrite\swm8722\solar18f8722\mbmc_vector.c
                __RETVAL0   0x000f46       data     extern E:\c18v3.46\pic18-lt\cxx-framework\src\extended\math\cmath18.asm
                __RETVAL1   0x000f47       data     extern E:\c18v3.46\pic18-lt\cxx-framework\src\extended\math\cmath18.asm
                __RETVAL2   0x000f48       data     extern E:\c18v3.46\pic18-lt\cxx-framework\src\extended\math\cmath18.asm
                __RETVAL3   0x000f49       data     extern E:\c18v3.46\pic18-lt\cxx-framework\src\extended\math\cmath18.asm
                      crc   0x000f4a       data     static L:\solarpic_rewrite\swm8722\solar18f8722\sdspi.c
                    retry   0x000f4c       data     static L:\solarpic_rewrite\swm8722\solar18f8722\sdspi.c
                    retry   0x000f4d       data     static L:\solarpic_rewrite\swm8722\solar18f8722\sdspi.c
                        x   0x000f4e       data     static L:\solarpic_rewrite\swm8722\solar18f8722\model.c
                        y   0x000f4f       data     static L:\solarpic_rewrite\swm8722\solar18f8722\model.c
                    errno   0x000f50       data     extern E:\c18v3.46\pic18-lt\cxx-framework\src\extended\stdclib\errno.c
                        i   0x000f52       data     static L:\solarpic_rewrite\swm8722\solar18f8722\daq.c
                    H_tmp   0x000f54       data     static L:\solarpic_rewrite\swm8722\solar18f8722\crit.c
                    H_tmp   0x000f55       data     static L:\solarpic_rewrite\swm8722\solar18f8722\crit.c
            DelayCounter2   0x000f56       data     extern E:\c18v3.46\pic18-lt\cxx-framework\src\extended\delays\delayd2.asm
            DelayCounter1   0x000f57       data     extern E:\c18v3.46\pic18-lt\cxx-framework\src\extended\delays\delayd1.asm
            USART2_Status   0x000f58       data     extern E:\c18v3.46\pic18-lt\cxx-framework\src\pmc_common\USART\u2defs.c
            USART1_Status   0x000f59       data     extern E:\c18v3.46\pic18-lt\cxx-framework\src\pmc_common\USART\u1defs.c
                        z   0x000f5a       data     static L:\solarpic_rewrite\swm8722\solar18f8722\hwconf.c
             SSP2CON2bits   0x000f62       data     extern E:\c18v3.46\pic18-lt\cxx-framework\src\extended\proc\p18f8722.asm
                 SSP2CON2   0x000f62       data     extern E:\c18v3.46\pic18-lt\cxx-framework\src\extended\proc\p18f8722.asm
             SSP2CON1bits   0x000f63       data     extern E:\c18v3.46\pic18-lt\cxx-framework\src\extended\proc\p18f8722.asm
                 SSP2CON1   0x000f63       data     extern E:\c18v3.46\pic18-lt\cxx-framework\src\extended\proc\p18f8722.asm
                 SSP2STAT   0x000f64       data     extern E:\c18v3.46\pic18-lt\cxx-framework\src\extended\proc\p18f8722.asm
             SSP2STATbits   0x000f64       data     extern E:\c18v3.46\pic18-lt\cxx-framework\src\extended\proc\p18f8722.asm
                  SSP2ADD   0x000f65       data     extern E:\c18v3.46\pic18-lt\cxx-framework\src\extended\proc\p18f8722.asm
                  SSP2BUF   0x000f66       data     extern E:\c18v3.46\pic18-lt\cxx-framework\src\extended\proc\p18f8722.asm
             ECCP2DELbits   0x000f67       data     extern E:\c18v3.46\pic18-lt\cxx-framework\src\extended\proc\p18f8722.asm
                 ECCP2DEL   0x000f67       data     extern E:\c18v3.46\pic18-lt\cxx-framework\src\extended\proc\p18f8722.asm
              ECCP2ASbits   0x000f68       data     extern E:\c18v3.46\pic18-lt\cxx-framework\src\extended\proc\p18f8722.asm
                  ECCP2AS   0x000f68       data     extern E:\c18v3.46\pic18-lt\cxx-framework\src\extended\proc\p18f8722.asm
             ECCP3DELbits   0x000f69       data     extern E:\c18v3.46\pic18-lt\cxx-framework\src\extended\proc\p18f8722.asm
                 ECCP3DEL   0x000f69       data     extern E:\c18v3.46\pic18-lt\cxx-framework\src\extended\proc\p18f8722.asm
              ECCP3ASbits   0x000f6a       data     extern E:\c18v3.46\pic18-lt\cxx-framework\src\extended\proc\p18f8722.asm
                  ECCP3AS   0x000f6a       data     extern E:\c18v3.46\pic18-lt\cxx-framework\src\extended\proc\p18f8722.asm
               RCSTA2bits   0x000f6b       data     extern E:\c18v3.46\pic18-lt\cxx-framework\src\extended\proc\p18f8722.asm
                   RCSTA2   0x000f6b       data     extern E:\c18v3.46\pic18-lt\cxx-framework\src\extended\proc\p18f8722.asm
                   TXSTA2   0x000f6c       data     extern E:\c18v3.46\pic18-lt\cxx-framework\src\extended\proc\p18f8722.asm
               TXSTA2bits   0x000f6c       data     extern E:\c18v3.46\pic18-lt\cxx-framework\src\extended\proc\p18f8722.asm
                   TXREG2   0x000f6d       data     extern E:\c18v3.46\pic18-lt\cxx-framework\src\extended\proc\p18f8722.asm
                   RCREG2   0x000f6e       data     extern E:\c18v3.46\pic18-lt\cxx-framework\src\extended\proc\p18f8722.asm
                   SPBRG2   0x000f6f       data     extern E:\c18v3.46\pic18-lt\cxx-framework\src\extended\proc\p18f8722.asm
                  CCP5CON   0x000f70       data     extern E:\c18v3.46\pic18-lt\cxx-framework\src\extended\proc\p18f8722.asm
              CCP5CONbits   0x000f70       data     extern E:\c18v3.46\pic18-lt\cxx-framework\src\extended\proc\p18f8722.asm
                   CCPR5L   0x000f71       data     extern E:\c18v3.46\pic18-lt\cxx-framework\src\extended\proc\p18f8722.asm
                    CCPR5   0x000f71       data     extern E:\c18v3.46\pic18-lt\cxx-framework\src\extended\proc\p18f8722.asm
                   CCPR5H   0x000f72       data     extern E:\c18v3.46\pic18-lt\cxx-framework\src\extended\proc\p18f8722.asm
              CCP4CONbits   0x000f73       data     extern E:\c18v3.46\pic18-lt\cxx-framework\src\extended\proc\p18f8722.asm
                  CCP4CON   0x000f73       data     extern E:\c18v3.46\pic18-lt\cxx-framework\src\extended\proc\p18f8722.asm
                   CCPR4L   0x000f74       data     extern E:\c18v3.46\pic18-lt\cxx-framework\src\extended\proc\p18f8722.asm
                    CCPR4   0x000f74       data     extern E:\c18v3.46\pic18-lt\cxx-framework\src\extended\proc\p18f8722.asm
                   CCPR4H   0x000f75       data     extern E:\c18v3.46\pic18-lt\cxx-framework\src\extended\proc\p18f8722.asm
                    T4CON   0x000f76       data     extern E:\c18v3.46\pic18-lt\cxx-framework\src\extended\proc\p18f8722.asm
                T4CONbits   0x000f76       data     extern E:\c18v3.46\pic18-lt\cxx-framework\src\extended\proc\p18f8722.asm
                      PR4   0x000f77       data     extern E:\c18v3.46\pic18-lt\cxx-framework\src\extended\proc\p18f8722.asm
                     TMR4   0x000f78       data     extern E:\c18v3.46\pic18-lt\cxx-framework\src\extended\proc\p18f8722.asm
                 ECCP1DEL   0x000f79       data     extern E:\c18v3.46\pic18-lt\cxx-framework\src\extended\proc\p18f8722.asm
             ECCP1DELbits   0x000f79       data     extern E:\c18v3.46\pic18-lt\cxx-framework\src\extended\proc\p18f8722.asm
             BAUDCON2bits   0x000f7c       data     extern E:\c18v3.46\pic18-lt\cxx-framework\src\extended\proc\p18f8722.asm
                 BAUDCON2   0x000f7c       data     extern E:\c18v3.46\pic18-lt\cxx-framework\src\extended\proc\p18f8722.asm
                  SPBRGH2   0x000f7d       data     extern E:\c18v3.46\pic18-lt\cxx-framework\src\extended\proc\p18f8722.asm
             BAUDCON1bits   0x000f7e       data     extern E:\c18v3.46\pic18-lt\cxx-framework\src\extended\proc\p18f8722.asm
                 BAUDCON1   0x000f7e       data     extern E:\c18v3.46\pic18-lt\cxx-framework\src\extended\proc\p18f8722.asm
              BAUDCONbits   0x000f7e       data     extern E:\c18v3.46\pic18-lt\cxx-framework\src\extended\proc\p18f8722.asm
                  BAUDCON   0x000f7e       data     extern E:\c18v3.46\pic18-lt\cxx-framework\src\extended\proc\p18f8722.asm
                   SPBRGH   0x000f7f       data     extern E:\c18v3.46\pic18-lt\cxx-framework\src\extended\proc\p18f8722.asm
                  SPBRGH1   0x000f7f       data     extern E:\c18v3.46\pic18-lt\cxx-framework\src\extended\proc\p18f8722.asm
                PORTAbits   0x000f80       data     extern E:\c18v3.46\pic18-lt\cxx-framework\src\extended\proc\p18f8722.asm
                    PORTA   0x000f80       data     extern E:\c18v3.46\pic18-lt\cxx-framework\src\extended\proc\p18f8722.asm
                PORTBbits   0x000f81       data     extern E:\c18v3.46\pic18-lt\cxx-framework\src\extended\proc\p18f8722.asm
                    PORTB   0x000f81       data     extern E:\c18v3.46\pic18-lt\cxx-framework\src\extended\proc\p18f8722.asm
                PORTCbits   0x000f82       data     extern E:\c18v3.46\pic18-lt\cxx-framework\src\extended\proc\p18f8722.asm
                    PORTC   0x000f82       data     extern E:\c18v3.46\pic18-lt\cxx-framework\src\extended\proc\p18f8722.asm
                PORTDbits   0x000f83       data     extern E:\c18v3.46\pic18-lt\cxx-framework\src\extended\proc\p18f8722.asm
                    PORTD   0x000f83       data     extern E:\c18v3.46\pic18-lt\cxx-framework\src\extended\proc\p18f8722.asm
                PORTEbits   0x000f84       data     extern E:\c18v3.46\pic18-lt\cxx-framework\src\extended\proc\p18f8722.asm
                    PORTE   0x000f84       data     extern E:\c18v3.46\pic18-lt\cxx-framework\src\extended\proc\p18f8722.asm
                    PORTF   0x000f85       data     extern E:\c18v3.46\pic18-lt\cxx-framework\src\extended\proc\p18f8722.asm
                PORTFbits   0x000f85       data     extern E:\c18v3.46\pic18-lt\cxx-framework\src\extended\proc\p18f8722.asm
                    PORTG   0x000f86       data     extern E:\c18v3.46\pic18-lt\cxx-framework\src\extended\proc\p18f8722.asm
                PORTGbits   0x000f86       data     extern E:\c18v3.46\pic18-lt\cxx-framework\src\extended\proc\p18f8722.asm
                PORTHbits   0x000f87       data     extern E:\c18v3.46\pic18-lt\cxx-framework\src\extended\proc\p18f8722.asm
                    PORTH   0x000f87       data     extern E:\c18v3.46\pic18-lt\cxx-framework\src\extended\proc\p18f8722.asm
                PORTJbits   0x000f88       data     extern E:\c18v3.46\pic18-lt\cxx-framework\src\extended\proc\p18f8722.asm
                    PORTJ   0x000f88       data     extern E:\c18v3.46\pic18-lt\cxx-framework\src\extended\proc\p18f8722.asm
                     LATA   0x000f89       data     extern E:\c18v3.46\pic18-lt\cxx-framework\src\extended\proc\p18f8722.asm
                 LATAbits   0x000f89       data     extern E:\c18v3.46\pic18-lt\cxx-framework\src\extended\proc\p18f8722.asm
                 LATBbits   0x000f8a       data     extern E:\c18v3.46\pic18-lt\cxx-framework\src\extended\proc\p18f8722.asm
                     LATB   0x000f8a       data     extern E:\c18v3.46\pic18-lt\cxx-framework\src\extended\proc\p18f8722.asm
                     LATC   0x000f8b       data     extern E:\c18v3.46\pic18-lt\cxx-framework\src\extended\proc\p18f8722.asm
                 LATCbits   0x000f8b       data     extern E:\c18v3.46\pic18-lt\cxx-framework\src\extended\proc\p18f8722.asm
                     LATD   0x000f8c       data     extern E:\c18v3.46\pic18-lt\cxx-framework\src\extended\proc\p18f8722.asm
                 LATDbits   0x000f8c       data     extern E:\c18v3.46\pic18-lt\cxx-framework\src\extended\proc\p18f8722.asm
                     LATE   0x000f8d       data     extern E:\c18v3.46\pic18-lt\cxx-framework\src\extended\proc\p18f8722.asm
                 LATEbits   0x000f8d       data     extern E:\c18v3.46\pic18-lt\cxx-framework\src\extended\proc\p18f8722.asm
                     LATF   0x000f8e       data     extern E:\c18v3.46\pic18-lt\cxx-framework\src\extended\proc\p18f8722.asm
                 LATFbits   0x000f8e       data     extern E:\c18v3.46\pic18-lt\cxx-framework\src\extended\proc\p18f8722.asm
                 LATGbits   0x000f8f       data     extern E:\c18v3.46\pic18-lt\cxx-framework\src\extended\proc\p18f8722.asm
                     LATG   0x000f8f       data     extern E:\c18v3.46\pic18-lt\cxx-framework\src\extended\proc\p18f8722.asm
                     LATH   0x000f90       data     extern E:\c18v3.46\pic18-lt\cxx-framework\src\extended\proc\p18f8722.asm
                 LATHbits   0x000f90       data     extern E:\c18v3.46\pic18-lt\cxx-framework\src\extended\proc\p18f8722.asm
                     LATJ   0x000f91       data     extern E:\c18v3.46\pic18-lt\cxx-framework\src\extended\proc\p18f8722.asm
                 LATJbits   0x000f91       data     extern E:\c18v3.46\pic18-lt\cxx-framework\src\extended\proc\p18f8722.asm
                    TRISA   0x000f92       data     extern E:\c18v3.46\pic18-lt\cxx-framework\src\extended\proc\p18f8722.asm
                TRISAbits   0x000f92       data     extern E:\c18v3.46\pic18-lt\cxx-framework\src\extended\proc\p18f8722.asm
                     DDRA   0x000f92       data     extern E:\c18v3.46\pic18-lt\cxx-framework\src\extended\proc\p18f8722.asm
                 DDRAbits   0x000f92       data     extern E:\c18v3.46\pic18-lt\cxx-framework\src\extended\proc\p18f8722.asm
                    TRISB   0x000f93       data     extern E:\c18v3.46\pic18-lt\cxx-framework\src\extended\proc\p18f8722.asm
                TRISBbits   0x000f93       data     extern E:\c18v3.46\pic18-lt\cxx-framework\src\extended\proc\p18f8722.asm
                     DDRB   0x000f93       data     extern E:\c18v3.46\pic18-lt\cxx-framework\src\extended\proc\p18f8722.asm
                 DDRBbits   0x000f93       data     extern E:\c18v3.46\pic18-lt\cxx-framework\src\extended\proc\p18f8722.asm
                    TRISC   0x000f94       data     extern E:\c18v3.46\pic18-lt\cxx-framework\src\extended\proc\p18f8722.asm
                 DDRCbits   0x000f94       data     extern E:\c18v3.46\pic18-lt\cxx-framework\src\extended\proc\p18f8722.asm
                     DDRC   0x000f94       data     extern E:\c18v3.46\pic18-lt\cxx-framework\src\extended\proc\p18f8722.asm
                TRISCbits   0x000f94       data     extern E:\c18v3.46\pic18-lt\cxx-framework\src\extended\proc\p18f8722.asm
                TRISDbits   0x000f95       data     extern E:\c18v3.46\pic18-lt\cxx-framework\src\extended\proc\p18f8722.asm
                    TRISD   0x000f95       data     extern E:\c18v3.46\pic18-lt\cxx-framework\src\extended\proc\p18f8722.asm
                 DDRDbits   0x000f95       data     extern E:\c18v3.46\pic18-lt\cxx-framework\src\extended\proc\p18f8722.asm
                     DDRD   0x000f95       data     extern E:\c18v3.46\pic18-lt\cxx-framework\src\extended\proc\p18f8722.asm
                     DDRE   0x000f96       data     extern E:\c18v3.46\pic18-lt\cxx-framework\src\extended\proc\p18f8722.asm
                 DDREbits   0x000f96       data     extern E:\c18v3.46\pic18-lt\cxx-framework\src\extended\proc\p18f8722.asm
                    TRISE   0x000f96       data     extern E:\c18v3.46\pic18-lt\cxx-framework\src\extended\proc\p18f8722.asm
                TRISEbits   0x000f96       data     extern E:\c18v3.46\pic18-lt\cxx-framework\src\extended\proc\p18f8722.asm
                     DDRF   0x000f97       data     extern E:\c18v3.46\pic18-lt\cxx-framework\src\extended\proc\p18f8722.asm
                 DDRFbits   0x000f97       data     extern E:\c18v3.46\pic18-lt\cxx-framework\src\extended\proc\p18f8722.asm
                TRISFbits   0x000f97       data     extern E:\c18v3.46\pic18-lt\cxx-framework\src\extended\proc\p18f8722.asm
                    TRISF   0x000f97       data     extern E:\c18v3.46\pic18-lt\cxx-framework\src\extended\proc\p18f8722.asm
                     DDRG   0x000f98       data     extern E:\c18v3.46\pic18-lt\cxx-framework\src\extended\proc\p18f8722.asm
                 DDRGbits   0x000f98       data     extern E:\c18v3.46\pic18-lt\cxx-framework\src\extended\proc\p18f8722.asm
                TRISGbits   0x000f98       data     extern E:\c18v3.46\pic18-lt\cxx-framework\src\extended\proc\p18f8722.asm
                    TRISG   0x000f98       data     extern E:\c18v3.46\pic18-lt\cxx-framework\src\extended\proc\p18f8722.asm
                     DDRH   0x000f99       data     extern E:\c18v3.46\pic18-lt\cxx-framework\src\extended\proc\p18f8722.asm
                 DDRHbits   0x000f99       data     extern E:\c18v3.46\pic18-lt\cxx-framework\src\extended\proc\p18f8722.asm
                    TRISH   0x000f99       data     extern E:\c18v3.46\pic18-lt\cxx-framework\src\extended\proc\p18f8722.asm
                TRISHbits   0x000f99       data     extern E:\c18v3.46\pic18-lt\cxx-framework\src\extended\proc\p18f8722.asm
                     DDRJ   0x000f9a       data     extern E:\c18v3.46\pic18-lt\cxx-framework\src\extended\proc\p18f8722.asm
                 DDRJbits   0x000f9a       data     extern E:\c18v3.46\pic18-lt\cxx-framework\src\extended\proc\p18f8722.asm
                    TRISJ   0x000f9a       data     extern E:\c18v3.46\pic18-lt\cxx-framework\src\extended\proc\p18f8722.asm
                TRISJbits   0x000f9a       data     extern E:\c18v3.46\pic18-lt\cxx-framework\src\extended\proc\p18f8722.asm
                  OSCTUNE   0x000f9b       data     extern E:\c18v3.46\pic18-lt\cxx-framework\src\extended\proc\p18f8722.asm
              OSCTUNEbits   0x000f9b       data     extern E:\c18v3.46\pic18-lt\cxx-framework\src\extended\proc\p18f8722.asm
                   MEMCON   0x000f9c       data     extern E:\c18v3.46\pic18-lt\cxx-framework\src\extended\proc\p18f8722.asm
               MEMCONbits   0x000f9c       data     extern E:\c18v3.46\pic18-lt\cxx-framework\src\extended\proc\p18f8722.asm
                     PIE1   0x000f9d       data     extern E:\c18v3.46\pic18-lt\cxx-framework\src\extended\proc\p18f8722.asm
                 PIE1bits   0x000f9d       data     extern E:\c18v3.46\pic18-lt\cxx-framework\src\extended\proc\p18f8722.asm
                     PIR1   0x000f9e       data     extern E:\c18v3.46\pic18-lt\cxx-framework\src\extended\proc\p18f8722.asm
                 PIR1bits   0x000f9e       data     extern E:\c18v3.46\pic18-lt\cxx-framework\src\extended\proc\p18f8722.asm
                 IPR1bits   0x000f9f       data     extern E:\c18v3.46\pic18-lt\cxx-framework\src\extended\proc\p18f8722.asm
                     IPR1   0x000f9f       data     extern E:\c18v3.46\pic18-lt\cxx-framework\src\extended\proc\p18f8722.asm
                     PIE2   0x000fa0       data     extern E:\c18v3.46\pic18-lt\cxx-framework\src\extended\proc\p18f8722.asm
                 PIE2bits   0x000fa0       data     extern E:\c18v3.46\pic18-lt\cxx-framework\src\extended\proc\p18f8722.asm
                 PIR2bits   0x000fa1       data     extern E:\c18v3.46\pic18-lt\cxx-framework\src\extended\proc\p18f8722.asm
                     PIR2   0x000fa1       data     extern E:\c18v3.46\pic18-lt\cxx-framework\src\extended\proc\p18f8722.asm
                     IPR2   0x000fa2       data     extern E:\c18v3.46\pic18-lt\cxx-framework\src\extended\proc\p18f8722.asm
                 IPR2bits   0x000fa2       data     extern E:\c18v3.46\pic18-lt\cxx-framework\src\extended\proc\p18f8722.asm
                 PIE3bits   0x000fa3       data     extern E:\c18v3.46\pic18-lt\cxx-framework\src\extended\proc\p18f8722.asm
                     PIE3   0x000fa3       data     extern E:\c18v3.46\pic18-lt\cxx-framework\src\extended\proc\p18f8722.asm
                     PIR3   0x000fa4       data     extern E:\c18v3.46\pic18-lt\cxx-framework\src\extended\proc\p18f8722.asm
                 PIR3bits   0x000fa4       data     extern E:\c18v3.46\pic18-lt\cxx-framework\src\extended\proc\p18f8722.asm
                     IPR3   0x000fa5       data     extern E:\c18v3.46\pic18-lt\cxx-framework\src\extended\proc\p18f8722.asm
                 IPR3bits   0x000fa5       data     extern E:\c18v3.46\pic18-lt\cxx-framework\src\extended\proc\p18f8722.asm
               EECON1bits   0x000fa6       data     extern E:\c18v3.46\pic18-lt\cxx-framework\src\extended\proc\p18f8722.asm
                   EECON1   0x000fa6       data     extern E:\c18v3.46\pic18-lt\cxx-framework\src\extended\proc\p18f8722.asm
                   EECON2   0x000fa7       data     extern E:\c18v3.46\pic18-lt\cxx-framework\src\extended\proc\p18f8722.asm
                   EEDATA   0x000fa8       data     extern E:\c18v3.46\pic18-lt\cxx-framework\src\extended\proc\p18f8722.asm
                    EEADR   0x000fa9       data     extern E:\c18v3.46\pic18-lt\cxx-framework\src\extended\proc\p18f8722.asm
                   EEADRH   0x000faa       data     extern E:\c18v3.46\pic18-lt\cxx-framework\src\extended\proc\p18f8722.asm
               RCSTA1bits   0x000fab       data     extern E:\c18v3.46\pic18-lt\cxx-framework\src\extended\proc\p18f8722.asm
                RCSTAbits   0x000fab       data     extern E:\c18v3.46\pic18-lt\cxx-framework\src\extended\proc\p18f8722.asm
                   RCSTA1   0x000fab       data     extern E:\c18v3.46\pic18-lt\cxx-framework\src\extended\proc\p18f8722.asm
                    RCSTA   0x000fab       data     extern E:\c18v3.46\pic18-lt\cxx-framework\src\extended\proc\p18f8722.asm
                    TXSTA   0x000fac       data     extern E:\c18v3.46\pic18-lt\cxx-framework\src\extended\proc\p18f8722.asm
                   TXSTA1   0x000fac       data     extern E:\c18v3.46\pic18-lt\cxx-framework\src\extended\proc\p18f8722.asm
               TXSTA1bits   0x000fac       data     extern E:\c18v3.46\pic18-lt\cxx-framework\src\extended\proc\p18f8722.asm
                TXSTAbits   0x000fac       data     extern E:\c18v3.46\pic18-lt\cxx-framework\src\extended\proc\p18f8722.asm
                    TXREG   0x000fad       data     extern E:\c18v3.46\pic18-lt\cxx-framework\src\extended\proc\p18f8722.asm
                   TXREG1   0x000fad       data     extern E:\c18v3.46\pic18-lt\cxx-framework\src\extended\proc\p18f8722.asm
                    RCREG   0x000fae       data     extern E:\c18v3.46\pic18-lt\cxx-framework\src\extended\proc\p18f8722.asm
                   RCREG1   0x000fae       data     extern E:\c18v3.46\pic18-lt\cxx-framework\src\extended\proc\p18f8722.asm
                   SPBRG1   0x000faf       data     extern E:\c18v3.46\pic18-lt\cxx-framework\src\extended\proc\p18f8722.asm
                    SPBRG   0x000faf       data     extern E:\c18v3.46\pic18-lt\cxx-framework\src\extended\proc\p18f8722.asm
                   PSPCON   0x000fb0       data     extern E:\c18v3.46\pic18-lt\cxx-framework\src\extended\proc\p18f8722.asm
               PSPCONbits   0x000fb0       data     extern E:\c18v3.46\pic18-lt\cxx-framework\src\extended\proc\p18f8722.asm
                    T3CON   0x000fb1       data     extern E:\c18v3.46\pic18-lt\cxx-framework\src\extended\proc\p18f8722.asm
                T3CONbits   0x000fb1       data     extern E:\c18v3.46\pic18-lt\cxx-framework\src\extended\proc\p18f8722.asm
                    TMR3L   0x000fb2       data     extern E:\c18v3.46\pic18-lt\cxx-framework\src\extended\proc\p18f8722.asm
                    TMR3H   0x000fb3       data     extern E:\c18v3.46\pic18-lt\cxx-framework\src\extended\proc\p18f8722.asm
                    CMCON   0x000fb4       data     extern E:\c18v3.46\pic18-lt\cxx-framework\src\extended\proc\p18f8722.asm
                CMCONbits   0x000fb4       data     extern E:\c18v3.46\pic18-lt\cxx-framework\src\extended\proc\p18f8722.asm
               CVRCONbits   0x000fb5       data     extern E:\c18v3.46\pic18-lt\cxx-framework\src\extended\proc\p18f8722.asm
                   CVRCON   0x000fb5       data     extern E:\c18v3.46\pic18-lt\cxx-framework\src\extended\proc\p18f8722.asm
                  ECCP1AS   0x000fb6       data     extern E:\c18v3.46\pic18-lt\cxx-framework\src\extended\proc\p18f8722.asm
              ECCP1ASbits   0x000fb6       data     extern E:\c18v3.46\pic18-lt\cxx-framework\src\extended\proc\p18f8722.asm
                  CCP3CON   0x000fb7       data     extern E:\c18v3.46\pic18-lt\cxx-framework\src\extended\proc\p18f8722.asm
              CCP3CONbits   0x000fb7       data     extern E:\c18v3.46\pic18-lt\cxx-framework\src\extended\proc\p18f8722.asm
                 ECCP3CON   0x000fb7       data     extern E:\c18v3.46\pic18-lt\cxx-framework\src\extended\proc\p18f8722.asm
             ECCP3CONbits   0x000fb7       data     extern E:\c18v3.46\pic18-lt\cxx-framework\src\extended\proc\p18f8722.asm
                   CCPR3L   0x000fb8       data     extern E:\c18v3.46\pic18-lt\cxx-framework\src\extended\proc\p18f8722.asm
                    CCPR3   0x000fb8       data     extern E:\c18v3.46\pic18-lt\cxx-framework\src\extended\proc\p18f8722.asm
                   CCPR3H   0x000fb9       data     extern E:\c18v3.46\pic18-lt\cxx-framework\src\extended\proc\p18f8722.asm
                  CCP2CON   0x000fba       data     extern E:\c18v3.46\pic18-lt\cxx-framework\src\extended\proc\p18f8722.asm
              CCP2CONbits   0x000fba       data     extern E:\c18v3.46\pic18-lt\cxx-framework\src\extended\proc\p18f8722.asm
                 ECCP2CON   0x000fba       data     extern E:\c18v3.46\pic18-lt\cxx-framework\src\extended\proc\p18f8722.asm
             ECCP2CONbits   0x000fba       data     extern E:\c18v3.46\pic18-lt\cxx-framework\src\extended\proc\p18f8722.asm
                    CCPR2   0x000fbb       data     extern E:\c18v3.46\pic18-lt\cxx-framework\src\extended\proc\p18f8722.asm
                   CCPR2L   0x000fbb       data     extern E:\c18v3.46\pic18-lt\cxx-framework\src\extended\proc\p18f8722.asm
                   CCPR2H   0x000fbc       data     extern E:\c18v3.46\pic18-lt\cxx-framework\src\extended\proc\p18f8722.asm
              CCP1CONbits   0x000fbd       data     extern E:\c18v3.46\pic18-lt\cxx-framework\src\extended\proc\p18f8722.asm
                  CCP1CON   0x000fbd       data     extern E:\c18v3.46\pic18-lt\cxx-framework\src\extended\proc\p18f8722.asm
                 ECCP1CON   0x000fbd       data     extern E:\c18v3.46\pic18-lt\cxx-framework\src\extended\proc\p18f8722.asm
             ECCP1CONbits   0x000fbd       data     extern E:\c18v3.46\pic18-lt\cxx-framework\src\extended\proc\p18f8722.asm
                    CCPR1   0x000fbe       data     extern E:\c18v3.46\pic18-lt\cxx-framework\src\extended\proc\p18f8722.asm
                   CCPR1L   0x000fbe       data     extern E:\c18v3.46\pic18-lt\cxx-framework\src\extended\proc\p18f8722.asm
                   CCPR1H   0x000fbf       data     extern E:\c18v3.46\pic18-lt\cxx-framework\src\extended\proc\p18f8722.asm
               ADCON2bits   0x000fc0       data     extern E:\c18v3.46\pic18-lt\cxx-framework\src\extended\proc\p18f8722.asm
                   ADCON2   0x000fc0       data     extern E:\c18v3.46\pic18-lt\cxx-framework\src\extended\proc\p18f8722.asm
               ADCON1bits   0x000fc1       data     extern E:\c18v3.46\pic18-lt\cxx-framework\src\extended\proc\p18f8722.asm
                   ADCON1   0x000fc1       data     extern E:\c18v3.46\pic18-lt\cxx-framework\src\extended\proc\p18f8722.asm
               ADCON0bits   0x000fc2       data     extern E:\c18v3.46\pic18-lt\cxx-framework\src\extended\proc\p18f8722.asm
                   ADCON0   0x000fc2       data     extern E:\c18v3.46\pic18-lt\cxx-framework\src\extended\proc\p18f8722.asm
                    ADRES   0x000fc3       data     extern E:\c18v3.46\pic18-lt\cxx-framework\src\extended\proc\p18f8722.asm
                   ADRESL   0x000fc3       data     extern E:\c18v3.46\pic18-lt\cxx-framework\src\extended\proc\p18f8722.asm
                   ADRESH   0x000fc4       data     extern E:\c18v3.46\pic18-lt\cxx-framework\src\extended\proc\p18f8722.asm
                  SSPCON2   0x000fc5       data     extern E:\c18v3.46\pic18-lt\cxx-framework\src\extended\proc\p18f8722.asm
                 SSP1CON2   0x000fc5       data     extern E:\c18v3.46\pic18-lt\cxx-framework\src\extended\proc\p18f8722.asm
             SSP1CON2bits   0x000fc5       data     extern E:\c18v3.46\pic18-lt\cxx-framework\src\extended\proc\p18f8722.asm
              SSPCON2bits   0x000fc5       data     extern E:\c18v3.46\pic18-lt\cxx-framework\src\extended\proc\p18f8722.asm
                  SSPCON1   0x000fc6       data     extern E:\c18v3.46\pic18-lt\cxx-framework\src\extended\proc\p18f8722.asm
                 SSP1CON1   0x000fc6       data     extern E:\c18v3.46\pic18-lt\cxx-framework\src\extended\proc\p18f8722.asm
             SSP1CON1bits   0x000fc6       data     extern E:\c18v3.46\pic18-lt\cxx-framework\src\extended\proc\p18f8722.asm
              SSPCON1bits   0x000fc6       data     extern E:\c18v3.46\pic18-lt\cxx-framework\src\extended\proc\p18f8722.asm
                 SSP1STAT   0x000fc7       data     extern E:\c18v3.46\pic18-lt\cxx-framework\src\extended\proc\p18f8722.asm
             SSP1STATbits   0x000fc7       data     extern E:\c18v3.46\pic18-lt\cxx-framework\src\extended\proc\p18f8722.asm
                  SSPSTAT   0x000fc7       data     extern E:\c18v3.46\pic18-lt\cxx-framework\src\extended\proc\p18f8722.asm
              SSPSTATbits   0x000fc7       data     extern E:\c18v3.46\pic18-lt\cxx-framework\src\extended\proc\p18f8722.asm
                   SSPADD   0x000fc8       data     extern E:\c18v3.46\pic18-lt\cxx-framework\src\extended\proc\p18f8722.asm
                  SSP1ADD   0x000fc8       data     extern E:\c18v3.46\pic18-lt\cxx-framework\src\extended\proc\p18f8722.asm
                  SSP1BUF   0x000fc9       data     extern E:\c18v3.46\pic18-lt\cxx-framework\src\extended\proc\p18f8722.asm
                   SSPBUF   0x000fc9       data     extern E:\c18v3.46\pic18-lt\cxx-framework\src\extended\proc\p18f8722.asm
                    T2CON   0x000fca       data     extern E:\c18v3.46\pic18-lt\cxx-framework\src\extended\proc\p18f8722.asm
                T2CONbits   0x000fca       data     extern E:\c18v3.46\pic18-lt\cxx-framework\src\extended\proc\p18f8722.asm
                      PR2   0x000fcb       data     extern E:\c18v3.46\pic18-lt\cxx-framework\src\extended\proc\p18f8722.asm
                     TMR2   0x000fcc       data     extern E:\c18v3.46\pic18-lt\cxx-framework\src\extended\proc\p18f8722.asm
                    T1CON   0x000fcd       data     extern E:\c18v3.46\pic18-lt\cxx-framework\src\extended\proc\p18f8722.asm
                T1CONbits   0x000fcd       data     extern E:\c18v3.46\pic18-lt\cxx-framework\src\extended\proc\p18f8722.asm
                    TMR1L   0x000fce       data     extern E:\c18v3.46\pic18-lt\cxx-framework\src\extended\proc\p18f8722.asm
                    TMR1H   0x000fcf       data     extern E:\c18v3.46\pic18-lt\cxx-framework\src\extended\proc\p18f8722.asm
                 RCONbits   0x000fd0       data     extern E:\c18v3.46\pic18-lt\cxx-framework\src\extended\proc\p18f8722.asm
                     RCON   0x000fd0       data     extern E:\c18v3.46\pic18-lt\cxx-framework\src\extended\proc\p18f8722.asm
                   WDTCON   0x000fd1       data     extern E:\c18v3.46\pic18-lt\cxx-framework\src\extended\proc\p18f8722.asm
               WDTCONbits   0x000fd1       data     extern E:\c18v3.46\pic18-lt\cxx-framework\src\extended\proc\p18f8722.asm
              HLVDCONbits   0x000fd2       data     extern E:\c18v3.46\pic18-lt\cxx-framework\src\extended\proc\p18f8722.asm
                  HLVDCON   0x000fd2       data     extern E:\c18v3.46\pic18-lt\cxx-framework\src\extended\proc\p18f8722.asm
                   LVDCON   0x000fd2       data     extern E:\c18v3.46\pic18-lt\cxx-framework\src\extended\proc\p18f8722.asm
               LVDCONbits   0x000fd2       data     extern E:\c18v3.46\pic18-lt\cxx-framework\src\extended\proc\p18f8722.asm
               OSCCONbits   0x000fd3       data     extern E:\c18v3.46\pic18-lt\cxx-framework\src\extended\proc\p18f8722.asm
                   OSCCON   0x000fd3       data     extern E:\c18v3.46\pic18-lt\cxx-framework\src\extended\proc\p18f8722.asm
                T0CONbits   0x000fd5       data     extern E:\c18v3.46\pic18-lt\cxx-framework\src\extended\proc\p18f8722.asm
                    T0CON   0x000fd5       data     extern E:\c18v3.46\pic18-lt\cxx-framework\src\extended\proc\p18f8722.asm
                    TMR0L   0x000fd6       data     extern E:\c18v3.46\pic18-lt\cxx-framework\src\extended\proc\p18f8722.asm
                    TMR0H   0x000fd7       data     extern E:\c18v3.46\pic18-lt\cxx-framework\src\extended\proc\p18f8722.asm
                   STATUS   0x000fd8       data     extern E:\c18v3.46\pic18-lt\cxx-framework\src\extended\proc\p18f8722.asm
               STATUSbits   0x000fd8       data     extern E:\c18v3.46\pic18-lt\cxx-framework\src\extended\proc\p18f8722.asm
                    FSR2L   0x000fd9       data     extern E:\c18v3.46\pic18-lt\cxx-framework\src\extended\proc\p18f8722.asm
                     FSR2   0x000fd9       data     extern E:\c18v3.46\pic18-lt\cxx-framework\src\extended\proc\p18f8722.asm
                    FSR2H   0x000fda       data     extern E:\c18v3.46\pic18-lt\cxx-framework\src\extended\proc\p18f8722.asm
                   PLUSW2   0x000fdb       data     extern E:\c18v3.46\pic18-lt\cxx-framework\src\extended\proc\p18f8722.asm
                  PREINC2   0x000fdc       data     extern E:\c18v3.46\pic18-lt\cxx-framework\src\extended\proc\p18f8722.asm
                 POSTDEC2   0x000fdd       data     extern E:\c18v3.46\pic18-lt\cxx-framework\src\extended\proc\p18f8722.asm
                 POSTINC2   0x000fde       data     extern E:\c18v3.46\pic18-lt\cxx-framework\src\extended\proc\p18f8722.asm
                    INDF2   0x000fdf       data     extern E:\c18v3.46\pic18-lt\cxx-framework\src\extended\proc\p18f8722.asm
                      BSR   0x000fe0       data     extern E:\c18v3.46\pic18-lt\cxx-framework\src\extended\proc\p18f8722.asm
                     FSR1   0x000fe1       data     extern E:\c18v3.46\pic18-lt\cxx-framework\src\extended\proc\p18f8722.asm
                    FSR1L   0x000fe1       data     extern E:\c18v3.46\pic18-lt\cxx-framework\src\extended\proc\p18f8722.asm
                    FSR1H   0x000fe2       data     extern E:\c18v3.46\pic18-lt\cxx-framework\src\extended\proc\p18f8722.asm
                   PLUSW1   0x000fe3       data     extern E:\c18v3.46\pic18-lt\cxx-framework\src\extended\proc\p18f8722.asm
                  PREINC1   0x000fe4       data     extern E:\c18v3.46\pic18-lt\cxx-framework\src\extended\proc\p18f8722.asm
                 POSTDEC1   0x000fe5       data     extern E:\c18v3.46\pic18-lt\cxx-framework\src\extended\proc\p18f8722.asm
                 POSTINC1   0x000fe6       data     extern E:\c18v3.46\pic18-lt\cxx-framework\src\extended\proc\p18f8722.asm
                    INDF1   0x000fe7       data     extern E:\c18v3.46\pic18-lt\cxx-framework\src\extended\proc\p18f8722.asm
                     WREG   0x000fe8       data     extern E:\c18v3.46\pic18-lt\cxx-framework\src\extended\proc\p18f8722.asm
                    FSR0L   0x000fe9       data     extern E:\c18v3.46\pic18-lt\cxx-framework\src\extended\proc\p18f8722.asm
                     FSR0   0x000fe9       data     extern E:\c18v3.46\pic18-lt\cxx-framework\src\extended\proc\p18f8722.asm
                    FSR0H   0x000fea       data     extern E:\c18v3.46\pic18-lt\cxx-framework\src\extended\proc\p18f8722.asm
                   PLUSW0   0x000feb       data     extern E:\c18v3.46\pic18-lt\cxx-framework\src\extended\proc\p18f8722.asm
                  PREINC0   0x000fec       data     extern E:\c18v3.46\pic18-lt\cxx-framework\src\extended\proc\p18f8722.asm
                 POSTDEC0   0x000fed       data     extern E:\c18v3.46\pic18-lt\cxx-framework\src\extended\proc\p18f8722.asm
                 POSTINC0   0x000fee       data     extern E:\c18v3.46\pic18-lt\cxx-framework\src\extended\proc\p18f8722.asm
                    INDF0   0x000fef       data     extern E:\c18v3.46\pic18-lt\cxx-framework\src\extended\proc\p18f8722.asm
              INTCON3bits   0x000ff0       data     extern E:\c18v3.46\pic18-lt\cxx-framework\src\extended\proc\p18f8722.asm
                  INTCON3   0x000ff0       data     extern E:\c18v3.46\pic18-lt\cxx-framework\src\extended\proc\p18f8722.asm
              INTCON2bits   0x000ff1       data     extern E:\c18v3.46\pic18-lt\cxx-framework\src\extended\proc\p18f8722.asm
                  INTCON2   0x000ff1       data     extern E:\c18v3.46\pic18-lt\cxx-framework\src\extended\proc\p18f8722.asm
                   INTCON   0x000ff2       data     extern E:\c18v3.46\pic18-lt\cxx-framework\src\extended\proc\p18f8722.asm
               INTCONbits   0x000ff2       data     extern E:\c18v3.46\pic18-lt\cxx-framework\src\extended\proc\p18f8722.asm
                     PROD   0x000ff3       data     extern E:\c18v3.46\pic18-lt\cxx-framework\src\extended\proc\p18f8722.asm
                    PRODL   0x000ff3       data     extern E:\c18v3.46\pic18-lt\cxx-framework\src\extended\proc\p18f8722.asm
                    PRODH   0x000ff4       data     extern E:\c18v3.46\pic18-lt\cxx-framework\src\extended\proc\p18f8722.asm
                   TABLAT   0x000ff5       data     extern E:\c18v3.46\pic18-lt\cxx-framework\src\extended\proc\p18f8722.asm
                   TBLPTR   0x000ff6       data     extern E:\c18v3.46\pic18-lt\cxx-framework\src\extended\proc\p18f8722.asm
                  TBLPTRL   0x000ff6       data     extern E:\c18v3.46\pic18-lt\cxx-framework\src\extended\proc\p18f8722.asm
                  TBLPTRH   0x000ff7       data     extern E:\c18v3.46\pic18-lt\cxx-framework\src\extended\proc\p18f8722.asm
                  TBLPTRU   0x000ff8       data     extern E:\c18v3.46\pic18-lt\cxx-framework\src\extended\proc\p18f8722.asm
                      PCL   0x000ff9       data     extern E:\c18v3.46\pic18-lt\cxx-framework\src\extended\proc\p18f8722.asm
                       PC   0x000ff9       data     extern E:\c18v3.46\pic18-lt\cxx-framework\src\extended\proc\p18f8722.asm
                   PCLATH   0x000ffa       data     extern E:\c18v3.46\pic18-lt\cxx-framework\src\extended\proc\p18f8722.asm
                   PCLATU   0x000ffb       data     extern E:\c18v3.46\pic18-lt\cxx-framework\src\extended\proc\p18f8722.asm
               STKPTRbits   0x000ffc       data     extern E:\c18v3.46\pic18-lt\cxx-framework\src\extended\proc\p18f8722.asm
                   STKPTR   0x000ffc       data     extern E:\c18v3.46\pic18-lt\cxx-framework\src\extended\proc\p18f8722.asm
                      TOS   0x000ffd       data     extern E:\c18v3.46\pic18-lt\cxx-framework\src\extended\proc\p18f8722.asm
                     TOSL   0x000ffd       data     extern E:\c18v3.46\pic18-lt\cxx-framework\src\extended\proc\p18f8722.asm
                     TOSH   0x000ffe       data     extern E:\c18v3.46\pic18-lt\cxx-framework\src\extended\proc\p18f8722.asm
                     TOSU   0x000fff       data     extern E:\c18v3.46\pic18-lt\cxx-framework\src\extended\proc\p18f8722.asm


